; generated by Component: ARM Compiler 5.06 update 6 (build 750) Tool: ArmCC [4d3637]
; commandline ArmCC [--c99 --split_sections --debug -c --asm --interleave -osmart_tracker_datn_nas\stm32l4xx_hal_adc.o --asm_dir=./ --list_dir=--list --depend=smart_tracker_datn_nas\stm32l4xx_hal_adc.d --cpu=Cortex-M4.fp --apcs=interwork -O3 --diag_suppress=9931 -I../Core/Inc -I../Drivers/STM32L4xx_HAL_Driver/Inc -I../Drivers/STM32L4xx_HAL_Driver/Inc/Legacy -I../Drivers/CMSIS/Device/ST/STM32L4xx/Include -I../Drivers/CMSIS/Include -I../Lib/BSP -I../Lib/Driver_Custom -I../Lib/Services/StorageManager -I../Lib/Task -I../Lib/Utils -I../Middlewares/Third_Party/FreeRTOS/Source/include -I../Middlewares/Third_Party/FreeRTOS/Source/CMSIS_RTOS -I../Middlewares/Third_Party/FreeRTOS/Source/portable/RVDS/ARM_CM4F -I.\RTE\_Smart_tracker_DATN_NAS -ID:\Keil_C\ARM\CMSIS\5.5.1\CMSIS\Core\Include -ID:\Keil_C\Keil\STM32L4xx_DFP\2.2.0\Drivers\CMSIS\Device\ST\STM32L4xx\Include -D__UVISION_VERSION=528 -D_RTE_ -DSTM32L431xx -DUSE_HAL_DRIVER -DSTM32L431xx --omf_browse=smart_tracker_datn_nas\stm32l4xx_hal_adc.crf ../Drivers/STM32L4xx_HAL_Driver/Src/stm32l4xx_hal_adc.c]
                          THUMB

                          AREA ||i.ADC_ConversionStop||, CODE, READONLY, ALIGN=2

                  ADC_ConversionStop PROC
;;;3253     */
;;;3254   HAL_StatusTypeDef ADC_ConversionStop(ADC_HandleTypeDef *hadc, uint32_t ConversionGroup)
000000  e92d41f0          PUSH     {r4-r8,lr}
;;;3255   {
000004  4604              MOV      r4,r0
;;;3256     uint32_t tickstart;
;;;3257     uint32_t Conversion_Timeout_CPU_cycles = 0UL;
000006  2700              MOVS     r7,#0
;;;3258     uint32_t conversion_group_reassigned = ConversionGroup;
000008  460d              MOV      r5,r1
;;;3259     uint32_t tmp_ADC_CR_ADSTART_JADSTART;
;;;3260     uint32_t tmp_adc_is_conversion_on_going_regular;
;;;3261     uint32_t tmp_adc_is_conversion_on_going_injected;
;;;3262   
;;;3263     /* Check the parameters */
;;;3264     assert_param(IS_ADC_ALL_INSTANCE(hadc->Instance));
;;;3265     assert_param(IS_ADC_CONVERSION_GROUP(ConversionGroup));
;;;3266   
;;;3267     /* Verification if ADC is not already stopped (on regular and injected      */
;;;3268     /* groups) to bypass this function if not needed.                           */
;;;3269     tmp_adc_is_conversion_on_going_regular = LL_ADC_REG_IsConversionOngoing(hadc->Instance);
00000a  6800              LDR      r0,[r0,#0]
00000c  f7fffffe          BL       LL_ADC_REG_IsConversionOngoing
000010  4606              MOV      r6,r0
;;;3270     tmp_adc_is_conversion_on_going_injected = LL_ADC_INJ_IsConversionOngoing(hadc->Instance);
000012  6820              LDR      r0,[r4,#0]
000014  f7fffffe          BL       LL_ADC_INJ_IsConversionOngoing
;;;3271     if ((tmp_adc_is_conversion_on_going_regular != 0UL)
000018  4330              ORRS     r0,r0,r6
00001a  d05d              BEQ      |L1.216|
;;;3272         || (tmp_adc_is_conversion_on_going_injected != 0UL)
;;;3273        )
;;;3274     {
;;;3275       /* Particular case of continuous auto-injection mode combined with        */
;;;3276       /* auto-delay mode.                                                       */
;;;3277       /* In auto-injection mode, regular group stop ADC_CR_ADSTP is used (not   */
;;;3278       /* injected group stop ADC_CR_JADSTP).                                    */
;;;3279       /* Procedure to be followed: Wait until JEOS=1, clear JEOS, set ADSTP=1   */
;;;3280       /* (see reference manual).                                                */
;;;3281       if (((hadc->Instance->CFGR & ADC_CFGR_JAUTO) != 0UL)
00001c  6820              LDR      r0,[r4,#0]
00001e  68c1              LDR      r1,[r0,#0xc]
000020  4e2e              LDR      r6,|L1.220|
000022  0189              LSLS     r1,r1,#6
000024  d505              BPL      |L1.50|
;;;3282           && (hadc->Init.ContinuousConvMode == ENABLE)
000026  7e61              LDRB     r1,[r4,#0x19]
000028  2901              CMP      r1,#1
00002a  d102              BNE      |L1.50|
;;;3283           && (hadc->Init.LowPowerAutoWait == ENABLE)
00002c  7e21              LDRB     r1,[r4,#0x18]
00002e  2901              CMP      r1,#1
000030  d00b              BEQ      |L1.74|
                  |L1.50|
;;;3284          )
;;;3285       {
;;;3286         /* Use stop of regular group */
;;;3287         conversion_group_reassigned = ADC_REGULAR_GROUP;
;;;3288   
;;;3289         /* Wait until JEOS=1 (maximum Timeout: 4 injected conversions) */
;;;3290         while (__HAL_ADC_GET_FLAG(hadc, ADC_FLAG_JEOS) == 0UL)
;;;3291         {
;;;3292           if (Conversion_Timeout_CPU_cycles >= (ADC_CONVERSION_TIME_MAX_CPU_CYCLES * 4UL))
;;;3293           {
;;;3294             /* Update ADC state machine to error */
;;;3295             SET_BIT(hadc->State, HAL_ADC_STATE_ERROR_INTERNAL);
;;;3296   
;;;3297             /* Set ADC error code to ADC peripheral internal error */
;;;3298             SET_BIT(hadc->ErrorCode, HAL_ADC_ERROR_INTERNAL);
;;;3299   
;;;3300             return HAL_ERROR;
;;;3301           }
;;;3302           Conversion_Timeout_CPU_cycles ++;
;;;3303         }
;;;3304   
;;;3305         /* Clear JEOS */
;;;3306         __HAL_ADC_CLEAR_FLAG(hadc, ADC_FLAG_JEOS);
;;;3307       }
;;;3308   
;;;3309       /* Stop potential conversion on going on ADC group regular */
;;;3310       if (conversion_group_reassigned != ADC_INJECTED_GROUP)
000032  2d02              CMP      r5,#2
000034  d01d              BEQ      |L1.114|
                  |L1.54|
;;;3311       {
;;;3312         /* Software is allowed to set ADSTP only when ADSTART=1 and ADDIS=0 */
;;;3313         if (LL_ADC_REG_IsConversionOngoing(hadc->Instance) != 0UL)
000036  6820              LDR      r0,[r4,#0]
000038  f7fffffe          BL       LL_ADC_REG_IsConversionOngoing
00003c  b1b8              CBZ      r0,|L1.110|
00003e  6820              LDR      r0,[r4,#0]
000040  6881              LDR      r1,[r0,#8]
000042  f3c10140          UBFX     r1,r1,#1,#1
;;;3314         {
;;;3315           if (LL_ADC_IsDisableOngoing(hadc->Instance) == 0UL)
000046  b169              CBZ      r1,|L1.100|
000048  e011              B        |L1.110|
                  |L1.74|
00004a  2501              MOVS     r5,#1                 ;3287
00004c  4924              LDR      r1,|L1.224|
00004e  e002              B        |L1.86|
                  |L1.80|
000050  428f              CMP      r7,r1                 ;3292
000052  d232              BCS      |L1.186|
000054  1c7f              ADDS     r7,r7,#1              ;3292
                  |L1.86|
000056  6802              LDR      r2,[r0,#0]            ;3290
000058  43d2              MVNS     r2,r2                 ;3290
00005a  0652              LSLS     r2,r2,#25             ;3290
00005c  d4f8              BMI      |L1.80|
00005e  2140              MOVS     r1,#0x40              ;3306
000060  6001              STR      r1,[r0,#0]            ;3306
000062  e7e8              B        |L1.54|
                  |L1.100|
000064  6881              LDR      r1,[r0,#8]            ;3306
000066  4031              ANDS     r1,r1,r6              ;3306
000068  f0410110          ORR      r1,r1,#0x10           ;3306
00006c  6081              STR      r1,[r0,#8]            ;3306
                  |L1.110|
;;;3316           {
;;;3317             /* Stop ADC group regular conversion */
;;;3318             LL_ADC_REG_StopConversion(hadc->Instance);
;;;3319           }
;;;3320         }
;;;3321       }
;;;3322   
;;;3323       /* Stop potential conversion on going on ADC group injected */
;;;3324       if (conversion_group_reassigned != ADC_REGULAR_GROUP)
00006e  2d01              CMP      r5,#1
000070  d011              BEQ      |L1.150|
                  |L1.114|
;;;3325       {
;;;3326         /* Software is allowed to set JADSTP only when JADSTART=1 and ADDIS=0 */
;;;3327         if (LL_ADC_INJ_IsConversionOngoing(hadc->Instance) != 0UL)
000072  6820              LDR      r0,[r4,#0]
000074  f7fffffe          BL       LL_ADC_INJ_IsConversionOngoing
000078  b148              CBZ      r0,|L1.142|
00007a  6820              LDR      r0,[r4,#0]
00007c  6881              LDR      r1,[r0,#8]
00007e  f3c10140          UBFX     r1,r1,#1,#1
;;;3328         {
;;;3329           if (LL_ADC_IsDisableOngoing(hadc->Instance) == 0UL)
000082  b921              CBNZ     r1,|L1.142|
000084  6881              LDR      r1,[r0,#8]
000086  4031              ANDS     r1,r1,r6
000088  f0410120          ORR      r1,r1,#0x20
00008c  6081              STR      r1,[r0,#8]
                  |L1.142|
;;;3330           {
;;;3331             /* Stop ADC group injected conversion */
;;;3332             LL_ADC_INJ_StopConversion(hadc->Instance);
;;;3333           }
;;;3334         }
;;;3335       }
;;;3336   
;;;3337       /* Selection of start and stop bits with respect to the regular or injected group */
;;;3338       switch (conversion_group_reassigned)
00008e  2d02              CMP      r5,#2
000090  d008              BEQ      |L1.164|
000092  2d03              CMP      r5,#3
000094  d004              BEQ      |L1.160|
                  |L1.150|
;;;3339       {
;;;3340         case ADC_REGULAR_INJECTED_GROUP:
;;;3341           tmp_ADC_CR_ADSTART_JADSTART = (ADC_CR_ADSTART | ADC_CR_JADSTART);
;;;3342           break;
;;;3343         case ADC_INJECTED_GROUP:
;;;3344           tmp_ADC_CR_ADSTART_JADSTART = ADC_CR_JADSTART;
;;;3345           break;
;;;3346         /* Case ADC_REGULAR_GROUP only*/
;;;3347         default:
;;;3348           tmp_ADC_CR_ADSTART_JADSTART = ADC_CR_ADSTART;
000096  2504              MOVS     r5,#4
                  |L1.152|
;;;3349           break;
;;;3350       }
;;;3351   
;;;3352       /* Wait for conversion effectively stopped */
;;;3353       tickstart = HAL_GetTick();
000098  f7fffffe          BL       HAL_GetTick
00009c  4606              MOV      r6,r0
;;;3354   
;;;3355       while ((hadc->Instance->CR & tmp_ADC_CR_ADSTART_JADSTART) != 0UL)
00009e  e017              B        |L1.208|
                  |L1.160|
0000a0  250c              MOVS     r5,#0xc               ;3341
0000a2  e7f9              B        |L1.152|
                  |L1.164|
0000a4  2508              MOVS     r5,#8                 ;3344
0000a6  e7f7              B        |L1.152|
                  |L1.168|
;;;3356       {
;;;3357         if ((HAL_GetTick() - tickstart) > ADC_STOP_CONVERSION_TIMEOUT)
0000a8  f7fffffe          BL       HAL_GetTick
0000ac  1b80              SUBS     r0,r0,r6
0000ae  2805              CMP      r0,#5
0000b0  d90e              BLS      |L1.208|
;;;3358         {
;;;3359           /* New check to avoid false timeout detection in case of preemption */
;;;3360           if ((hadc->Instance->CR & tmp_ADC_CR_ADSTART_JADSTART) != 0UL)
0000b2  6820              LDR      r0,[r4,#0]
0000b4  6880              LDR      r0,[r0,#8]
0000b6  4228              TST      r0,r5
0000b8  d00a              BEQ      |L1.208|
                  |L1.186|
;;;3361           {
;;;3362             /* Update ADC state machine to error */
;;;3363             SET_BIT(hadc->State, HAL_ADC_STATE_ERROR_INTERNAL);
0000ba  6d60              LDR      r0,[r4,#0x54]
0000bc  f0400010          ORR      r0,r0,#0x10
0000c0  6560              STR      r0,[r4,#0x54]
;;;3364   
;;;3365             /* Set ADC error code to ADC peripheral internal error */
;;;3366             SET_BIT(hadc->ErrorCode, HAL_ADC_ERROR_INTERNAL);
0000c2  6da0              LDR      r0,[r4,#0x58]
0000c4  f0400001          ORR      r0,r0,#1
0000c8  65a0              STR      r0,[r4,#0x58]
;;;3367   
;;;3368             return HAL_ERROR;
0000ca  2001              MOVS     r0,#1
                  |L1.204|
;;;3369           }
;;;3370         }
;;;3371       }
;;;3372   
;;;3373     }
;;;3374   
;;;3375     /* Return HAL status */
;;;3376     return HAL_OK;
;;;3377   }
0000cc  e8bd81f0          POP      {r4-r8,pc}
                  |L1.208|
0000d0  6820              LDR      r0,[r4,#0]            ;3355
0000d2  6880              LDR      r0,[r0,#8]            ;3355
0000d4  4228              TST      r0,r5                 ;3355
0000d6  d1e7              BNE      |L1.168|
                  |L1.216|
0000d8  2000              MOVS     r0,#0                 ;3376
0000da  e7f7              B        |L1.204|
;;;3378   
                          ENDP

                  |L1.220|
                          DCD      0x7fffffc0
                  |L1.224|
                          DCD      0xa3400000

                          AREA ||i.ADC_DMAConvCplt||, CODE, READONLY, ALIGN=1

                  ADC_DMAConvCplt PROC
;;;3539     */
;;;3540   void ADC_DMAConvCplt(DMA_HandleTypeDef *hdma)
000000  b510              PUSH     {r4,lr}
;;;3541   {
;;;3542     /* Retrieve ADC handle corresponding to current DMA handle */
;;;3543     ADC_HandleTypeDef *hadc = (ADC_HandleTypeDef *)((DMA_HandleTypeDef *)hdma)->Parent;
;;;3544   
;;;3545     /* Update state machine on conversion status if not in error state */
;;;3546     if ((hadc->State & (HAL_ADC_STATE_ERROR_INTERNAL | HAL_ADC_STATE_ERROR_DMA)) == 0UL)
000002  6a84              LDR      r4,[r0,#0x28]
000004  6d61              LDR      r1,[r4,#0x54]
000006  f0110f50          TST      r1,#0x50
00000a  d006              BEQ      |L2.26|
;;;3547     {
;;;3548       /* Set ADC state */
;;;3549       SET_BIT(hadc->State, HAL_ADC_STATE_REG_EOC);
;;;3550   
;;;3551       /* Determine whether any further conversion upcoming on group regular     */
;;;3552       /* by external trigger, continuous mode or scan sequence on going         */
;;;3553       /* to disable interruption.                                               */
;;;3554       /* Is it the end of the regular sequence ? */
;;;3555       if ((hadc->Instance->ISR & ADC_FLAG_EOS) != 0UL)
;;;3556       {
;;;3557         /* Are conversions software-triggered ? */
;;;3558         if (LL_ADC_REG_IsTriggerSourceSWStart(hadc->Instance) != 0UL)
;;;3559         {
;;;3560           /* Is CONT bit set ? */
;;;3561           if (READ_BIT(hadc->Instance->CFGR, ADC_CFGR_CONT) == 0UL)
;;;3562           {
;;;3563             /* CONT bit is not set, no more conversions expected */
;;;3564             CLEAR_BIT(hadc->State, HAL_ADC_STATE_REG_BUSY);
;;;3565             if ((hadc->State & HAL_ADC_STATE_INJ_BUSY) == 0UL)
;;;3566             {
;;;3567               SET_BIT(hadc->State, HAL_ADC_STATE_READY);
;;;3568             }
;;;3569           }
;;;3570         }
;;;3571       }
;;;3572       else
;;;3573       {
;;;3574         /* DMA End of Transfer interrupt was triggered but conversions sequence
;;;3575            is not over. If DMACFG is set to 0, conversions are stopped. */
;;;3576         if (READ_BIT(hadc->Instance->CFGR, ADC_CFGR_DMACFG) == 0UL)
;;;3577         {
;;;3578           /* DMACFG bit is not set, conversions are stopped. */
;;;3579           CLEAR_BIT(hadc->State, HAL_ADC_STATE_REG_BUSY);
;;;3580           if ((hadc->State & HAL_ADC_STATE_INJ_BUSY) == 0UL)
;;;3581           {
;;;3582             SET_BIT(hadc->State, HAL_ADC_STATE_READY);
;;;3583           }
;;;3584         }
;;;3585       }
;;;3586   
;;;3587       /* Conversion complete callback */
;;;3588   #if (USE_HAL_ADC_REGISTER_CALLBACKS == 1)
;;;3589       hadc->ConvCpltCallback(hadc);
;;;3590   #else
;;;3591       HAL_ADC_ConvCpltCallback(hadc);
;;;3592   #endif /* USE_HAL_ADC_REGISTER_CALLBACKS */
;;;3593     }
;;;3594     else /* DMA and-or internal error occurred */
;;;3595     {
;;;3596       if ((hadc->State & HAL_ADC_STATE_ERROR_INTERNAL) != 0UL)
00000c  6d61              LDR      r1,[r4,#0x54]
00000e  06c9              LSLS     r1,r1,#27
000010  d525              BPL      |L2.94|
;;;3597       {
;;;3598         /* Call HAL ADC Error Callback function */
;;;3599   #if (USE_HAL_ADC_REGISTER_CALLBACKS == 1)
;;;3600         hadc->ErrorCallback(hadc);
;;;3601   #else
;;;3602         HAL_ADC_ErrorCallback(hadc);
000012  4620              MOV      r0,r4
000014  f7fffffe          BL       HAL_ADC_ErrorCallback
;;;3603   #endif /* USE_HAL_ADC_REGISTER_CALLBACKS */
;;;3604       }
;;;3605       else
;;;3606       {
;;;3607         /* Call ADC DMA error callback */
;;;3608         hadc->DMA_Handle->XferErrorCallback(hdma);
;;;3609       }
;;;3610     }
;;;3611   }
000018  bd10              POP      {r4,pc}
                  |L2.26|
00001a  6d60              LDR      r0,[r4,#0x54]         ;3549
00001c  f4407000          ORR      r0,r0,#0x200          ;3549
000020  6560              STR      r0,[r4,#0x54]         ;3549
000022  6820              LDR      r0,[r4,#0]            ;3555
000024  6801              LDR      r1,[r0,#0]            ;3555
000026  0709              LSLS     r1,r1,#28             ;3555
000028  d516              BPL      |L2.88|
00002a  f7fffffe          BL       LL_ADC_REG_IsTriggerSourceSWStart
00002e  b178              CBZ      r0,|L2.80|
000030  6820              LDR      r0,[r4,#0]            ;3561
000032  68c0              LDR      r0,[r0,#0xc]          ;3561
000034  0480              LSLS     r0,r0,#18             ;3561
                  |L2.54|
000036  2800              CMP      r0,#0                 ;3576
000038  db0a              BLT      |L2.80|
00003a  6d60              LDR      r0,[r4,#0x54]         ;3579
00003c  f4207080          BIC      r0,r0,#0x100          ;3579
000040  6560              STR      r0,[r4,#0x54]         ;3579
000042  6d60              LDR      r0,[r4,#0x54]         ;3580
000044  04c0              LSLS     r0,r0,#19             ;3580
000046  d403              BMI      |L2.80|
000048  6d60              LDR      r0,[r4,#0x54]         ;3582
00004a  f0400001          ORR      r0,r0,#1              ;3582
00004e  6560              STR      r0,[r4,#0x54]         ;3582
                  |L2.80|
000050  4620              MOV      r0,r4                 ;3591
000052  f7fffffe          BL       HAL_ADC_ConvCpltCallback
000056  bd10              POP      {r4,pc}
                  |L2.88|
000058  68c0              LDR      r0,[r0,#0xc]          ;3576
00005a  0780              LSLS     r0,r0,#30             ;3576
00005c  e7eb              B        |L2.54|
                  |L2.94|
00005e  6ce1              LDR      r1,[r4,#0x4c]         ;3608
000060  6b49              LDR      r1,[r1,#0x34]         ;3608
000062  e8bd4010          POP      {r4,lr}               ;3608
000066  4708              BX       r1                    ;3608
;;;3612   
                          ENDP


                          AREA ||i.ADC_DMAError||, CODE, READONLY, ALIGN=1

                  ADC_DMAError PROC
;;;3635     */
;;;3636   void ADC_DMAError(DMA_HandleTypeDef *hdma)
000000  b510              PUSH     {r4,lr}
;;;3637   {
;;;3638     /* Retrieve ADC handle corresponding to current DMA handle */
;;;3639     ADC_HandleTypeDef *hadc = (ADC_HandleTypeDef *)((DMA_HandleTypeDef *)hdma)->Parent;
000002  6a80              LDR      r0,[r0,#0x28]
;;;3640   
;;;3641     /* Set ADC state */
;;;3642     SET_BIT(hadc->State, HAL_ADC_STATE_ERROR_DMA);
000004  6d41              LDR      r1,[r0,#0x54]
000006  f0410140          ORR      r1,r1,#0x40
00000a  6541              STR      r1,[r0,#0x54]
;;;3643   
;;;3644     /* Set ADC error code to DMA error */
;;;3645     SET_BIT(hadc->ErrorCode, HAL_ADC_ERROR_DMA);
00000c  6d81              LDR      r1,[r0,#0x58]
00000e  f0410104          ORR      r1,r1,#4
000012  6581              STR      r1,[r0,#0x58]
;;;3646   
;;;3647     /* Error callback */
;;;3648   #if (USE_HAL_ADC_REGISTER_CALLBACKS == 1)
;;;3649     hadc->ErrorCallback(hadc);
;;;3650   #else
;;;3651     HAL_ADC_ErrorCallback(hadc);
000014  f7fffffe          BL       HAL_ADC_ErrorCallback
;;;3652   #endif /* USE_HAL_ADC_REGISTER_CALLBACKS */
;;;3653   }
000018  bd10              POP      {r4,pc}
;;;3654   
                          ENDP


                          AREA ||i.ADC_DMAHalfConvCplt||, CODE, READONLY, ALIGN=1

                  ADC_DMAHalfConvCplt PROC
;;;3617     */
;;;3618   void ADC_DMAHalfConvCplt(DMA_HandleTypeDef *hdma)
000000  b510              PUSH     {r4,lr}
;;;3619   {
;;;3620     /* Retrieve ADC handle corresponding to current DMA handle */
;;;3621     ADC_HandleTypeDef *hadc = (ADC_HandleTypeDef *)((DMA_HandleTypeDef *)hdma)->Parent;
000002  6a80              LDR      r0,[r0,#0x28]
;;;3622   
;;;3623     /* Half conversion callback */
;;;3624   #if (USE_HAL_ADC_REGISTER_CALLBACKS == 1)
;;;3625     hadc->ConvHalfCpltCallback(hadc);
;;;3626   #else
;;;3627     HAL_ADC_ConvHalfCpltCallback(hadc);
000004  f7fffffe          BL       HAL_ADC_ConvHalfCpltCallback
;;;3628   #endif /* USE_HAL_ADC_REGISTER_CALLBACKS */
;;;3629   }
000008  bd10              POP      {r4,pc}
;;;3630   
                          ENDP


                          AREA ||i.ADC_Disable||, CODE, READONLY, ALIGN=2

                  ADC_Disable PROC
;;;3477     */
;;;3478   HAL_StatusTypeDef ADC_Disable(ADC_HandleTypeDef *hadc)
000000  b570              PUSH     {r4-r6,lr}
;;;3479   {
000002  4604              MOV      r4,r0
;;;3480     uint32_t tickstart;
;;;3481     const uint32_t tmp_adc_is_disable_on_going = LL_ADC_IsDisableOngoing(hadc->Instance);
000004  6800              LDR      r0,[r0,#0]
000006  6881              LDR      r1,[r0,#8]
000008  6882              LDR      r2,[r0,#8]
00000a  f3c10140          UBFX     r1,r1,#1,#1
00000e  f0120f01          TST      r2,#1
000012  d028              BEQ      |L5.102|
;;;3482   
;;;3483     /* Verification if ADC is not already disabled:                             */
;;;3484     /* Note: forbidden to disable ADC (set bit ADC_CR_ADDIS) if ADC is already  */
;;;3485     /*       disabled.                                                          */
;;;3486     if ((LL_ADC_IsEnabled(hadc->Instance) != 0UL)
;;;3487         && (tmp_adc_is_disable_on_going == 0UL)
000014  bb39              CBNZ     r1,|L5.102|
;;;3488        )
;;;3489     {
;;;3490       /* Check if conditions to disable the ADC are fulfilled */
;;;3491       if ((hadc->Instance->CR & (ADC_CR_JADSTART | ADC_CR_ADSTART | ADC_CR_ADEN)) == ADC_CR_ADEN)
000016  6881              LDR      r1,[r0,#8]
000018  f001010d          AND      r1,r1,#0xd
00001c  2901              CMP      r1,#1
00001e  d114              BNE      |L5.74|
000020  6881              LDR      r1,[r0,#8]
000022  4a12              LDR      r2,|L5.108|
000024  4011              ANDS     r1,r1,r2
000026  1c89              ADDS     r1,r1,#2
000028  6081              STR      r1,[r0,#8]
;;;3492       {
;;;3493         /* Disable the ADC peripheral */
;;;3494         LL_ADC_Disable(hadc->Instance);
;;;3495         __HAL_ADC_CLEAR_FLAG(hadc, (ADC_FLAG_EOSMP | ADC_FLAG_RDY));
00002a  6821              LDR      r1,[r4,#0]
00002c  2003              MOVS     r0,#3
00002e  6008              STR      r0,[r1,#0]
;;;3496       }
;;;3497       else
;;;3498       {
;;;3499         /* Update ADC state machine to error */
;;;3500         SET_BIT(hadc->State, HAL_ADC_STATE_ERROR_INTERNAL);
;;;3501   
;;;3502         /* Set ADC error code to ADC peripheral internal error */
;;;3503         SET_BIT(hadc->ErrorCode, HAL_ADC_ERROR_INTERNAL);
;;;3504   
;;;3505         return HAL_ERROR;
;;;3506       }
;;;3507   
;;;3508       /* Wait for ADC effectively disabled */
;;;3509       /* Get tick count */
;;;3510       tickstart = HAL_GetTick();
000030  f7fffffe          BL       HAL_GetTick
000034  4605              MOV      r5,r0
000036  e012              B        |L5.94|
                  |L5.56|
;;;3511   
;;;3512       while ((hadc->Instance->CR & ADC_CR_ADEN) != 0UL)
;;;3513       {
;;;3514         if ((HAL_GetTick() - tickstart) > ADC_DISABLE_TIMEOUT)
000038  f7fffffe          BL       HAL_GetTick
00003c  1b40              SUBS     r0,r0,r5
00003e  2802              CMP      r0,#2
000040  d90d              BLS      |L5.94|
;;;3515         {
;;;3516           /* New check to avoid false timeout detection in case of preemption */
;;;3517           if ((hadc->Instance->CR & ADC_CR_ADEN) != 0UL)
000042  6820              LDR      r0,[r4,#0]
000044  6880              LDR      r0,[r0,#8]
000046  07c0              LSLS     r0,r0,#31
000048  d009              BEQ      |L5.94|
                  |L5.74|
;;;3518           {
;;;3519             /* Update ADC state machine to error */
;;;3520             SET_BIT(hadc->State, HAL_ADC_STATE_ERROR_INTERNAL);
00004a  6d60              LDR      r0,[r4,#0x54]
00004c  f0400010          ORR      r0,r0,#0x10
000050  6560              STR      r0,[r4,#0x54]
;;;3521   
;;;3522             /* Set ADC error code to ADC peripheral internal error */
;;;3523             SET_BIT(hadc->ErrorCode, HAL_ADC_ERROR_INTERNAL);
000052  6da0              LDR      r0,[r4,#0x58]
000054  f0400001          ORR      r0,r0,#1
000058  65a0              STR      r0,[r4,#0x58]
;;;3524   
;;;3525             return HAL_ERROR;
00005a  2001              MOVS     r0,#1
;;;3526           }
;;;3527         }
;;;3528       }
;;;3529     }
;;;3530   
;;;3531     /* Return HAL status */
;;;3532     return HAL_OK;
;;;3533   }
00005c  bd70              POP      {r4-r6,pc}
                  |L5.94|
00005e  6820              LDR      r0,[r4,#0]            ;3512
000060  6880              LDR      r0,[r0,#8]            ;3512
000062  07c0              LSLS     r0,r0,#31             ;3512
000064  d1e8              BNE      |L5.56|
                  |L5.102|
000066  2000              MOVS     r0,#0                 ;3532
000068  bd70              POP      {r4-r6,pc}
;;;3534   
                          ENDP

00006a  0000              DCW      0x0000
                  |L5.108|
                          DCD      0x7fffffc0

                          AREA ||i.ADC_Enable||, CODE, READONLY, ALIGN=2

                  ADC_Enable PROC
;;;3385     */
;;;3386   HAL_StatusTypeDef ADC_Enable(ADC_HandleTypeDef *hadc)
000000  b5f8              PUSH     {r3-r7,lr}
;;;3387   {
000002  4604              MOV      r4,r0
;;;3388     uint32_t tickstart;
;;;3389     __IO uint32_t wait_loop_index = 0UL;
000004  2000              MOVS     r0,#0
;;;3390   
;;;3391     /* ADC enable and wait for ADC ready (in case of ADC is disabled or         */
;;;3392     /* enabling phase not yet completed: flag ADC ready not yet set).           */
;;;3393     /* Timeout implemented to not be stuck if ADC cannot be enabled (possible   */
;;;3394     /* causes: ADC clock not running, ...).                                     */
;;;3395     if (LL_ADC_IsEnabled(hadc->Instance) == 0UL)
000006  9000              STR      r0,[sp,#0]
000008  6820              LDR      r0,[r4,#0]
00000a  6881              LDR      r1,[r0,#8]
00000c  f0110f01          TST      r1,#1
000010  d141              BNE      |L6.150|
;;;3396     {
;;;3397       /* Check if conditions to enable the ADC are fulfilled */
;;;3398       if ((hadc->Instance->CR & (ADC_CR_ADCAL | ADC_CR_JADSTP | ADC_CR_ADSTP | ADC_CR_JADSTART | ADC_CR_ADSTART
000012  6881              LDR      r1,[r0,#8]
000014  4a21              LDR      r2,|L6.156|
000016  4211              TST      r1,r2
000018  d12e              BNE      |L6.120|
00001a  6881              LDR      r1,[r0,#8]
00001c  43d5              MVNS     r5,r2
00001e  4029              ANDS     r1,r1,r5
000020  1c49              ADDS     r1,r1,#1
000022  6081              STR      r1,[r0,#8]
000024  481e              LDR      r0,|L6.160|
000026  6880              LDR      r0,[r0,#8]
000028  f00070e0          AND      r0,r0,#0x1c00000
;;;3399                                  | ADC_CR_ADDIS | ADC_CR_ADEN)) != 0UL)
;;;3400       {
;;;3401         /* Update ADC state machine to error */
;;;3402         SET_BIT(hadc->State, HAL_ADC_STATE_ERROR_INTERNAL);
;;;3403   
;;;3404         /* Set ADC error code to ADC peripheral internal error */
;;;3405         SET_BIT(hadc->ErrorCode, HAL_ADC_ERROR_INTERNAL);
;;;3406   
;;;3407         return HAL_ERROR;
;;;3408       }
;;;3409   
;;;3410       /* Enable the ADC peripheral */
;;;3411       LL_ADC_Enable(hadc->Instance);
;;;3412   
;;;3413       if((LL_ADC_GetCommonPathInternalCh(__LL_ADC_COMMON_INSTANCE(hadc->Instance)) & LL_ADC_PATH_INTERNAL_TEMPSENSOR) != 0UL)
00002c  0200              LSLS     r0,r0,#8
00002e  d50d              BPL      |L6.76|
;;;3414       {
;;;3415         /* Delay for temperature sensor buffer stabilization time */
;;;3416         /* Note: Value LL_ADC_DELAY_TEMPSENSOR_STAB_US used instead of      */
;;;3417         /*       LL_ADC_DELAY_TEMPSENSOR_BUFFER_STAB_US because needed      */
;;;3418         /*       in case of ADC enable after a system wake up               */
;;;3419         /*       from low power mode.                                       */
;;;3420   
;;;3421         /* Wait loop initialization and execution */
;;;3422         /* Note: Variable divided by 2 to compensate partially              */
;;;3423         /*       CPU processing cycles, scaling in us split to not          */
;;;3424         /*       exceed 32 bits register capacity and handle low frequency. */
;;;3425         wait_loop_index = ((LL_ADC_DELAY_TEMPSENSOR_STAB_US / 10UL) * ((SystemCoreClock / (100000UL * 2UL)) + 1UL));
000030  481c              LDR      r0,|L6.164|
000032  491d              LDR      r1,|L6.168|
000034  6800              LDR      r0,[r0,#0]  ; SystemCoreClock
000036  fbb0f0f1          UDIV     r0,r0,r1
00003a  1c40              ADDS     r0,r0,#1
00003c  eb000040          ADD      r0,r0,r0,LSL #1
000040  0080              LSLS     r0,r0,#2
;;;3426         while(wait_loop_index != 0UL)
000042  e000              B        |L6.70|
                  |L6.68|
000044  1e40              SUBS     r0,r0,#1
                  |L6.70|
000046  9000              STR      r0,[sp,#0]            ;3425
000048  2800              CMP      r0,#0                 ;3425
00004a  d1fb              BNE      |L6.68|
                  |L6.76|
;;;3427         {
;;;3428           wait_loop_index--;
;;;3429         }
;;;3430       }
;;;3431   
;;;3432       /* Wait for ADC effectively enabled */
;;;3433       tickstart = HAL_GetTick();
00004c  f7fffffe          BL       HAL_GetTick
000050  4606              MOV      r6,r0
;;;3434   
;;;3435       while (__HAL_ADC_GET_FLAG(hadc, ADC_FLAG_RDY) == 0UL)
000052  e01b              B        |L6.140|
                  |L6.84|
000054  6881              LDR      r1,[r0,#8]
000056  f0110f01          TST      r1,#1
;;;3436       {
;;;3437         /*  If ADEN bit is set less than 4 ADC clock cycles after the ADCAL bit
;;;3438             has been cleared (after a calibration), ADEN bit is reset by the
;;;3439             calibration logic.
;;;3440             The workaround is to continue setting ADEN until ADRDY is becomes 1.
;;;3441             Additionally, ADC_ENABLE_TIMEOUT is defined to encompass this
;;;3442             4 ADC clock cycle duration */
;;;3443         /* Note: Test of ADC enabled required due to hardware constraint to     */
;;;3444         /*       not enable ADC if already enabled.                             */
;;;3445         if (LL_ADC_IsEnabled(hadc->Instance) == 0UL)
00005a  d103              BNE      |L6.100|
00005c  6881              LDR      r1,[r0,#8]
00005e  4029              ANDS     r1,r1,r5
000060  1c49              ADDS     r1,r1,#1
000062  6081              STR      r1,[r0,#8]
                  |L6.100|
;;;3446         {
;;;3447           LL_ADC_Enable(hadc->Instance);
;;;3448         }
;;;3449   
;;;3450         if ((HAL_GetTick() - tickstart) > ADC_ENABLE_TIMEOUT)
000064  f7fffffe          BL       HAL_GetTick
000068  1b80              SUBS     r0,r0,r6
00006a  2802              CMP      r0,#2
00006c  d90e              BLS      |L6.140|
;;;3451         {
;;;3452           /* New check to avoid false timeout detection in case of preemption */
;;;3453           if (__HAL_ADC_GET_FLAG(hadc, ADC_FLAG_RDY) == 0UL)
00006e  6820              LDR      r0,[r4,#0]
000070  6800              LDR      r0,[r0,#0]
000072  43c0              MVNS     r0,r0
000074  07c0              LSLS     r0,r0,#31
000076  d009              BEQ      |L6.140|
                  |L6.120|
;;;3454           {
;;;3455             /* Update ADC state machine to error */
;;;3456             SET_BIT(hadc->State, HAL_ADC_STATE_ERROR_INTERNAL);
000078  6d60              LDR      r0,[r4,#0x54]
00007a  f0400010          ORR      r0,r0,#0x10
00007e  6560              STR      r0,[r4,#0x54]
;;;3457   
;;;3458             /* Set ADC error code to ADC peripheral internal error */
;;;3459             SET_BIT(hadc->ErrorCode, HAL_ADC_ERROR_INTERNAL);
000080  6da0              LDR      r0,[r4,#0x58]
000082  f0400001          ORR      r0,r0,#1
000086  65a0              STR      r0,[r4,#0x58]
;;;3460   
;;;3461             return HAL_ERROR;
000088  2001              MOVS     r0,#1
;;;3462           }
;;;3463         }
;;;3464       }
;;;3465     }
;;;3466   
;;;3467     /* Return HAL status */
;;;3468     return HAL_OK;
;;;3469   }
00008a  bdf8              POP      {r3-r7,pc}
                  |L6.140|
00008c  6820              LDR      r0,[r4,#0]            ;3435
00008e  6801              LDR      r1,[r0,#0]            ;3435
000090  43c9              MVNS     r1,r1                 ;3435
000092  07c9              LSLS     r1,r1,#31             ;3435
000094  d1de              BNE      |L6.84|
                  |L6.150|
000096  2000              MOVS     r0,#0                 ;3468
000098  bdf8              POP      {r3-r7,pc}
;;;3470   
                          ENDP

00009a  0000              DCW      0x0000
                  |L6.156|
                          DCD      0x8000003f
                  |L6.160|
                          DCD      0x50040300
                  |L6.164|
                          DCD      SystemCoreClock
                  |L6.168|
                          DCD      0x00030d40

                          AREA ||i.HAL_ADC_AnalogWDGConfig||, CODE, READONLY, ALIGN=2

                  HAL_ADC_AnalogWDGConfig PROC
;;;2955     */
;;;2956   HAL_StatusTypeDef HAL_ADC_AnalogWDGConfig(ADC_HandleTypeDef *hadc, ADC_AnalogWDGConfTypeDef *AnalogWDGConfig)
000000  e92d5ff0          PUSH     {r4-r12,lr}
;;;2957   {
000004  4604              MOV      r4,r0
;;;2958     HAL_StatusTypeDef tmp_hal_status = HAL_OK;
;;;2959     uint32_t tmpAWDHighThresholdShifted;
;;;2960     uint32_t tmpAWDLowThresholdShifted;
;;;2961     uint32_t tmp_adc_is_conversion_on_going_regular;
;;;2962     uint32_t tmp_adc_is_conversion_on_going_injected;
;;;2963   
;;;2964     /* Check the parameters */
;;;2965     assert_param(IS_ADC_ALL_INSTANCE(hadc->Instance));
;;;2966     assert_param(IS_ADC_ANALOG_WATCHDOG_NUMBER(AnalogWDGConfig->WatchdogNumber));
;;;2967     assert_param(IS_ADC_ANALOG_WATCHDOG_MODE(AnalogWDGConfig->WatchdogMode));
;;;2968     assert_param(IS_FUNCTIONAL_STATE(AnalogWDGConfig->ITMode));
;;;2969   
;;;2970     if ((AnalogWDGConfig->WatchdogMode == ADC_ANALOGWATCHDOG_SINGLE_REG)     ||
;;;2971         (AnalogWDGConfig->WatchdogMode == ADC_ANALOGWATCHDOG_SINGLE_INJEC)   ||
;;;2972         (AnalogWDGConfig->WatchdogMode == ADC_ANALOGWATCHDOG_SINGLE_REGINJEC))
;;;2973     {
;;;2974       assert_param(IS_ADC_CHANNEL(hadc, AnalogWDGConfig->Channel));
;;;2975     }
;;;2976   
;;;2977     /* Verify thresholds range */
;;;2978     if (hadc->Init.OversamplingMode == ENABLE)
;;;2979     {
;;;2980       /* Case of oversampling enabled: depending on ratio and shift configuration,
;;;2981          analog watchdog thresholds can be higher than ADC resolution.
;;;2982          Verify if thresholds are within maximum thresholds range. */
;;;2983       assert_param(IS_ADC_RANGE(ADC_RESOLUTION_12B, AnalogWDGConfig->HighThreshold));
;;;2984       assert_param(IS_ADC_RANGE(ADC_RESOLUTION_12B, AnalogWDGConfig->LowThreshold));
;;;2985     }
;;;2986     else
;;;2987     {
;;;2988       /* Verify if thresholds are within the selected ADC resolution */
;;;2989       assert_param(IS_ADC_RANGE(ADC_GET_RESOLUTION(hadc), AnalogWDGConfig->HighThreshold));
;;;2990       assert_param(IS_ADC_RANGE(ADC_GET_RESOLUTION(hadc), AnalogWDGConfig->LowThreshold));
;;;2991     }
;;;2992   
;;;2993     /* Process locked */
;;;2994     __HAL_LOCK(hadc);
000006  f8900050          LDRB     r0,[r0,#0x50]
00000a  460d              MOV      r5,r1                 ;2957
00000c  f04f0900          MOV      r9,#0                 ;2958
000010  f44f0740          MOV      r7,#0xc00000          ;2970
000014  2801              CMP      r0,#1
000016  d017              BEQ      |L7.72|
000018  2601              MOVS     r6,#1
00001a  f8846050          STRB     r6,[r4,#0x50]
;;;2995   
;;;2996     /* Parameters update conditioned to ADC state:                              */
;;;2997     /* Parameters that can be updated when ADC is disabled or enabled without   */
;;;2998     /* conversion on going on ADC groups regular and injected:                  */
;;;2999     /*  - Analog watchdog channels                                              */
;;;3000     /*  - Analog watchdog thresholds                                            */
;;;3001     tmp_adc_is_conversion_on_going_regular = LL_ADC_REG_IsConversionOngoing(hadc->Instance);
00001e  6820              LDR      r0,[r4,#0]
000020  f7fffffe          BL       LL_ADC_REG_IsConversionOngoing
000024  4680              MOV      r8,r0
;;;3002     tmp_adc_is_conversion_on_going_injected = LL_ADC_INJ_IsConversionOngoing(hadc->Instance);
000026  6820              LDR      r0,[r4,#0]
000028  f7fffffe          BL       LL_ADC_INJ_IsConversionOngoing
;;;3003     if ((tmp_adc_is_conversion_on_going_regular == 0UL)
00002c  ea580000          ORRS     r0,r8,r0
000030  d00c              BEQ      |L7.76|
;;;3004         && (tmp_adc_is_conversion_on_going_injected == 0UL)
;;;3005        )
;;;3006     {
;;;3007       /* Analog watchdog configuration */
;;;3008       if (AnalogWDGConfig->WatchdogNumber == ADC_ANALOGWATCHDOG_1)
;;;3009       {
;;;3010         /* Configuration of analog watchdog:                                    */
;;;3011         /*  - Set the analog watchdog enable mode: one or overall group of      */
;;;3012         /*    channels, on groups regular and-or injected.                      */
;;;3013         switch (AnalogWDGConfig->WatchdogMode)
;;;3014         {
;;;3015           case ADC_ANALOGWATCHDOG_SINGLE_REG:
;;;3016             LL_ADC_SetAnalogWDMonitChannels(hadc->Instance, LL_ADC_AWD1, __LL_ADC_ANALOGWD_CHANNEL_GROUP(AnalogWDGConfig->Channel,
;;;3017                                             LL_ADC_GROUP_REGULAR));
;;;3018             break;
;;;3019   
;;;3020           case ADC_ANALOGWATCHDOG_SINGLE_INJEC:
;;;3021             LL_ADC_SetAnalogWDMonitChannels(hadc->Instance, LL_ADC_AWD1, __LL_ADC_ANALOGWD_CHANNEL_GROUP(AnalogWDGConfig->Channel,
;;;3022                                             LL_ADC_GROUP_INJECTED));
;;;3023             break;
;;;3024   
;;;3025           case ADC_ANALOGWATCHDOG_SINGLE_REGINJEC:
;;;3026             LL_ADC_SetAnalogWDMonitChannels(hadc->Instance, LL_ADC_AWD1, __LL_ADC_ANALOGWD_CHANNEL_GROUP(AnalogWDGConfig->Channel,
;;;3027                                             LL_ADC_GROUP_REGULAR_INJECTED));
;;;3028             break;
;;;3029   
;;;3030           case ADC_ANALOGWATCHDOG_ALL_REG:
;;;3031             LL_ADC_SetAnalogWDMonitChannels(hadc->Instance, LL_ADC_AWD1, LL_ADC_AWD_ALL_CHANNELS_REG);
;;;3032             break;
;;;3033   
;;;3034           case ADC_ANALOGWATCHDOG_ALL_INJEC:
;;;3035             LL_ADC_SetAnalogWDMonitChannels(hadc->Instance, LL_ADC_AWD1, LL_ADC_AWD_ALL_CHANNELS_INJ);
;;;3036             break;
;;;3037   
;;;3038           case ADC_ANALOGWATCHDOG_ALL_REGINJEC:
;;;3039             LL_ADC_SetAnalogWDMonitChannels(hadc->Instance, LL_ADC_AWD1, LL_ADC_AWD_ALL_CHANNELS_REG_INJ);
;;;3040             break;
;;;3041   
;;;3042           default: /* ADC_ANALOGWATCHDOG_NONE */
;;;3043             LL_ADC_SetAnalogWDMonitChannels(hadc->Instance, LL_ADC_AWD1, LL_ADC_AWD_DISABLE);
;;;3044             break;
;;;3045         }
;;;3046   
;;;3047         /* Shift the offset in function of the selected ADC resolution:         */
;;;3048         /* Thresholds have to be left-aligned on bit 11, the LSB (right bits)   */
;;;3049         /* are set to 0                                                         */
;;;3050         tmpAWDHighThresholdShifted = ADC_AWD1THRESHOLD_SHIFT_RESOLUTION(hadc, AnalogWDGConfig->HighThreshold);
;;;3051         tmpAWDLowThresholdShifted  = ADC_AWD1THRESHOLD_SHIFT_RESOLUTION(hadc, AnalogWDGConfig->LowThreshold);
;;;3052   
;;;3053         /* Set ADC analog watchdog thresholds value of both thresholds high and low */
;;;3054         LL_ADC_ConfigAnalogWDThresholds(hadc->Instance, AnalogWDGConfig->WatchdogNumber, tmpAWDHighThresholdShifted,
;;;3055                                         tmpAWDLowThresholdShifted);
;;;3056   
;;;3057         /* Update state, clear previous result related to AWD1 */
;;;3058         CLEAR_BIT(hadc->State, HAL_ADC_STATE_AWD1);
;;;3059   
;;;3060         /* Clear flag ADC analog watchdog */
;;;3061         /* Note: Flag cleared Clear the ADC Analog watchdog flag to be ready  */
;;;3062         /* to use for HAL_ADC_IRQHandler() or HAL_ADC_PollForEvent()          */
;;;3063         /* (in case left enabled by previous ADC operations).                 */
;;;3064         LL_ADC_ClearFlag_AWD1(hadc->Instance);
;;;3065   
;;;3066         /* Configure ADC analog watchdog interrupt */
;;;3067         if (AnalogWDGConfig->ITMode == ENABLE)
;;;3068         {
;;;3069           LL_ADC_EnableIT_AWD1(hadc->Instance);
;;;3070         }
;;;3071         else
;;;3072         {
;;;3073           LL_ADC_DisableIT_AWD1(hadc->Instance);
;;;3074         }
;;;3075       }
;;;3076       /* Case of ADC_ANALOGWATCHDOG_2 or ADC_ANALOGWATCHDOG_3 */
;;;3077       else
;;;3078       {
;;;3079         switch (AnalogWDGConfig->WatchdogMode)
;;;3080         {
;;;3081           case ADC_ANALOGWATCHDOG_SINGLE_REG:
;;;3082           case ADC_ANALOGWATCHDOG_SINGLE_INJEC:
;;;3083           case ADC_ANALOGWATCHDOG_SINGLE_REGINJEC:
;;;3084             /* Update AWD by bitfield to keep the possibility to monitor        */
;;;3085             /* several channels by successive calls of this function.           */
;;;3086             if (AnalogWDGConfig->WatchdogNumber == ADC_ANALOGWATCHDOG_2)
;;;3087             {
;;;3088               SET_BIT(hadc->Instance->AWD2CR, (1UL << (__LL_ADC_CHANNEL_TO_DECIMAL_NB(AnalogWDGConfig->Channel) & 0x1FUL)));
;;;3089             }
;;;3090             else
;;;3091             {
;;;3092               SET_BIT(hadc->Instance->AWD3CR, (1UL << (__LL_ADC_CHANNEL_TO_DECIMAL_NB(AnalogWDGConfig->Channel) & 0x1FUL)));
;;;3093             }
;;;3094             break;
;;;3095   
;;;3096           case ADC_ANALOGWATCHDOG_ALL_REG:
;;;3097           case ADC_ANALOGWATCHDOG_ALL_INJEC:
;;;3098           case ADC_ANALOGWATCHDOG_ALL_REGINJEC:
;;;3099             LL_ADC_SetAnalogWDMonitChannels(hadc->Instance, AnalogWDGConfig->WatchdogNumber, LL_ADC_AWD_ALL_CHANNELS_REG_INJ);
;;;3100             break;
;;;3101   
;;;3102           default: /* ADC_ANALOGWATCHDOG_NONE */
;;;3103             LL_ADC_SetAnalogWDMonitChannels(hadc->Instance, AnalogWDGConfig->WatchdogNumber, LL_ADC_AWD_DISABLE);
;;;3104             break;
;;;3105         }
;;;3106   
;;;3107         /* Shift the thresholds in function of the selected ADC resolution      */
;;;3108         /* have to be left-aligned on bit 7, the LSB (right bits) are set to 0  */
;;;3109         tmpAWDHighThresholdShifted = ADC_AWD23THRESHOLD_SHIFT_RESOLUTION(hadc, AnalogWDGConfig->HighThreshold);
;;;3110         tmpAWDLowThresholdShifted  = ADC_AWD23THRESHOLD_SHIFT_RESOLUTION(hadc, AnalogWDGConfig->LowThreshold);
;;;3111   
;;;3112         /* Set ADC analog watchdog thresholds value of both thresholds high and low */
;;;3113         LL_ADC_ConfigAnalogWDThresholds(hadc->Instance, AnalogWDGConfig->WatchdogNumber, tmpAWDHighThresholdShifted,
;;;3114                                         tmpAWDLowThresholdShifted);
;;;3115   
;;;3116         if (AnalogWDGConfig->WatchdogNumber == ADC_ANALOGWATCHDOG_2)
;;;3117         {
;;;3118           /* Update state, clear previous result related to AWD2 */
;;;3119           CLEAR_BIT(hadc->State, HAL_ADC_STATE_AWD2);
;;;3120   
;;;3121           /* Clear flag ADC analog watchdog */
;;;3122           /* Note: Flag cleared Clear the ADC Analog watchdog flag to be ready  */
;;;3123           /* to use for HAL_ADC_IRQHandler() or HAL_ADC_PollForEvent()          */
;;;3124           /* (in case left enabled by previous ADC operations).                 */
;;;3125           LL_ADC_ClearFlag_AWD2(hadc->Instance);
;;;3126   
;;;3127           /* Configure ADC analog watchdog interrupt */
;;;3128           if (AnalogWDGConfig->ITMode == ENABLE)
;;;3129           {
;;;3130             LL_ADC_EnableIT_AWD2(hadc->Instance);
;;;3131           }
;;;3132           else
;;;3133           {
;;;3134             LL_ADC_DisableIT_AWD2(hadc->Instance);
;;;3135           }
;;;3136         }
;;;3137         /* (AnalogWDGConfig->WatchdogNumber == ADC_ANALOGWATCHDOG_3) */
;;;3138         else
;;;3139         {
;;;3140           /* Update state, clear previous result related to AWD3 */
;;;3141           CLEAR_BIT(hadc->State, HAL_ADC_STATE_AWD3);
;;;3142   
;;;3143           /* Clear flag ADC analog watchdog */
;;;3144           /* Note: Flag cleared Clear the ADC Analog watchdog flag to be ready  */
;;;3145           /* to use for HAL_ADC_IRQHandler() or HAL_ADC_PollForEvent()          */
;;;3146           /* (in case left enabled by previous ADC operations).                 */
;;;3147           LL_ADC_ClearFlag_AWD3(hadc->Instance);
;;;3148   
;;;3149           /* Configure ADC analog watchdog interrupt */
;;;3150           if (AnalogWDGConfig->ITMode == ENABLE)
;;;3151           {
;;;3152             LL_ADC_EnableIT_AWD3(hadc->Instance);
;;;3153           }
;;;3154           else
;;;3155           {
;;;3156             LL_ADC_DisableIT_AWD3(hadc->Instance);
;;;3157           }
;;;3158         }
;;;3159       }
;;;3160   
;;;3161     }
;;;3162     /* If a conversion is on going on ADC group regular or injected, no update  */
;;;3163     /* could be done on neither of the AWD configuration structure parameters.  */
;;;3164     else
;;;3165     {
;;;3166       /* Update ADC state machine to error */
;;;3167       SET_BIT(hadc->State, HAL_ADC_STATE_ERROR_CONFIG);
000032  6d60              LDR      r0,[r4,#0x54]
000034  f0400020          ORR      r0,r0,#0x20
000038  6560              STR      r0,[r4,#0x54]
;;;3168   
;;;3169       tmp_hal_status = HAL_ERROR;
00003a  46b1              MOV      r9,r6
                  |L7.60|
;;;3170     }
;;;3171     /* Process unlocked */
;;;3172     __HAL_UNLOCK(hadc);
00003c  2000              MOVS     r0,#0
00003e  f8840050          STRB     r0,[r4,#0x50]
;;;3173   
;;;3174     /* Return function status */
;;;3175     return tmp_hal_status;
000042  4648              MOV      r0,r9
                  |L7.68|
;;;3176   }
000044  e8bd9ff0          POP      {r4-r12,pc}
                  |L7.72|
000048  2002              MOVS     r0,#2                 ;2994
00004a  e7fb              B        |L7.68|
                  |L7.76|
00004c  4878              LDR      r0,|L7.560|
00004e  6829              LDR      r1,[r5,#0]            ;3008
000050  4a78              LDR      r2,|L7.564|
000052  f44f0300          MOV      r3,#0x800000          ;3013
000056  f04f7c80          MOV      r12,#0x1000000        ;3013
00005a  f04f78c0          MOV      r8,#0x1800000         ;3013
00005e  f04f7be0          MOV      r11,#0x1c00000        ;3013
000062  4281              CMP      r1,r0                 ;3008
000064  d14f              BNE      |L7.262|
000066  6869              LDR      r1,[r5,#4]            ;3013
000068  f1b17fa0          CMP      r1,#0x1400000         ;3013
00006c  d019              BEQ      |L7.162|
00006e  dc08              BGT      |L7.130|
000070  4299              CMP      r1,r3                 ;3013
000072  d03f              BEQ      |L7.244|
000074  42b9              CMP      r1,r7                 ;3013
000076  d00e              BEQ      |L7.150|
000078  4561              CMP      r1,r12                ;3013
00007a  d13e              BNE      |L7.250|
00007c  4a6e              LDR      r2,|L7.568|
00007e  6823              LDR      r3,[r4,#0]            ;3036
000080  e015              B        |L7.174|
                  |L7.130|
000082  4541              CMP      r1,r8                 ;3013
000084  d012              BEQ      |L7.172|
000086  4559              CMP      r1,r11                ;3013
000088  d137              BNE      |L7.250|
00008a  68a9              LDR      r1,[r5,#8]            ;3026
00008c  f021717c          BIC      r1,r1,#0x3f00000      ;3026
000090  f04172e0          ORR      r2,r1,#0x1c00000      ;3026
000094  e00a              B        |L7.172|
                  |L7.150|
000096  68a9              LDR      r1,[r5,#8]            ;3016
000098  f021717c          BIC      r1,r1,#0x3f00000      ;3016
00009c  f4410240          ORR      r2,r1,#0xc00000       ;3016
0000a0  e004              B        |L7.172|
                  |L7.162|
0000a2  68a9              LDR      r1,[r5,#8]            ;3021
0000a4  f021717c          BIC      r1,r1,#0x3f00000      ;3021
0000a8  f04172a0          ORR      r2,r1,#0x1400000      ;3021
                  |L7.172|
0000ac  6823              LDR      r3,[r4,#0]            ;3039
                  |L7.174|
0000ae  4601              MOV      r1,r0                 ;3016
0000b0  4618              MOV      r0,r3                 ;3016
0000b2  f7fffffe          BL       LL_ADC_SetAnalogWDMonitChannels
0000b6  6820              LDR      r0,[r4,#0]            ;3050
0000b8  692a              LDR      r2,[r5,#0x10]         ;3050
0000ba  68c1              LDR      r1,[r0,#0xc]          ;3050
0000bc  696b              LDR      r3,[r5,#0x14]         ;3051
0000be  f3c101c1          UBFX     r1,r1,#3,#2           ;3050
0000c2  0049              LSLS     r1,r1,#1              ;3050
0000c4  408a              LSLS     r2,r2,r1              ;3050
0000c6  68c1              LDR      r1,[r0,#0xc]          ;3051
0000c8  f3c101c1          UBFX     r1,r1,#3,#2           ;3051
0000cc  0049              LSLS     r1,r1,#1              ;3051
0000ce  408b              LSLS     r3,r3,r1              ;3051
0000d0  6829              LDR      r1,[r5,#0]            ;3054
0000d2  f7fffffe          BL       LL_ADC_ConfigAnalogWDThresholds
0000d6  6d60              LDR      r0,[r4,#0x54]         ;3058
0000d8  f4203080          BIC      r0,r0,#0x10000        ;3058
0000dc  6560              STR      r0,[r4,#0x54]         ;3058
0000de  6820              LDR      r0,[r4,#0]            ;3058
0000e0  2180              MOVS     r1,#0x80              ;3058
0000e2  6001              STR      r1,[r0,#0]            ;3058
0000e4  7b28              LDRB     r0,[r5,#0xc]          ;3067
0000e6  2801              CMP      r0,#1                 ;3067
0000e8  6820              LDR      r0,[r4,#0]            ;3067
0000ea  6841              LDR      r1,[r0,#4]            ;3067
0000ec  d008              BEQ      |L7.256|
0000ee  f0210180          BIC      r1,r1,#0x80           ;3067
0000f2  e098              B        |L7.550|
                  |L7.244|
0000f4  4a51              LDR      r2,|L7.572|
0000f6  6823              LDR      r3,[r4,#0]            ;3032
0000f8  e7d9              B        |L7.174|
                  |L7.250|
0000fa  2200              MOVS     r2,#0                 ;3043
0000fc  6823              LDR      r3,[r4,#0]            ;3044
0000fe  e7d6              B        |L7.174|
                  |L7.256|
000100  f0410180          ORR      r1,r1,#0x80           ;3044
000104  e08f              B        |L7.550|
                  |L7.262|
000106  6868              LDR      r0,[r5,#4]            ;3079
000108  f8dfa134          LDR      r10,|L7.576|
00010c  f1b07fa0          CMP      r0,#0x1400000         ;3079
000110  d00b              BEQ      |L7.298|
000112  dc06              BGT      |L7.290|
000114  4298              CMP      r0,r3                 ;3079
000116  d033              BEQ      |L7.384|
000118  42b8              CMP      r0,r7                 ;3079
00011a  d006              BEQ      |L7.298|
00011c  4560              CMP      r0,r12                ;3079
00011e  d145              BNE      |L7.428|
000120  e02e              B        |L7.384|
                  |L7.290|
000122  4540              CMP      r0,r8                 ;3079
000124  d02c              BEQ      |L7.384|
000126  4558              CMP      r0,r11                ;3079
000128  d140              BNE      |L7.428|
                  |L7.298|
00012a  4551              CMP      r1,r10                ;3086
00012c  6821              LDR      r1,[r4,#0]            ;3086
00012e  d113              BNE      |L7.344|
000130  f8d120a0          LDR      r2,[r1,#0xa0]         ;3088
000134  68a8              LDR      r0,[r5,#8]            ;3088
000136  0343              LSLS     r3,r0,#13             ;3088
000138  d00b              BEQ      |L7.338|
00013a  fa90f0a0          RBIT     r0,r0                 ;3088
00013e  fab0f080          CLZ      r0,r0                 ;3088
000142  bf00              NOP                            ;3088
                  |L7.324|
000144  f000001f          AND      r0,r0,#0x1f           ;3088
000148  4086              LSLS     r6,r6,r0              ;3088
00014a  4332              ORRS     r2,r2,r6              ;3088
00014c  f8c120a0          STR      r2,[r1,#0xa0]         ;3088
000150  e01a              B        |L7.392|
                  |L7.338|
000152  f3c06084          UBFX     r0,r0,#26,#5          ;3088
000156  e7f5              B        |L7.324|
                  |L7.344|
000158  f8d120a4          LDR      r2,[r1,#0xa4]         ;3092
00015c  68a8              LDR      r0,[r5,#8]            ;3092
00015e  0343              LSLS     r3,r0,#13             ;3092
000160  d00b              BEQ      |L7.378|
000162  fa90f0a0          RBIT     r0,r0                 ;3092
000166  fab0f080          CLZ      r0,r0                 ;3092
00016a  bf00              NOP                            ;3092
                  |L7.364|
00016c  f000001f          AND      r0,r0,#0x1f           ;3092
000170  4086              LSLS     r6,r6,r0              ;3092
000172  4332              ORRS     r2,r2,r6              ;3092
000174  f8c120a4          STR      r2,[r1,#0xa4]         ;3092
000178  e006              B        |L7.392|
                  |L7.378|
00017a  f3c06084          UBFX     r0,r0,#26,#5          ;3092
00017e  e7f5              B        |L7.364|
                  |L7.384|
000180  f8d40000          LDR.W    r0,[r4,#0]            ;3099
                  |L7.388|
000184  f7fffffe          BL       LL_ADC_SetAnalogWDMonitChannels
                  |L7.392|
000188  6820              LDR      r0,[r4,#0]            ;3109
00018a  68c1              LDR      r1,[r0,#0xc]          ;3109
00018c  f3c102c1          UBFX     r2,r1,#3,#2           ;3109
000190  2104              MOVS     r1,#4                 ;3109
000192  2a03              CMP      r2,#3                 ;3109
000194  692a              LDR      r2,[r5,#0x10]         ;3109
000196  d00c              BEQ      |L7.434|
000198  68c3              LDR      r3,[r0,#0xc]          ;3109
00019a  f3c303c1          UBFX     r3,r3,#3,#2           ;3109
00019e  425b              RSBS     r3,r3,#0              ;3109
0001a0  eb010343          ADD      r3,r1,r3,LSL #1       ;3109
0001a4  f003031f          AND      r3,r3,#0x1f           ;3109
0001a8  40da              LSRS     r2,r2,r3              ;3109
0001aa  e003              B        |L7.436|
                  |L7.428|
0001ac  2200              MOVS     r2,#0                 ;3103
0001ae  6820              LDR      r0,[r4,#0]            ;3104
0001b0  e7e8              B        |L7.388|
                  |L7.434|
0001b2  0092              LSLS     r2,r2,#2              ;3109
                  |L7.436|
0001b4  68c3              LDR      r3,[r0,#0xc]          ;3110
0001b6  f3c303c1          UBFX     r3,r3,#3,#2           ;3110
0001ba  2b03              CMP      r3,#3                 ;3110
0001bc  d00a              BEQ      |L7.468|
0001be  696b              LDR      r3,[r5,#0x14]         ;3110
0001c0  68c6              LDR      r6,[r0,#0xc]          ;3110
0001c2  f3c606c1          UBFX     r6,r6,#3,#2           ;3110
0001c6  4276              RSBS     r6,r6,#0              ;3110
0001c8  eb010146          ADD      r1,r1,r6,LSL #1       ;3110
0001cc  f001011f          AND      r1,r1,#0x1f           ;3110
0001d0  40cb              LSRS     r3,r3,r1              ;3110
0001d2  e001              B        |L7.472|
                  |L7.468|
0001d4  6969              LDR      r1,[r5,#0x14]         ;3110
0001d6  008b              LSLS     r3,r1,#2              ;3110
                  |L7.472|
0001d8  6829              LDR      r1,[r5,#0]            ;3113
0001da  f7fffffe          BL       LL_ADC_ConfigAnalogWDThresholds
0001de  6829              LDR      r1,[r5,#0]            ;3116
0001e0  6d60              LDR      r0,[r4,#0x54]         ;3141
0001e2  4551              CMP      r1,r10                ;3116
0001e4  d111              BNE      |L7.522|
0001e6  f4203000          BIC      r0,r0,#0x20000        ;3119
0001ea  6560              STR      r0,[r4,#0x54]         ;3119
0001ec  6820              LDR      r0,[r4,#0]            ;3119
0001ee  f44f7180          MOV      r1,#0x100             ;3119
0001f2  6001              STR      r1,[r0,#0]            ;3119
0001f4  7b28              LDRB     r0,[r5,#0xc]          ;3128
0001f6  2801              CMP      r0,#1                 ;3128
0001f8  6820              LDR      r0,[r4,#0]            ;3128
0001fa  6841              LDR      r1,[r0,#4]            ;3128
0001fc  d002              BEQ      |L7.516|
0001fe  f4217180          BIC      r1,r1,#0x100          ;3128
000202  e010              B        |L7.550|
                  |L7.516|
000204  f4417180          ORR      r1,r1,#0x100          ;3134
000208  e00d              B        |L7.550|
                  |L7.522|
00020a  f4202080          BIC      r0,r0,#0x40000        ;3141
00020e  6560              STR      r0,[r4,#0x54]         ;3141
000210  6820              LDR      r0,[r4,#0]            ;3141
000212  f44f7100          MOV      r1,#0x200             ;3141
000216  6001              STR      r1,[r0,#0]            ;3141
000218  7b28              LDRB     r0,[r5,#0xc]          ;3150
00021a  2801              CMP      r0,#1                 ;3150
00021c  6820              LDR      r0,[r4,#0]            ;3150
00021e  6841              LDR      r1,[r0,#4]            ;3150
000220  d003              BEQ      |L7.554|
000222  f4217100          BIC      r1,r1,#0x200          ;3150
                  |L7.550|
000226  6041              STR      r1,[r0,#4]            ;3150
000228  e708              B        |L7.60|
                  |L7.554|
00022a  f4417100          ORR      r1,r1,#0x200          ;3150
00022e  e7fa              B        |L7.550|
;;;3177   
                          ENDP

                  |L7.560|
                          DCD      0x7dc00000
                  |L7.564|
                          DCD      0x0187ffff
                  |L7.568|
                          DCD      0x0107ffff
                  |L7.572|
                          DCD      0x0087ffff
                  |L7.576|
                          DCD      0x0017ffff

                          AREA ||i.HAL_ADC_ConfigChannel||, CODE, READONLY, ALIGN=2

                  HAL_ADC_ConfigChannel PROC
;;;2698     */
;;;2699   HAL_StatusTypeDef HAL_ADC_ConfigChannel(ADC_HandleTypeDef *hadc, ADC_ChannelConfTypeDef *sConfig)
000000  e92d4ff8          PUSH     {r3-r11,lr}
;;;2700   {
;;;2701     HAL_StatusTypeDef tmp_hal_status = HAL_OK;
000004  2700              MOVS     r7,#0
000006  4604              MOV      r4,r0                 ;2700
;;;2702     uint32_t tmpOffsetShifted;
;;;2703     uint32_t tmp_config_internal_channel;
;;;2704     __IO uint32_t wait_loop_index = 0UL;
;;;2705     uint32_t tmp_adc_is_conversion_on_going_regular;
;;;2706     uint32_t tmp_adc_is_conversion_on_going_injected;
;;;2707   
;;;2708     /* Check the parameters */
;;;2709     assert_param(IS_ADC_ALL_INSTANCE(hadc->Instance));
;;;2710     assert_param(IS_ADC_REGULAR_RANK(sConfig->Rank));
;;;2711     assert_param(IS_ADC_SAMPLE_TIME(sConfig->SamplingTime));
;;;2712     assert_param(IS_ADC_SINGLE_DIFFERENTIAL(sConfig->SingleDiff));
;;;2713     assert_param(IS_ADC_OFFSET_NUMBER(sConfig->OffsetNumber));
;;;2714     assert_param(IS_ADC_RANGE(ADC_GET_RESOLUTION(hadc), sConfig->Offset));
;;;2715   
;;;2716     /* if ROVSE is set, the value of the OFFSETy_EN bit in ADCx_OFRy register is
;;;2717        ignored (considered as reset) */
;;;2718     assert_param(!((sConfig->OffsetNumber != ADC_OFFSET_NONE) && (hadc->Init.OversamplingMode == ENABLE)));
;;;2719   
;;;2720     /* Verification of channel number */
;;;2721     if (sConfig->SingleDiff != ADC_DIFFERENTIAL_ENDED)
;;;2722     {
;;;2723       assert_param(IS_ADC_CHANNEL(hadc, sConfig->Channel));
;;;2724     }
;;;2725     else
;;;2726     {
;;;2727       assert_param(IS_ADC_DIFF_CHANNEL(hadc, sConfig->Channel));
;;;2728     }
;;;2729   
;;;2730     /* Process locked */
;;;2731     __HAL_LOCK(hadc);
000008  9700              STR      r7,[sp,#0]
00000a  f8900050          LDRB     r0,[r0,#0x50]
00000e  f8df93b0          LDR      r9,|L8.960|
000012  460d              MOV      r5,r1                 ;2700
000014  46b8              MOV      r8,r7                 ;2704
000016  2801              CMP      r0,#1
000018  d011              BEQ      |L8.62|
00001a  2601              MOVS     r6,#1
00001c  f8846050          STRB     r6,[r4,#0x50]
;;;2732   
;;;2733     /* Parameters update conditioned to ADC state:                              */
;;;2734     /* Parameters that can be updated when ADC is disabled or enabled without   */
;;;2735     /* conversion on going on regular group:                                    */
;;;2736     /*  - Channel number                                                        */
;;;2737     /*  - Channel rank                                                          */
;;;2738     if (LL_ADC_REG_IsConversionOngoing(hadc->Instance) == 0UL)
000020  6820              LDR      r0,[r4,#0]
000022  f7fffffe          BL       LL_ADC_REG_IsConversionOngoing
000026  b160              CBZ      r0,|L8.66|
;;;2739     {
;;;2740   #if !defined (USE_FULL_ASSERT)
;;;2741       /* Correspondence for compatibility with legacy definition of             */
;;;2742       /* sequencer ranks in direct number format. This correspondence can       */
;;;2743       /* be done only on ranks 1 to 5 due to literal values.                    */
;;;2744       /* Note: Sequencer ranks in direct number format are no more used         */
;;;2745       /*       and are detected by activating USE_FULL_ASSERT feature.          */
;;;2746       if (sConfig->Rank <= 5U)
;;;2747       {
;;;2748         switch (sConfig->Rank)
;;;2749         {
;;;2750           case 2U:
;;;2751             sConfig->Rank = ADC_REGULAR_RANK_2;
;;;2752             break;
;;;2753           case 3U:
;;;2754             sConfig->Rank = ADC_REGULAR_RANK_3;
;;;2755             break;
;;;2756           case 4U:
;;;2757             sConfig->Rank = ADC_REGULAR_RANK_4;
;;;2758             break;
;;;2759           case 5U:
;;;2760             sConfig->Rank = ADC_REGULAR_RANK_5;
;;;2761             break;
;;;2762           /* case 1U */
;;;2763           default:
;;;2764             sConfig->Rank = ADC_REGULAR_RANK_1;
;;;2765             break;
;;;2766         }
;;;2767       }
;;;2768   #endif
;;;2769   
;;;2770       /* Set ADC group regular sequence: channel on the selected scan sequence rank */
;;;2771       LL_ADC_REG_SetSequencerRanks(hadc->Instance, sConfig->Rank, sConfig->Channel);
;;;2772   
;;;2773       /* Parameters update conditioned to ADC state:                              */
;;;2774       /* Parameters that can be updated when ADC is disabled or enabled without   */
;;;2775       /* conversion on going on regular group:                                    */
;;;2776       /*  - Channel sampling time                                                 */
;;;2777       /*  - Channel offset                                                        */
;;;2778       tmp_adc_is_conversion_on_going_regular = LL_ADC_REG_IsConversionOngoing(hadc->Instance);
;;;2779       tmp_adc_is_conversion_on_going_injected = LL_ADC_INJ_IsConversionOngoing(hadc->Instance);
;;;2780       if ((tmp_adc_is_conversion_on_going_regular == 0UL)
;;;2781           && (tmp_adc_is_conversion_on_going_injected == 0UL)
;;;2782          )
;;;2783       {
;;;2784   #if defined(ADC_SMPR1_SMPPLUS)
;;;2785         /* Manage specific case of sampling time 3.5 cycles replacing 2.5 cyles */
;;;2786         if (sConfig->SamplingTime == ADC_SAMPLETIME_3CYCLES_5)
;;;2787         {
;;;2788           /* Set sampling time of the selected ADC channel */
;;;2789           LL_ADC_SetChannelSamplingTime(hadc->Instance, sConfig->Channel, LL_ADC_SAMPLINGTIME_2CYCLES_5);
;;;2790   
;;;2791           /* Set ADC sampling time common configuration */
;;;2792           LL_ADC_SetSamplingTimeCommonConfig(hadc->Instance, LL_ADC_SAMPLINGTIME_COMMON_3C5_REPL_2C5);
;;;2793         }
;;;2794         else
;;;2795         {
;;;2796           /* Set sampling time of the selected ADC channel */
;;;2797           LL_ADC_SetChannelSamplingTime(hadc->Instance, sConfig->Channel, sConfig->SamplingTime);
;;;2798   
;;;2799           /* Set ADC sampling time common configuration */
;;;2800           LL_ADC_SetSamplingTimeCommonConfig(hadc->Instance, LL_ADC_SAMPLINGTIME_COMMON_DEFAULT);
;;;2801         }
;;;2802   #else
;;;2803         /* Set sampling time of the selected ADC channel */
;;;2804         LL_ADC_SetChannelSamplingTime(hadc->Instance, sConfig->Channel, sConfig->SamplingTime);
;;;2805   #endif
;;;2806   
;;;2807         /* Configure the offset: offset enable/disable, channel, offset value */
;;;2808   
;;;2809         /* Shift the offset with respect to the selected ADC resolution. */
;;;2810         /* Offset has to be left-aligned on bit 11, the LSB (right bits) are set to 0 */
;;;2811         tmpOffsetShifted = ADC_OFFSET_SHIFT_RESOLUTION(hadc, (uint32_t)sConfig->Offset);
;;;2812   
;;;2813         if (sConfig->OffsetNumber != ADC_OFFSET_NONE)
;;;2814         {
;;;2815           /* Set ADC selected offset number */
;;;2816           LL_ADC_SetOffset(hadc->Instance, sConfig->OffsetNumber, sConfig->Channel, tmpOffsetShifted);
;;;2817   
;;;2818         }
;;;2819         else
;;;2820         {
;;;2821           /* Scan each offset register to check if the selected channel is targeted. */
;;;2822           /* If this is the case, the corresponding offset number is disabled.       */
;;;2823           if (__LL_ADC_CHANNEL_TO_DECIMAL_NB(LL_ADC_GetOffsetChannel(hadc->Instance, LL_ADC_OFFSET_1))
;;;2824               == __LL_ADC_CHANNEL_TO_DECIMAL_NB(sConfig->Channel))
;;;2825           {
;;;2826             LL_ADC_SetOffsetState(hadc->Instance, LL_ADC_OFFSET_1, LL_ADC_OFFSET_DISABLE);
;;;2827           }
;;;2828           if (__LL_ADC_CHANNEL_TO_DECIMAL_NB(LL_ADC_GetOffsetChannel(hadc->Instance, LL_ADC_OFFSET_2))
;;;2829               == __LL_ADC_CHANNEL_TO_DECIMAL_NB(sConfig->Channel))
;;;2830           {
;;;2831             LL_ADC_SetOffsetState(hadc->Instance, LL_ADC_OFFSET_2, LL_ADC_OFFSET_DISABLE);
;;;2832           }
;;;2833           if (__LL_ADC_CHANNEL_TO_DECIMAL_NB(LL_ADC_GetOffsetChannel(hadc->Instance, LL_ADC_OFFSET_3))
;;;2834               == __LL_ADC_CHANNEL_TO_DECIMAL_NB(sConfig->Channel))
;;;2835           {
;;;2836             LL_ADC_SetOffsetState(hadc->Instance, LL_ADC_OFFSET_3, LL_ADC_OFFSET_DISABLE);
;;;2837           }
;;;2838           if (__LL_ADC_CHANNEL_TO_DECIMAL_NB(LL_ADC_GetOffsetChannel(hadc->Instance, LL_ADC_OFFSET_4))
;;;2839               == __LL_ADC_CHANNEL_TO_DECIMAL_NB(sConfig->Channel))
;;;2840           {
;;;2841             LL_ADC_SetOffsetState(hadc->Instance, LL_ADC_OFFSET_4, LL_ADC_OFFSET_DISABLE);
;;;2842           }
;;;2843         }
;;;2844       }
;;;2845   
;;;2846       /* Parameters update conditioned to ADC state:                              */
;;;2847       /* Parameters that can be updated only when ADC is disabled:                */
;;;2848       /*  - Single or differential mode                                           */
;;;2849       if (LL_ADC_IsEnabled(hadc->Instance) == 0UL)
;;;2850       {
;;;2851         /* Set mode single-ended or differential input of the selected ADC channel */
;;;2852         LL_ADC_SetChannelSingleDiff(hadc->Instance, sConfig->Channel, sConfig->SingleDiff);
;;;2853   
;;;2854         /* Configuration of differential mode */
;;;2855         if (sConfig->SingleDiff == ADC_DIFFERENTIAL_ENDED)
;;;2856         {
;;;2857           /* Set sampling time of the selected ADC channel */
;;;2858           /* Note: ADC channel number masked with value "0x1F" to ensure shift value within 32 bits range */
;;;2859           LL_ADC_SetChannelSamplingTime(hadc->Instance,
;;;2860                                         (uint32_t)(__LL_ADC_DECIMAL_NB_TO_CHANNEL((__LL_ADC_CHANNEL_TO_DECIMAL_NB((uint32_t)sConfig->Channel) + 1UL) & 0x1FUL)),
;;;2861                                         sConfig->SamplingTime);
;;;2862         }
;;;2863   
;;;2864       }
;;;2865   
;;;2866       /* Management of internal measurement channels: Vbat/VrefInt/TempSensor.  */
;;;2867       /* If internal channel selected, enable dedicated internal buffers and    */
;;;2868       /* paths.                                                                 */
;;;2869       /* Note: these internal measurement paths can be disabled using           */
;;;2870       /* HAL_ADC_DeInit().                                                      */
;;;2871   
;;;2872       if (__LL_ADC_IS_CHANNEL_INTERNAL(sConfig->Channel))
;;;2873       {
;;;2874         tmp_config_internal_channel = LL_ADC_GetCommonPathInternalCh(__LL_ADC_COMMON_INSTANCE(hadc->Instance));
;;;2875   
;;;2876         /* If the requested internal measurement path has already been enabled, */
;;;2877         /* bypass the configuration processing.                                 */
;;;2878         if ((sConfig->Channel == ADC_CHANNEL_TEMPSENSOR)
;;;2879             && ((tmp_config_internal_channel & LL_ADC_PATH_INTERNAL_TEMPSENSOR) == 0UL))
;;;2880         {
;;;2881           if (ADC_TEMPERATURE_SENSOR_INSTANCE(hadc))
;;;2882           {
;;;2883             LL_ADC_SetCommonPathInternalCh(__LL_ADC_COMMON_INSTANCE(hadc->Instance),
;;;2884                                            LL_ADC_PATH_INTERNAL_TEMPSENSOR | tmp_config_internal_channel);
;;;2885   
;;;2886             /* Delay for temperature sensor stabilization time */
;;;2887             /* Wait loop initialization and execution */
;;;2888             /* Note: Variable divided by 2 to compensate partially              */
;;;2889             /*       CPU processing cycles, scaling in us split to not          */
;;;2890             /*       exceed 32 bits register capacity and handle low frequency. */
;;;2891             wait_loop_index = ((LL_ADC_DELAY_TEMPSENSOR_STAB_US / 10UL) * ((SystemCoreClock / (100000UL * 2UL)) + 1UL));
;;;2892             while (wait_loop_index != 0UL)
;;;2893             {
;;;2894               wait_loop_index--;
;;;2895             }
;;;2896           }
;;;2897         }
;;;2898         else if ((sConfig->Channel == ADC_CHANNEL_VBAT) && ((tmp_config_internal_channel & LL_ADC_PATH_INTERNAL_VBAT) == 0UL))
;;;2899         {
;;;2900           if (ADC_BATTERY_VOLTAGE_INSTANCE(hadc))
;;;2901           {
;;;2902             LL_ADC_SetCommonPathInternalCh(__LL_ADC_COMMON_INSTANCE(hadc->Instance),
;;;2903                                            LL_ADC_PATH_INTERNAL_VBAT | tmp_config_internal_channel);
;;;2904           }
;;;2905         }
;;;2906         else if ((sConfig->Channel == ADC_CHANNEL_VREFINT)
;;;2907                  && ((tmp_config_internal_channel & LL_ADC_PATH_INTERNAL_VREFINT) == 0UL))
;;;2908         {
;;;2909           if (ADC_VREFINT_INSTANCE(hadc))
;;;2910           {
;;;2911             LL_ADC_SetCommonPathInternalCh(__LL_ADC_COMMON_INSTANCE(hadc->Instance),
;;;2912                                            LL_ADC_PATH_INTERNAL_VREFINT | tmp_config_internal_channel);
;;;2913           }
;;;2914         }
;;;2915         else
;;;2916         {
;;;2917           /* nothing to do */
;;;2918         }
;;;2919       }
;;;2920     }
;;;2921   
;;;2922     /* If a conversion is on going on regular group, no update on regular       */
;;;2923     /* channel could be done on neither of the channel configuration structure  */
;;;2924     /* parameters.                                                              */
;;;2925     else
;;;2926     {
;;;2927       /* Update ADC state machine to error */
;;;2928       SET_BIT(hadc->State, HAL_ADC_STATE_ERROR_CONFIG);
000028  6d60              LDR      r0,[r4,#0x54]
00002a  f0400020          ORR      r0,r0,#0x20
00002e  6560              STR      r0,[r4,#0x54]
;;;2929   
;;;2930       tmp_hal_status = HAL_ERROR;
000030  f05f0701          MOVS.W   r7,#1
                  |L8.52|
;;;2931     }
;;;2932   
;;;2933     /* Process unlocked */
;;;2934     __HAL_UNLOCK(hadc);
000034  f8848050          STRB     r8,[r4,#0x50]
;;;2935   
;;;2936     /* Return function status */
;;;2937     return tmp_hal_status;
000038  4638              MOV      r0,r7
                  |L8.58|
;;;2938   }
00003a  e8bd8ff8          POP      {r3-r11,pc}
                  |L8.62|
00003e  2002              MOVS     r0,#2                 ;2731
000040  e7fb              B        |L8.58|
                  |L8.66|
000042  6869              LDR      r1,[r5,#4]            ;2746
000044  200c              MOVS     r0,#0xc               ;2751
000046  2905              CMP      r1,#5                 ;2746
000048  d812              BHI      |L8.112|
00004a  2902              CMP      r1,#2                 ;2748
00004c  d007              BEQ      |L8.94|
00004e  2903              CMP      r1,#3                 ;2748
000050  d007              BEQ      |L8.98|
000052  2904              CMP      r1,#4                 ;2748
000054  d007              BEQ      |L8.102|
000056  2905              CMP      r1,#5                 ;2748
000058  d007              BEQ      |L8.106|
00005a  2106              MOVS     r1,#6                 ;2764
00005c  e007              B        |L8.110|
                  |L8.94|
00005e  6068              STR      r0,[r5,#4]            ;2752
000060  e006              B        |L8.112|
                  |L8.98|
000062  2112              MOVS     r1,#0x12              ;2754
000064  e003              B        |L8.110|
                  |L8.102|
000066  2118              MOVS     r1,#0x18              ;2757
000068  e001              B        |L8.110|
                  |L8.106|
00006a  f44f7180          MOV      r1,#0x100             ;2760
                  |L8.110|
00006e  6069              STR      r1,[r5,#4]            ;2764
                  |L8.112|
000070  e9d52100          LDRD     r2,r1,[r5,#0]         ;2771
000074  6823              LDR      r3,[r4,#0]            ;2771
000076  ea001091          AND      r0,r0,r1,LSR #6       ;2771
00007a  4418              ADD      r0,r0,r3              ;2771
00007c  6b03              LDR      r3,[r0,#0x30]         ;2771
00007e  f001011f          AND      r1,r1,#0x1f           ;2771
000082  f04f0c1f          MOV      r12,#0x1f             ;2771
000086  fa0cfc01          LSL      r12,r12,r1            ;2771
00008a  f3c26284          UBFX     r2,r2,#26,#5          ;2771
00008e  ea23030c          BIC      r3,r3,r12             ;2771
000092  408a              LSLS     r2,r2,r1              ;2771
000094  4313              ORRS     r3,r3,r2              ;2771
000096  6303              STR      r3,[r0,#0x30]         ;2771
000098  6820              LDR      r0,[r4,#0]            ;2778
00009a  f7fffffe          BL       LL_ADC_REG_IsConversionOngoing
00009e  4682              MOV      r10,r0                ;2778
0000a0  6820              LDR      r0,[r4,#0]            ;2779
0000a2  f7fffffe          BL       LL_ADC_INJ_IsConversionOngoing
0000a6  ea5a0000          ORRS     r0,r10,r0             ;2780
0000aa  d11d              BNE      |L8.232|
0000ac  68aa              LDR      r2,[r5,#8]            ;2804
0000ae  6829              LDR      r1,[r5,#0]            ;2804
0000b0  6820              LDR      r0,[r4,#0]            ;2804
0000b2  f7fffffe          BL       LL_ADC_SetChannelSamplingTime
0000b6  6820              LDR      r0,[r4,#0]            ;2811
0000b8  6969              LDR      r1,[r5,#0x14]         ;2811
0000ba  68c2              LDR      r2,[r0,#0xc]          ;2811
0000bc  f3c202c1          UBFX     r2,r2,#3,#2           ;2811
0000c0  0052              LSLS     r2,r2,#1              ;2811
0000c2  4091              LSLS     r1,r1,r2              ;2811
0000c4  692a              LDR      r2,[r5,#0x10]         ;2813
0000c6  2a04              CMP      r2,#4                 ;2813
0000c8  d00f              BEQ      |L8.234|
0000ca  eb000082          ADD      r0,r0,r2,LSL #2       ;2813
0000ce  682b              LDR      r3,[r5,#0]            ;2813
0000d0  6e02              LDR      r2,[r0,#0x60]         ;2813
0000d2  f8dfc2f0          LDR      r12,|L8.964|
0000d6  f00343f8          AND      r3,r3,#0x7c000000     ;2813
0000da  ea02020c          AND      r2,r2,r12             ;2813
0000de  430b              ORRS     r3,r3,r1              ;2813
0000e0  431a              ORRS     r2,r2,r3              ;2813
0000e2  f0424100          ORR      r1,r2,#0x80000000     ;2813
0000e6  6601              STR      r1,[r0,#0x60]         ;2813
                  |L8.232|
0000e8  e072              B        |L8.464|
                  |L8.234|
0000ea  2100              MOVS     r1,#0                 ;2823
0000ec  f7fffffe          BL       LL_ADC_GetOffsetChannel
0000f0  0340              LSLS     r0,r0,#13             ;2823
0000f2  6820              LDR      r0,[r4,#0]            ;2823
0000f4  f04f0100          MOV      r1,#0                 ;2823
0000f8  d072              BEQ      |L8.480|
0000fa  f7fffffe          BL       LL_ADC_GetOffsetChannel
0000fe  fa90f0a0          RBIT     r0,r0                 ;2823
000102  fab0f180          CLZ      r1,r0                 ;2823
                  |L8.262|
000106  6828              LDR      r0,[r5,#0]            ;2823
000108  0342              LSLS     r2,r0,#13             ;2823
00010a  d06e              BEQ      |L8.490|
00010c  fa90f0a0          RBIT     r0,r0                 ;2824
000110  fab0f080          CLZ      r0,r0                 ;2824
                  |L8.276|
000114  4281              CMP      r1,r0                 ;2824
000116  d104              BNE      |L8.290|
000118  2200              MOVS     r2,#0                 ;2826
00011a  4611              MOV      r1,r2                 ;2826
00011c  6820              LDR      r0,[r4,#0]            ;2826
00011e  f7fffffe          BL       LL_ADC_SetOffsetState
                  |L8.290|
000122  2101              MOVS     r1,#1                 ;2828
000124  6820              LDR      r0,[r4,#0]            ;2828
000126  f7fffffe          BL       LL_ADC_GetOffsetChannel
00012a  0340              LSLS     r0,r0,#13             ;2828
00012c  6820              LDR      r0,[r4,#0]            ;2828
00012e  f04f0101          MOV      r1,#1                 ;2828
000132  d05d              BEQ      |L8.496|
000134  f7fffffe          BL       LL_ADC_GetOffsetChannel
000138  fa90f0a0          RBIT     r0,r0                 ;2828
00013c  fab0f180          CLZ      r1,r0                 ;2828
                  |L8.320|
000140  6828              LDR      r0,[r5,#0]            ;2828
000142  0342              LSLS     r2,r0,#13             ;2828
000144  d059              BEQ      |L8.506|
000146  fa90f0a0          RBIT     r0,r0                 ;2829
00014a  fab0f080          CLZ      r0,r0                 ;2829
                  |L8.334|
00014e  4281              CMP      r1,r0                 ;2829
000150  d104              BNE      |L8.348|
000152  2200              MOVS     r2,#0                 ;2831
000154  2101              MOVS     r1,#1                 ;2831
000156  6820              LDR      r0,[r4,#0]            ;2831
000158  f7fffffe          BL       LL_ADC_SetOffsetState
                  |L8.348|
00015c  2102              MOVS     r1,#2                 ;2833
00015e  6820              LDR      r0,[r4,#0]            ;2833
000160  f7fffffe          BL       LL_ADC_GetOffsetChannel
000164  0340              LSLS     r0,r0,#13             ;2833
000166  6820              LDR      r0,[r4,#0]            ;2833
000168  f04f0102          MOV      r1,#2                 ;2833
00016c  d048              BEQ      |L8.512|
00016e  f7fffffe          BL       LL_ADC_GetOffsetChannel
000172  fa90f0a0          RBIT     r0,r0                 ;2833
000176  fab0f180          CLZ      r1,r0                 ;2833
                  |L8.378|
00017a  6828              LDR      r0,[r5,#0]            ;2833
00017c  0342              LSLS     r2,r0,#13             ;2833
00017e  d044              BEQ      |L8.522|
000180  fa90f0a0          RBIT     r0,r0                 ;2834
000184  fab0f080          CLZ      r0,r0                 ;2834
                  |L8.392|
000188  4281              CMP      r1,r0                 ;2834
00018a  d104              BNE      |L8.406|
00018c  2200              MOVS     r2,#0                 ;2836
00018e  2102              MOVS     r1,#2                 ;2836
000190  6820              LDR      r0,[r4,#0]            ;2836
000192  f7fffffe          BL       LL_ADC_SetOffsetState
                  |L8.406|
000196  2103              MOVS     r1,#3                 ;2838
000198  6820              LDR      r0,[r4,#0]            ;2838
00019a  f7fffffe          BL       LL_ADC_GetOffsetChannel
00019e  0340              LSLS     r0,r0,#13             ;2838
0001a0  6820              LDR      r0,[r4,#0]            ;2838
0001a2  f04f0103          MOV      r1,#3                 ;2838
0001a6  d033              BEQ      |L8.528|
0001a8  f7fffffe          BL       LL_ADC_GetOffsetChannel
0001ac  fa90f0a0          RBIT     r0,r0                 ;2838
0001b0  fab0f180          CLZ      r1,r0                 ;2838
                  |L8.436|
0001b4  6828              LDR      r0,[r5,#0]            ;2838
0001b6  0342              LSLS     r2,r0,#13             ;2838
0001b8  d02f              BEQ      |L8.538|
0001ba  fa90f0a0          RBIT     r0,r0                 ;2839
0001be  fab0f080          CLZ      r0,r0                 ;2839
                  |L8.450|
0001c2  4281              CMP      r1,r0                 ;2839
0001c4  d104              BNE      |L8.464|
0001c6  2200              MOVS     r2,#0                 ;2841
0001c8  2103              MOVS     r1,#3                 ;2841
0001ca  6820              LDR      r0,[r4,#0]            ;2841
0001cc  f7fffffe          BL       LL_ADC_SetOffsetState
                  |L8.464|
0001d0  6820              LDR      r0,[r4,#0]            ;2841
0001d2  6881              LDR      r1,[r0,#8]            ;2841
0001d4  f0110f01          TST      r1,#1                 ;2841
0001d8  d022              BEQ      |L8.544|
0001da  e0ac              B        |L8.822|
0001dc  e000              B        |L8.480|
0001de  e004              B        |L8.490|
                  |L8.480|
0001e0  f7fffffe          BL       LL_ADC_GetOffsetChannel
0001e4  f3c06184          UBFX     r1,r0,#26,#5          ;2823
0001e8  e78d              B        |L8.262|
                  |L8.490|
0001ea  f3c06084          UBFX     r0,r0,#26,#5          ;2824
0001ee  e791              B        |L8.276|
                  |L8.496|
0001f0  f7fffffe          BL       LL_ADC_GetOffsetChannel
0001f4  f3c06184          UBFX     r1,r0,#26,#5          ;2828
0001f8  e7a2              B        |L8.320|
                  |L8.506|
0001fa  f3c06084          UBFX     r0,r0,#26,#5          ;2829
0001fe  e7a6              B        |L8.334|
                  |L8.512|
000200  f7fffffe          BL       LL_ADC_GetOffsetChannel
000204  f3c06184          UBFX     r1,r0,#26,#5          ;2833
000208  e7b7              B        |L8.378|
                  |L8.522|
00020a  f3c06084          UBFX     r0,r0,#26,#5          ;2834
00020e  e7bb              B        |L8.392|
                  |L8.528|
000210  f7fffffe          BL       LL_ADC_GetOffsetChannel
000214  f3c06184          UBFX     r1,r0,#26,#5          ;2838
000218  e7cc              B        |L8.436|
                  |L8.538|
00021a  f3c06084          UBFX     r0,r0,#26,#5          ;2839
00021e  e7d0              B        |L8.450|
                  |L8.544|
000220  7b2a              LDRB     r2,[r5,#0xc]          ;2852
000222  6829              LDR      r1,[r5,#0]            ;2852
000224  f8503fb0          LDR      r3,[r0,#0xb0]!        ;2852
000228  f3c10c12          UBFX     r12,r1,#0,#19         ;2852
00022c  ea23030c          BIC      r3,r3,r12             ;2852
000230  f0020c18          AND      r12,r2,#0x18          ;2852
000234  4a64              LDR      r2,|L8.968|
000236  fa22f20c          LSR      r2,r2,r12             ;2852
00023a  400a              ANDS     r2,r2,r1              ;2852
00023c  4313              ORRS     r3,r3,r2              ;2852
00023e  6003              STR      r3,[r0,#0]            ;2852
000240  68e9              LDR      r1,[r5,#0xc]          ;2855
000242  4549              CMP      r1,r9                 ;2855
000244  d177              BNE      |L8.822|
000246  6828              LDR      r0,[r5,#0]            ;2859
000248  0341              LSLS     r1,r0,#13             ;2859
00024a  d01c              BEQ      |L8.646|
00024c  fa90f1a0          RBIT     r1,r0                 ;2860
000250  fab1f181          CLZ      r1,r1                 ;2860
                  |L8.596|
000254  1c49              ADDS     r1,r1,#1              ;2860
000256  f001011f          AND      r1,r1,#0x1f           ;2860
00025a  2909              CMP      r1,#9                 ;2860
00025c  ea4f3140          LSL      r1,r0,#13             ;2860
000260  d832              BHI      |L8.712|
000262  2900              CMP      r1,#0                 ;2860
000264  d012              BEQ      |L8.652|
000266  bf00              NOP                            ;2860
000268  fa90f1a0          RBIT     r1,r0                 ;2860
00026c  fab1f181          CLZ      r1,r1                 ;2860
                  |L8.624|
000270  f1010101          ADD      r1,r1,#1              ;2860
000274  f001011f          AND      r1,r1,#0x1f           ;2860
000278  fa06f601          LSL      r6,r6,r1              ;2860
00027c  d109              BNE      |L8.658|
00027e  bf00              NOP                            ;2860
000280  f3c06184          UBFX     r1,r0,#26,#5          ;2860
000284  e009              B        |L8.666|
                  |L8.646|
000286  f3c06184          UBFX     r1,r0,#26,#5          ;2860
00028a  e7e3              B        |L8.596|
                  |L8.652|
00028c  f3c06184          UBFX     r1,r0,#26,#5          ;2860
000290  e7ee              B        |L8.624|
                  |L8.658|
000292  fa90f1a0          RBIT     r1,r0                 ;2860
000296  fab1f181          CLZ      r1,r1                 ;2860
                  |L8.666|
00029a  f1010101          ADD      r1,r1,#1              ;2860
00029e  f001011f          AND      r1,r1,#0x1f           ;2860
0002a2  ea466181          ORR      r1,r6,r1,LSL #26      ;2860
0002a6  d102              BNE      |L8.686|
0002a8  f3c06084          UBFX     r0,r0,#26,#5          ;2860
0002ac  e003              B        |L8.694|
                  |L8.686|
0002ae  fa90f0a0          RBIT     r0,r0                 ;2860
0002b2  fab0f080          CLZ      r0,r0                 ;2860
                  |L8.694|
0002b6  f1000001          ADD      r0,r0,#1              ;2860
0002ba  f000001f          AND      r0,r0,#0x1f           ;2860
0002be  eb000040          ADD      r0,r0,r0,LSL #1       ;2860
0002c2  ea415100          ORR      r1,r1,r0,LSL #20      ;2860
0002c6  e032              B        |L8.814|
                  |L8.712|
0002c8  2900              CMP      r1,#0                 ;2860
0002ca  d00e              BEQ      |L8.746|
0002cc  fa90f1a0          RBIT     r1,r0                 ;2860
0002d0  fab1f181          CLZ      r1,r1                 ;2860
                  |L8.724|
0002d4  f1010101          ADD      r1,r1,#1              ;2860
0002d8  f001011f          AND      r1,r1,#0x1f           ;2860
0002dc  fa06f601          LSL      r6,r6,r1              ;2860
0002e0  d106              BNE      |L8.752|
0002e2  bf00              NOP                            ;2860
0002e4  f3c06184          UBFX     r1,r0,#26,#5          ;2860
0002e8  e006              B        |L8.760|
                  |L8.746|
0002ea  f3c06184          UBFX     r1,r0,#26,#5          ;2860
0002ee  e7f1              B        |L8.724|
                  |L8.752|
0002f0  fa90f1a0          RBIT     r1,r0                 ;2860
0002f4  fab1f181          CLZ      r1,r1                 ;2860
                  |L8.760|
0002f8  f1010101          ADD      r1,r1,#1              ;2860
0002fc  f001011f          AND      r1,r1,#0x1f           ;2860
000300  ea466181          ORR      r1,r6,r1,LSL #26      ;2860
000304  d102              BNE      |L8.780|
000306  f3c06084          UBFX     r0,r0,#26,#5          ;2860
00030a  e003              B        |L8.788|
                  |L8.780|
00030c  fa90f0a0          RBIT     r0,r0                 ;2860
000310  fab0f080          CLZ      r0,r0                 ;2860
                  |L8.788|
000314  f1000001          ADD      r0,r0,#1              ;2860
000318  f000001f          AND      r0,r0,#0x1f           ;2860
00031c  4a2b              LDR      r2,|L8.972|
00031e  eb000040          ADD      r0,r0,r0,LSL #1       ;2860
000322  eb025000          ADD      r0,r2,r0,LSL #20      ;2860
000326  ea410100          ORR      r1,r1,r0              ;2860
00032a  f0417100          ORR      r1,r1,#0x2000000      ;2860
                  |L8.814|
00032e  68aa              LDR      r2,[r5,#8]            ;2860
000330  6820              LDR      r0,[r4,#0]            ;2860
000332  f7fffffe          BL       LL_ADC_SetChannelSamplingTime
                  |L8.822|
000336  4826              LDR      r0,|L8.976|
000338  682a              LDR      r2,[r5,#0]            ;2872
00033a  4202              TST      r2,r0                 ;2872
00033c  f43fae7a          BEQ      |L8.52|
000340  4824              LDR      r0,|L8.980|
000342  6881              LDR      r1,[r0,#8]            ;2872
000344  4d24              LDR      r5,|L8.984|
000346  4b25              LDR      r3,|L8.988|
000348  f00171e0          AND      r1,r1,#0x1c00000      ;2881
00034c  42aa              CMP      r2,r5                 ;2878
00034e  d11b              BNE      |L8.904|
000350  020d              LSLS     r5,r1,#8              ;2879
000352  d419              BMI      |L8.904|
000354  6822              LDR      r2,[r4,#0]            ;2881
000356  429a              CMP      r2,r3                 ;2881
000358  f47fae6c          BNE      |L8.52|
00035c  6882              LDR      r2,[r0,#8]            ;2881
00035e  f4410100          ORR      r1,r1,#0x800000       ;2883
000362  f02272e0          BIC      r2,r2,#0x1c00000      ;2883
000366  430a              ORRS     r2,r2,r1              ;2883
000368  6082              STR      r2,[r0,#8]            ;2883
00036a  481d              LDR      r0,|L8.992|
00036c  491d              LDR      r1,|L8.996|
00036e  6800              LDR      r0,[r0,#0]            ;2891  ; SystemCoreClock
000370  fbb0f0f1          UDIV     r0,r0,r1              ;2891
000374  1c40              ADDS     r0,r0,#1              ;2891
000376  eb000040          ADD      r0,r0,r0,LSL #1       ;2891
00037a  0080              LSLS     r0,r0,#2              ;2891
00037c  e000              B        |L8.896|
                  |L8.894|
00037e  1e40              SUBS     r0,r0,#1              ;2892
                  |L8.896|
000380  9000              STR      r0,[sp,#0]            ;2891
000382  2800              CMP      r0,#0                 ;2891
000384  d1fb              BNE      |L8.894|
                  |L8.902|
000386  e655              B        |L8.52|
                  |L8.904|
000388  4d17              LDR      r5,|L8.1000|
00038a  42aa              CMP      r2,r5                 ;2898
00038c  d107              BNE      |L8.926|
00038e  01cd              LSLS     r5,r1,#7              ;2898
000390  d405              BMI      |L8.926|
000392  6822              LDR      r2,[r4,#0]            ;2900
000394  429a              CMP      r2,r3                 ;2900
000396  d1f6              BNE      |L8.902|
000398  f0417180          ORR      r1,r1,#0x1000000      ;2902
00039c  e00a              B        |L8.948|
                  |L8.926|
00039e  f06f4500          MVN      r5,#0x80000000        ;2906
0003a2  42ea              CMN      r2,r5                 ;2906
0003a4  d1ef              BNE      |L8.902|
0003a6  024a              LSLS     r2,r1,#9              ;2907
0003a8  d4ed              BMI      |L8.902|
0003aa  6822              LDR      r2,[r4,#0]            ;2909
0003ac  429a              CMP      r2,r3                 ;2909
0003ae  d1ea              BNE      |L8.902|
0003b0  f4410180          ORR      r1,r1,#0x400000       ;2911
                  |L8.948|
0003b4  6882              LDR      r2,[r0,#8]            ;2911
0003b6  f02272e0          BIC      r2,r2,#0x1c00000      ;2911
0003ba  430a              ORRS     r2,r2,r1              ;2911
0003bc  6082              STR      r2,[r0,#8]            ;2911
0003be  e639              B        |L8.52|
;;;2939   
                          ENDP

                  |L8.960|
                          DCD      0x407f0000
                  |L8.964|
                          DCD      0x03fff000
                  |L8.968|
                          DCD      0x0007ffff
                  |L8.972|
                          DCD      0xfe200000
                  |L8.976|
                          DCD      0x80080000
                  |L8.980|
                          DCD      0x50040300
                  |L8.984|
                          DCD      0xc7520000
                  |L8.988|
                          DCD      0x50040000
                  |L8.992|
                          DCD      SystemCoreClock
                  |L8.996|
                          DCD      0x00030d40
                  |L8.1000|
                          DCD      0xcb840000

                          AREA ||i.HAL_ADC_ConvCpltCallback||, CODE, READONLY, ALIGN=1

                  HAL_ADC_ConvCpltCallback PROC
;;;2600     */
;;;2601   __weak void HAL_ADC_ConvCpltCallback(ADC_HandleTypeDef *hadc)
000000  4770              BX       lr
;;;2602   {
;;;2603     /* Prevent unused argument(s) compilation warning */
;;;2604     UNUSED(hadc);
;;;2605   
;;;2606     /* NOTE : This function should not be modified. When the callback is needed,
;;;2607               function HAL_ADC_ConvCpltCallback must be implemented in the user file.
;;;2608      */
;;;2609   }
;;;2610   
                          ENDP


                          AREA ||i.HAL_ADC_ConvHalfCpltCallback||, CODE, READONLY, ALIGN=1

                  HAL_ADC_ConvHalfCpltCallback PROC
;;;2615     */
;;;2616   __weak void HAL_ADC_ConvHalfCpltCallback(ADC_HandleTypeDef *hadc)
000000  4770              BX       lr
;;;2617   {
;;;2618     /* Prevent unused argument(s) compilation warning */
;;;2619     UNUSED(hadc);
;;;2620   
;;;2621     /* NOTE : This function should not be modified. When the callback is needed,
;;;2622               function HAL_ADC_ConvHalfCpltCallback must be implemented in the user file.
;;;2623     */
;;;2624   }
;;;2625   
                          ENDP


                          AREA ||i.HAL_ADC_DeInit||, CODE, READONLY, ALIGN=2

                  HAL_ADC_DeInit PROC
;;;697      */
;;;698    HAL_StatusTypeDef HAL_ADC_DeInit(ADC_HandleTypeDef *hadc)
000000  b570              PUSH     {r4-r6,lr}
;;;699    {
000002  0004              MOVS     r4,r0
000004  d00f              BEQ      |L11.38|
;;;700      HAL_StatusTypeDef tmp_hal_status;
;;;701    
;;;702      /* Check ADC handle */
;;;703      if (hadc == NULL)
;;;704      {
;;;705        return HAL_ERROR;
;;;706      }
;;;707    
;;;708      /* Check the parameters */
;;;709      assert_param(IS_ADC_ALL_INSTANCE(hadc->Instance));
;;;710    
;;;711      /* Set ADC state */
;;;712      SET_BIT(hadc->State, HAL_ADC_STATE_BUSY_INTERNAL);
000006  6d60              LDR      r0,[r4,#0x54]
000008  f0400002          ORR      r0,r0,#2
00000c  6560              STR      r0,[r4,#0x54]
;;;713    
;;;714      /* Stop potential conversion on going */
;;;715      tmp_hal_status = ADC_ConversionStop(hadc, ADC_REGULAR_INJECTED_GROUP);
00000e  2103              MOVS     r1,#3
000010  4620              MOV      r0,r4
000012  f7fffffe          BL       ADC_ConversionStop
000016  0005              MOVS     r5,r0
;;;716    
;;;717      /* Disable ADC peripheral if conversions are effectively stopped            */
;;;718      /* Flush register JSQR: reset the queue sequencer when injected             */
;;;719      /* queue sequencer is enabled and ADC disabled.                             */
;;;720      /* The software and hardware triggers of the injected sequence are both     */
;;;721      /* internally disabled just after the completion of the last valid          */
;;;722      /* injected sequence.                                                       */
;;;723      SET_BIT(hadc->Instance->CFGR, ADC_CFGR_JQM);
000018  6820              LDR      r0,[r4,#0]
00001a  68c1              LDR      r1,[r0,#0xc]
00001c  f4411100          ORR      r1,r1,#0x200000
000020  60c1              STR      r1,[r0,#0xc]
;;;724    
;;;725      /* Disable ADC peripheral if conversions are effectively stopped */
;;;726      if (tmp_hal_status == HAL_OK)
000022  d002              BEQ      |L11.42|
000024  e008              B        |L11.56|
                  |L11.38|
000026  2001              MOVS     r0,#1                 ;705
;;;727      {
;;;728        /* Disable the ADC peripheral */
;;;729        tmp_hal_status = ADC_Disable(hadc);
;;;730    
;;;731        /* Check if ADC is effectively disabled */
;;;732        if (tmp_hal_status == HAL_OK)
;;;733        {
;;;734          /* Change ADC state */
;;;735          hadc->State = HAL_ADC_STATE_READY;
;;;736        }
;;;737      }
;;;738    
;;;739      /* Note: HAL ADC deInit is done independently of ADC conversion stop        */
;;;740      /*       and disable return status. In case of status fail, attempt to      */
;;;741      /*       perform deinitialization anyway and it is up user code in          */
;;;742      /*       in HAL_ADC_MspDeInit() to reset the ADC peripheral using           */
;;;743      /*       system RCC hard reset.                                             */
;;;744    
;;;745      /* ========== Reset ADC registers ========== */
;;;746      /* Reset register IER */
;;;747      __HAL_ADC_DISABLE_IT(hadc, (ADC_IT_AWD3  | ADC_IT_AWD2 | ADC_IT_AWD1 |
;;;748                                  ADC_IT_JQOVF | ADC_IT_OVR  |
;;;749                                  ADC_IT_JEOS  | ADC_IT_JEOC |
;;;750                                  ADC_IT_EOS   | ADC_IT_EOC  |
;;;751                                  ADC_IT_EOSMP | ADC_IT_RDY));
;;;752    
;;;753      /* Reset register ISR */
;;;754      __HAL_ADC_CLEAR_FLAG(hadc, (ADC_FLAG_AWD3  | ADC_FLAG_AWD2 | ADC_FLAG_AWD1 |
;;;755                                  ADC_FLAG_JQOVF | ADC_FLAG_OVR  |
;;;756                                  ADC_FLAG_JEOS  | ADC_FLAG_JEOC |
;;;757                                  ADC_FLAG_EOS   | ADC_FLAG_EOC  |
;;;758                                  ADC_FLAG_EOSMP | ADC_FLAG_RDY));
;;;759    
;;;760      /* Reset register CR */
;;;761      /* Bits ADC_CR_JADSTP, ADC_CR_ADSTP, ADC_CR_JADSTART, ADC_CR_ADSTART,
;;;762         ADC_CR_ADCAL, ADC_CR_ADDIS and ADC_CR_ADEN are in access mode "read-set":
;;;763         no direct reset applicable.
;;;764         Update CR register to reset value where doable by software */
;;;765      CLEAR_BIT(hadc->Instance->CR, ADC_CR_ADVREGEN | ADC_CR_ADCALDIF);
;;;766      SET_BIT(hadc->Instance->CR, ADC_CR_DEEPPWD);
;;;767    
;;;768      /* Reset register CFGR */
;;;769      CLEAR_BIT(hadc->Instance->CFGR, ADC_CFGR_FIELDS);
;;;770      SET_BIT(hadc->Instance->CFGR, ADC_CFGR_JQDIS);
;;;771    
;;;772      /* Reset register CFGR2 */
;;;773      CLEAR_BIT(hadc->Instance->CFGR2, ADC_CFGR2_ROVSM  | ADC_CFGR2_TROVS   | ADC_CFGR2_OVSS |
;;;774                ADC_CFGR2_OVSR  | ADC_CFGR2_JOVSE | ADC_CFGR2_ROVSE);
;;;775    
;;;776      /* Reset register SMPR1 */
;;;777      CLEAR_BIT(hadc->Instance->SMPR1, ADC_SMPR1_FIELDS);
;;;778    
;;;779      /* Reset register SMPR2 */
;;;780      CLEAR_BIT(hadc->Instance->SMPR2, ADC_SMPR2_SMP18 | ADC_SMPR2_SMP17 | ADC_SMPR2_SMP16 |
;;;781                ADC_SMPR2_SMP15 | ADC_SMPR2_SMP14 | ADC_SMPR2_SMP13 |
;;;782                ADC_SMPR2_SMP12 | ADC_SMPR2_SMP11 | ADC_SMPR2_SMP10);
;;;783    
;;;784      /* Reset register TR1 */
;;;785      CLEAR_BIT(hadc->Instance->TR1, ADC_TR1_HT1 | ADC_TR1_LT1);
;;;786    
;;;787      /* Reset register TR2 */
;;;788      CLEAR_BIT(hadc->Instance->TR2, ADC_TR2_HT2 | ADC_TR2_LT2);
;;;789    
;;;790      /* Reset register TR3 */
;;;791      CLEAR_BIT(hadc->Instance->TR3, ADC_TR3_HT3 | ADC_TR3_LT3);
;;;792    
;;;793      /* Reset register SQR1 */
;;;794      CLEAR_BIT(hadc->Instance->SQR1, ADC_SQR1_SQ4 | ADC_SQR1_SQ3 | ADC_SQR1_SQ2 |
;;;795                ADC_SQR1_SQ1 | ADC_SQR1_L);
;;;796    
;;;797      /* Reset register SQR2 */
;;;798      CLEAR_BIT(hadc->Instance->SQR2, ADC_SQR2_SQ9 | ADC_SQR2_SQ8 | ADC_SQR2_SQ7 |
;;;799                ADC_SQR2_SQ6 | ADC_SQR2_SQ5);
;;;800    
;;;801      /* Reset register SQR3 */
;;;802      CLEAR_BIT(hadc->Instance->SQR3, ADC_SQR3_SQ14 | ADC_SQR3_SQ13 | ADC_SQR3_SQ12 |
;;;803                ADC_SQR3_SQ11 | ADC_SQR3_SQ10);
;;;804    
;;;805      /* Reset register SQR4 */
;;;806      CLEAR_BIT(hadc->Instance->SQR4, ADC_SQR4_SQ16 | ADC_SQR4_SQ15);
;;;807    
;;;808      /* Register JSQR was reset when the ADC was disabled */
;;;809    
;;;810      /* Reset register DR */
;;;811      /* bits in access mode read only, no direct reset applicable*/
;;;812    
;;;813      /* Reset register OFR1 */
;;;814      CLEAR_BIT(hadc->Instance->OFR1, ADC_OFR1_OFFSET1_EN | ADC_OFR1_OFFSET1_CH | ADC_OFR1_OFFSET1);
;;;815      /* Reset register OFR2 */
;;;816      CLEAR_BIT(hadc->Instance->OFR2, ADC_OFR2_OFFSET2_EN | ADC_OFR2_OFFSET2_CH | ADC_OFR2_OFFSET2);
;;;817      /* Reset register OFR3 */
;;;818      CLEAR_BIT(hadc->Instance->OFR3, ADC_OFR3_OFFSET3_EN | ADC_OFR3_OFFSET3_CH | ADC_OFR3_OFFSET3);
;;;819      /* Reset register OFR4 */
;;;820      CLEAR_BIT(hadc->Instance->OFR4, ADC_OFR4_OFFSET4_EN | ADC_OFR4_OFFSET4_CH | ADC_OFR4_OFFSET4);
;;;821    
;;;822      /* Reset registers JDR1, JDR2, JDR3, JDR4 */
;;;823      /* bits in access mode read only, no direct reset applicable*/
;;;824    
;;;825      /* Reset register AWD2CR */
;;;826      CLEAR_BIT(hadc->Instance->AWD2CR, ADC_AWD2CR_AWD2CH);
;;;827    
;;;828      /* Reset register AWD3CR */
;;;829      CLEAR_BIT(hadc->Instance->AWD3CR, ADC_AWD3CR_AWD3CH);
;;;830    
;;;831      /* Reset register DIFSEL */
;;;832      CLEAR_BIT(hadc->Instance->DIFSEL, ADC_DIFSEL_DIFSEL);
;;;833    
;;;834      /* Reset register CALFACT */
;;;835      CLEAR_BIT(hadc->Instance->CALFACT, ADC_CALFACT_CALFACT_D | ADC_CALFACT_CALFACT_S);
;;;836    
;;;837    
;;;838      /* ========== Reset common ADC registers ========== */
;;;839    
;;;840      /* Software is allowed to change common parameters only when all the other
;;;841         ADCs are disabled.   */
;;;842      if (__LL_ADC_IS_ENABLED_ALL_COMMON_INSTANCE(__LL_ADC_COMMON_INSTANCE(hadc->Instance)) == 0UL)
;;;843      {
;;;844        /* Reset configuration of ADC common register CCR:
;;;845          - clock mode: CKMODE, PRESCEN
;;;846          - multimode related parameters (when this feature is available): MDMA,
;;;847            DMACFG, DELAY, DUAL (set by HAL_ADCEx_MultiModeConfigChannel() API)
;;;848          - internal measurement paths: Vbat, temperature sensor, Vref (set into
;;;849            HAL_ADC_ConfigChannel() or HAL_ADCEx_InjectedConfigChannel() )
;;;850        */
;;;851        ADC_CLEAR_COMMON_CONTROL_REGISTER(hadc);
;;;852    
;;;853        /* ========== Hard reset ADC peripheral ========== */
;;;854        /* Performs a global reset of the entire ADC peripherals instances        */
;;;855        /* sharing the same common ADC instance: ADC state is forced to           */
;;;856        /* a similar state as after device power-on.                              */
;;;857        /* Note: A possible implementation is to add RCC bus reset of ADC         */
;;;858        /* (for example, using macro                                              */
;;;859        /*  __HAL_RCC_ADC..._FORCE_RESET()/..._RELEASE_RESET()/..._CLK_DISABLE()) */
;;;860        /* in function "void HAL_ADC_MspDeInit(ADC_HandleTypeDef *hadc)":         */
;;;861    #if (USE_HAL_ADC_REGISTER_CALLBACKS == 1)
;;;862        if (hadc->MspDeInitCallback == NULL)
;;;863        {
;;;864          hadc->MspDeInitCallback = HAL_ADC_MspDeInit; /* Legacy weak MspDeInit  */
;;;865        }
;;;866    
;;;867        /* DeInit the low level hardware */
;;;868        hadc->MspDeInitCallback(hadc);
;;;869    #else
;;;870        /* DeInit the low level hardware */
;;;871        HAL_ADC_MspDeInit(hadc);
;;;872    #endif /* USE_HAL_ADC_REGISTER_CALLBACKS */
;;;873      }
;;;874    
;;;875      /* Set ADC error code to none */
;;;876      ADC_CLEAR_ERRORCODE(hadc);
;;;877    
;;;878      /* Reset injected channel configuration parameters */
;;;879      hadc->InjectionConfig.ContextQueue = 0;
;;;880      hadc->InjectionConfig.ChannelCount = 0;
;;;881    
;;;882      /* Set ADC state */
;;;883      hadc->State = HAL_ADC_STATE_RESET;
;;;884    
;;;885      /* Process unlocked */
;;;886      __HAL_UNLOCK(hadc);
;;;887    
;;;888      /* Return function status */
;;;889      return tmp_hal_status;
;;;890    }
000028  bd70              POP      {r4-r6,pc}
                  |L11.42|
00002a  4620              MOV      r0,r4                 ;729
00002c  f7fffffe          BL       ADC_Disable
000030  0005              MOVS     r5,r0                 ;729
000032  d101              BNE      |L11.56|
000034  2001              MOVS     r0,#1                 ;735
000036  6560              STR      r0,[r4,#0x54]         ;735
                  |L11.56|
000038  6820              LDR      r0,[r4,#0]            ;747
00003a  6841              LDR      r1,[r0,#4]            ;747
00003c  f36f010a          BFC      r1,#0,#11             ;747
000040  6041              STR      r1,[r0,#4]            ;747
000042  6821              LDR      r1,[r4,#0]            ;754
000044  f24070ff          MOV      r0,#0x7ff             ;754
000048  6008              STR      r0,[r1,#0]            ;754
00004a  6820              LDR      r0,[r4,#0]            ;765
00004c  6881              LDR      r1,[r0,#8]            ;765
00004e  f02141a0          BIC      r1,r1,#0x50000000     ;765
000052  6081              STR      r1,[r0,#8]            ;765
000054  6820              LDR      r0,[r4,#0]            ;766
000056  6881              LDR      r1,[r0,#8]            ;766
000058  f0415100          ORR      r1,r1,#0x20000000     ;766
00005c  6081              STR      r1,[r0,#8]            ;766
00005e  6820              LDR      r0,[r4,#0]            ;769
000060  68c1              LDR      r1,[r0,#0xc]          ;769
000062  4a3d              LDR      r2,|L11.344|
000064  4011              ANDS     r1,r1,r2              ;769
000066  60c1              STR      r1,[r0,#0xc]          ;769
000068  6820              LDR      r0,[r4,#0]            ;770
00006a  68c1              LDR      r1,[r0,#0xc]          ;770
00006c  f0414100          ORR      r1,r1,#0x80000000     ;770
000070  60c1              STR      r1,[r0,#0xc]          ;770
000072  6820              LDR      r0,[r4,#0]            ;773
000074  6901              LDR      r1,[r0,#0x10]         ;773
000076  f36f010a          BFC      r1,#0,#11             ;773
00007a  6101              STR      r1,[r0,#0x10]         ;773
00007c  6820              LDR      r0,[r4,#0]            ;777
00007e  6941              LDR      r1,[r0,#0x14]         ;777
000080  f0014140          AND      r1,r1,#0xc0000000     ;777
000084  6141              STR      r1,[r0,#0x14]         ;777
000086  6820              LDR      r0,[r4,#0]            ;780
000088  6981              LDR      r1,[r0,#0x18]         ;780
00008a  f0014178          AND      r1,r1,#0xf8000000     ;780
00008e  6181              STR      r1,[r0,#0x18]         ;780
000090  6820              LDR      r0,[r4,#0]            ;785
000092  6a01              LDR      r1,[r0,#0x20]         ;785
000094  f00121f0          AND      r1,r1,#0xf000f000     ;785
000098  6201              STR      r1,[r0,#0x20]         ;785
00009a  6820              LDR      r0,[r4,#0]            ;788
00009c  6a41              LDR      r1,[r0,#0x24]         ;788
00009e  f00121ff          AND      r1,r1,#0xff00ff00     ;788
0000a2  6241              STR      r1,[r0,#0x24]         ;788
0000a4  6820              LDR      r0,[r4,#0]            ;791
0000a6  6a81              LDR      r1,[r0,#0x28]         ;791
0000a8  f00121ff          AND      r1,r1,#0xff00ff00     ;791
0000ac  6281              STR      r1,[r0,#0x28]         ;791
0000ae  6820              LDR      r0,[r4,#0]            ;794
0000b0  6b01              LDR      r1,[r0,#0x30]         ;794
0000b2  4a2a              LDR      r2,|L11.348|
0000b4  4011              ANDS     r1,r1,r2              ;794
0000b6  6301              STR      r1,[r0,#0x30]         ;794
0000b8  6820              LDR      r0,[r4,#0]            ;798
0000ba  6b42              LDR      r2,[r0,#0x34]         ;798
0000bc  4927              LDR      r1,|L11.348|
0000be  3910              SUBS     r1,r1,#0x10           ;798
0000c0  400a              ANDS     r2,r2,r1              ;798
0000c2  6342              STR      r2,[r0,#0x34]         ;798
0000c4  6820              LDR      r0,[r4,#0]            ;802
0000c6  6b82              LDR      r2,[r0,#0x38]         ;802
0000c8  400a              ANDS     r2,r2,r1              ;802
0000ca  6382              STR      r2,[r0,#0x38]         ;802
0000cc  6820              LDR      r0,[r4,#0]            ;806
0000ce  6bc1              LDR      r1,[r0,#0x3c]         ;806
0000d0  f24072df          MOV      r2,#0x7df             ;806
0000d4  4391              BICS     r1,r1,r2              ;806
0000d6  63c1              STR      r1,[r0,#0x3c]         ;806
0000d8  6821              LDR      r1,[r4,#0]            ;814
0000da  6e0a              LDR      r2,[r1,#0x60]         ;814
0000dc  4820              LDR      r0,|L11.352|
0000de  4002              ANDS     r2,r2,r0              ;814
0000e0  660a              STR      r2,[r1,#0x60]         ;814
0000e2  6821              LDR      r1,[r4,#0]            ;816
0000e4  6e4a              LDR      r2,[r1,#0x64]         ;816
0000e6  4002              ANDS     r2,r2,r0              ;816
0000e8  664a              STR      r2,[r1,#0x64]         ;816
0000ea  6821              LDR      r1,[r4,#0]            ;818
0000ec  6e8a              LDR      r2,[r1,#0x68]         ;818
0000ee  4002              ANDS     r2,r2,r0              ;818
0000f0  668a              STR      r2,[r1,#0x68]         ;818
0000f2  6821              LDR      r1,[r4,#0]            ;820
0000f4  6eca              LDR      r2,[r1,#0x6c]         ;820
0000f6  4002              ANDS     r2,r2,r0              ;820
0000f8  66ca              STR      r2,[r1,#0x6c]         ;820
0000fa  6820              LDR      r0,[r4,#0]            ;826
0000fc  f8501fa0          LDR      r1,[r0,#0xa0]!        ;826
000100  f36f0112          BFC      r1,#0,#19             ;826
000104  6001              STR      r1,[r0,#0]            ;826
000106  6820              LDR      r0,[r4,#0]            ;829
000108  f8501fa4          LDR      r1,[r0,#0xa4]!        ;829
00010c  f36f0112          BFC      r1,#0,#19             ;829
000110  6001              STR      r1,[r0,#0]            ;829
000112  6820              LDR      r0,[r4,#0]            ;832
000114  f8501fb0          LDR      r1,[r0,#0xb0]!        ;832
000118  f36f0112          BFC      r1,#0,#19             ;832
00011c  6001              STR      r1,[r0,#0]            ;832
00011e  6820              LDR      r0,[r4,#0]            ;835
000120  f8501fb4          LDR      r1,[r0,#0xb4]!        ;835
000124  f021117f          BIC      r1,r1,#0x7f007f       ;835
000128  6001              STR      r1,[r0,#0]            ;835
00012a  480e              LDR      r0,|L11.356|
00012c  6881              LDR      r1,[r0,#8]            ;835
00012e  f0110f01          TST      r1,#1                 ;835
000132  d108              BNE      |L11.326|
000134  f8d01308          LDR      r1,[r0,#0x308]        ;851
000138  4a0b              LDR      r2,|L11.360|
00013a  4011              ANDS     r1,r1,r2              ;851
00013c  f8c01308          STR      r1,[r0,#0x308]        ;851
000140  4620              MOV      r0,r4                 ;871
000142  f7fffffe          BL       HAL_ADC_MspDeInit
                  |L11.326|
000146  2000              MOVS     r0,#0                 ;876
000148  65a0              STR      r0,[r4,#0x58]         ;876
00014a  65e0              STR      r0,[r4,#0x5c]         ;880
00014c  6620              STR      r0,[r4,#0x60]         ;883
00014e  6560              STR      r0,[r4,#0x54]         ;883
000150  f8840050          STRB     r0,[r4,#0x50]         ;886
000154  4628              MOV      r0,r5                 ;889
000156  bd70              POP      {r4-r6,pc}
;;;891    
                          ENDP

                  |L11.344|
                          DCD      0x80008004
                  |L11.348|
                          DCD      0xe0820830
                  |L11.352|
                          DCD      0x03fff000
                  |L11.356|
                          DCD      0x50040000
                  |L11.360|
                          DCD      0xfe00ffff

                          AREA ||i.HAL_ADC_ErrorCallback||, CODE, READONLY, ALIGN=1

                  HAL_ADC_ErrorCallback PROC
;;;2652     */
;;;2653   __weak void HAL_ADC_ErrorCallback(ADC_HandleTypeDef *hadc)
000000  4770              BX       lr
;;;2654   {
;;;2655     /* Prevent unused argument(s) compilation warning */
;;;2656     UNUSED(hadc);
;;;2657   
;;;2658     /* NOTE : This function should not be modified. When the callback is needed,
;;;2659               function HAL_ADC_ErrorCallback must be implemented in the user file.
;;;2660     */
;;;2661   }
;;;2662   
                          ENDP


                          AREA ||i.HAL_ADC_GetError||, CODE, READONLY, ALIGN=1

                  HAL_ADC_GetError PROC
;;;3223     */
;;;3224   uint32_t HAL_ADC_GetError(ADC_HandleTypeDef *hadc)
000000  6d80              LDR      r0,[r0,#0x58]
;;;3225   {
;;;3226     /* Check the parameters */
;;;3227     assert_param(IS_ADC_ALL_INSTANCE(hadc->Instance));
;;;3228   
;;;3229     return hadc->ErrorCode;
;;;3230   }
000002  4770              BX       lr
;;;3231   
                          ENDP


                          AREA ||i.HAL_ADC_GetState||, CODE, READONLY, ALIGN=1

                  HAL_ADC_GetState PROC
;;;3209     */
;;;3210   uint32_t HAL_ADC_GetState(ADC_HandleTypeDef *hadc)
000000  6d40              LDR      r0,[r0,#0x54]
;;;3211   {
;;;3212     /* Check the parameters */
;;;3213     assert_param(IS_ADC_ALL_INSTANCE(hadc->Instance));
;;;3214   
;;;3215     /* Return ADC handle state */
;;;3216     return hadc->State;
;;;3217   }
000002  4770              BX       lr
;;;3218   
                          ENDP


                          AREA ||i.HAL_ADC_GetValue||, CODE, READONLY, ALIGN=1

                  HAL_ADC_GetValue PROC
;;;2211     */
;;;2212   uint32_t HAL_ADC_GetValue(ADC_HandleTypeDef *hadc)
000000  6800              LDR      r0,[r0,#0]
;;;2213   {
;;;2214     /* Check the parameters */
;;;2215     assert_param(IS_ADC_ALL_INSTANCE(hadc->Instance));
;;;2216   
;;;2217     /* Note: EOC flag is not cleared here by software because automatically     */
;;;2218     /*       cleared by hardware when reading register DR.                      */
;;;2219   
;;;2220     /* Return ADC converted value */
;;;2221     return hadc->Instance->DR;
000002  6c00              LDR      r0,[r0,#0x40]
;;;2222   }
000004  4770              BX       lr
;;;2223   
                          ENDP


                          AREA ||i.HAL_ADC_IRQHandler||, CODE, READONLY, ALIGN=1

                  HAL_ADC_IRQHandler PROC
;;;2228     */
;;;2229   void HAL_ADC_IRQHandler(ADC_HandleTypeDef *hadc)
000000  e92d41f0          PUSH     {r4-r8,lr}
;;;2230   {
000004  4604              MOV      r4,r0
;;;2231     uint32_t overrun_error = 0UL; /* flag set if overrun occurrence has to be considered as an error */
;;;2232     uint32_t tmp_isr = hadc->Instance->ISR;
000006  6800              LDR      r0,[r0,#0]
000008  6806              LDR      r6,[r0,#0]
;;;2233     uint32_t tmp_ier = hadc->Instance->IER;
00000a  6845              LDR      r5,[r0,#4]
;;;2234     uint32_t tmp_adc_inj_is_trigger_source_sw_start;
;;;2235     uint32_t tmp_adc_reg_is_trigger_source_sw_start;
;;;2236     uint32_t tmp_cfgr;
;;;2237   #if defined(ADC_MULTIMODE_SUPPORT)
;;;2238     const ADC_TypeDef *tmpADC_Master;
;;;2239     uint32_t tmp_multimode_config = LL_ADC_GetMultimode(__LL_ADC_COMMON_INSTANCE(hadc->Instance));
;;;2240   #endif
;;;2241   
;;;2242     /* Check the parameters */
;;;2243     assert_param(IS_ADC_ALL_INSTANCE(hadc->Instance));
;;;2244     assert_param(IS_ADC_EOC_SELECTION(hadc->Init.EOCSelection));
;;;2245   
;;;2246     /* ========== Check End of Sampling flag for ADC group regular ========== */
;;;2247     if (((tmp_isr & ADC_FLAG_EOSMP) == ADC_FLAG_EOSMP) && ((tmp_ier & ADC_IT_EOSMP) == ADC_IT_EOSMP))
00000c  07b0              LSLS     r0,r6,#30
00000e  d50e              BPL      |L16.46|
000010  07a8              LSLS     r0,r5,#30
000012  d50c              BPL      |L16.46|
;;;2248     {
;;;2249       /* Update state machine on end of sampling status if not in error state */
;;;2250       if ((hadc->State & HAL_ADC_STATE_ERROR_INTERNAL) == 0UL)
000014  6d60              LDR      r0,[r4,#0x54]
000016  06c0              LSLS     r0,r0,#27
000018  d403              BMI      |L16.34|
;;;2251       {
;;;2252         /* Set ADC state */
;;;2253         SET_BIT(hadc->State, HAL_ADC_STATE_REG_EOSMP);
00001a  6d60              LDR      r0,[r4,#0x54]
00001c  f4406000          ORR      r0,r0,#0x800
000020  6560              STR      r0,[r4,#0x54]
                  |L16.34|
;;;2254       }
;;;2255   
;;;2256       /* End Of Sampling callback */
;;;2257   #if (USE_HAL_ADC_REGISTER_CALLBACKS == 1)
;;;2258       hadc->EndOfSamplingCallback(hadc);
;;;2259   #else
;;;2260       HAL_ADCEx_EndOfSamplingCallback(hadc);
000022  4620              MOV      r0,r4
000024  f7fffffe          BL       HAL_ADCEx_EndOfSamplingCallback
;;;2261   #endif /* USE_HAL_ADC_REGISTER_CALLBACKS */
;;;2262   
;;;2263       /* Clear regular group conversion flag */
;;;2264       __HAL_ADC_CLEAR_FLAG(hadc, ADC_FLAG_EOSMP);
000028  6821              LDR      r1,[r4,#0]
00002a  2002              MOVS     r0,#2
00002c  6008              STR      r0,[r1,#0]
                  |L16.46|
;;;2265     }
;;;2266   
;;;2267     /* ====== Check ADC group regular end of unitary conversion sequence conversions ===== */
;;;2268     if ((((tmp_isr & ADC_FLAG_EOC) == ADC_FLAG_EOC) && ((tmp_ier & ADC_IT_EOC) == ADC_IT_EOC)) ||
00002e  0770              LSLS     r0,r6,#29
000030  d501              BPL      |L16.54|
000032  0768              LSLS     r0,r5,#29
000034  d403              BMI      |L16.62|
                  |L16.54|
;;;2269         (((tmp_isr & ADC_FLAG_EOS) == ADC_FLAG_EOS) && ((tmp_ier & ADC_IT_EOS) == ADC_IT_EOS)))
000036  0730              LSLS     r0,r6,#28
000038  d525              BPL      |L16.134|
00003a  0728              LSLS     r0,r5,#28
00003c  d523              BPL      |L16.134|
                  |L16.62|
;;;2270     {
;;;2271       /* Update state machine on conversion status if not in error state */
;;;2272       if ((hadc->State & HAL_ADC_STATE_ERROR_INTERNAL) == 0UL)
00003e  6d60              LDR      r0,[r4,#0x54]
000040  06c0              LSLS     r0,r0,#27
000042  d403              BMI      |L16.76|
;;;2273       {
;;;2274         /* Set ADC state */
;;;2275         SET_BIT(hadc->State, HAL_ADC_STATE_REG_EOC);
000044  6d60              LDR      r0,[r4,#0x54]
000046  f4407000          ORR      r0,r0,#0x200
00004a  6560              STR      r0,[r4,#0x54]
                  |L16.76|
;;;2276       }
;;;2277   
;;;2278       /* Determine whether any further conversion upcoming on group regular     */
;;;2279       /* by external trigger, continuous mode or scan sequence on going         */
;;;2280       /* to disable interruption.                                               */
;;;2281       if (LL_ADC_REG_IsTriggerSourceSWStart(hadc->Instance) != 0UL)
00004c  6820              LDR      r0,[r4,#0]
00004e  f7fffffe          BL       LL_ADC_REG_IsTriggerSourceSWStart
000052  b190              CBZ      r0,|L16.122|
;;;2282       {
;;;2283         /* Get relevant register CFGR in ADC instance of ADC master or slave    */
;;;2284         /* in function of multimode state (for devices with multimode           */
;;;2285         /* available).                                                          */
;;;2286   #if defined(ADC_MULTIMODE_SUPPORT)
;;;2287         if ((__LL_ADC_MULTI_INSTANCE_MASTER(hadc->Instance) == hadc->Instance)
;;;2288             || (tmp_multimode_config == LL_ADC_MULTI_INDEPENDENT)
;;;2289             || (tmp_multimode_config == LL_ADC_MULTI_DUAL_INJ_SIMULT)
;;;2290             || (tmp_multimode_config == LL_ADC_MULTI_DUAL_INJ_ALTERN)
;;;2291            )
;;;2292         {
;;;2293           /* check CONT bit directly in handle ADC CFGR register */
;;;2294           tmp_cfgr = READ_REG(hadc->Instance->CFGR);
;;;2295         }
;;;2296         else
;;;2297         {
;;;2298           /* else need to check Master ADC CONT bit */
;;;2299           tmpADC_Master = __LL_ADC_MULTI_INSTANCE_MASTER(hadc->Instance);
;;;2300           tmp_cfgr = READ_REG(tmpADC_Master->CFGR);
;;;2301         }
;;;2302   #else
;;;2303         tmp_cfgr = READ_REG(hadc->Instance->CFGR);
000054  6820              LDR      r0,[r4,#0]
000056  68c1              LDR      r1,[r0,#0xc]
;;;2304   #endif
;;;2305   
;;;2306         /* Carry on if continuous mode is disabled */
;;;2307         if (READ_BIT(tmp_cfgr, ADC_CFGR_CONT) != ADC_CFGR_CONT)
000058  0489              LSLS     r1,r1,#18
00005a  d40e              BMI      |L16.122|
;;;2308         {
;;;2309           /* If End of Sequence is reached, disable interrupts */
;;;2310           if (__HAL_ADC_GET_FLAG(hadc, ADC_FLAG_EOS))
00005c  6801              LDR      r1,[r0,#0]
00005e  0709              LSLS     r1,r1,#28
000060  d50b              BPL      |L16.122|
;;;2311           {
;;;2312             /* Allowed to modify bits ADC_IT_EOC/ADC_IT_EOS only if bit         */
;;;2313             /* ADSTART==0 (no conversion on going)                              */
;;;2314             if (LL_ADC_REG_IsConversionOngoing(hadc->Instance) == 0UL)
000062  f7fffffe          BL       LL_ADC_REG_IsConversionOngoing
000066  2800              CMP      r0,#0
000068  d07d              BEQ      |L16.358|
;;;2315             {
;;;2316               /* Disable ADC end of sequence conversion interrupt */
;;;2317               /* Note: Overrun interrupt was enabled with EOC interrupt in      */
;;;2318               /* HAL_Start_IT(), but is not disabled here because can be used   */
;;;2319               /* by overrun IRQ process below.                                  */
;;;2320               __HAL_ADC_DISABLE_IT(hadc, ADC_IT_EOC | ADC_IT_EOS);
;;;2321   
;;;2322               /* Set ADC state */
;;;2323               CLEAR_BIT(hadc->State, HAL_ADC_STATE_REG_BUSY);
;;;2324   
;;;2325               if ((hadc->State & HAL_ADC_STATE_INJ_BUSY) == 0UL)
;;;2326               {
;;;2327                 SET_BIT(hadc->State, HAL_ADC_STATE_READY);
;;;2328               }
;;;2329             }
;;;2330             else
;;;2331             {
;;;2332               /* Change ADC state to error state */
;;;2333               SET_BIT(hadc->State, HAL_ADC_STATE_ERROR_INTERNAL);
00006a  6d60              LDR      r0,[r4,#0x54]
00006c  f0400010          ORR      r0,r0,#0x10
000070  6560              STR      r0,[r4,#0x54]
;;;2334   
;;;2335               /* Set ADC error code to ADC peripheral internal error */
;;;2336               SET_BIT(hadc->ErrorCode, HAL_ADC_ERROR_INTERNAL);
000072  6da0              LDR      r0,[r4,#0x58]
000074  f0400001          ORR      r0,r0,#1
000078  65a0              STR      r0,[r4,#0x58]
                  |L16.122|
;;;2337             }
;;;2338           }
;;;2339         }
;;;2340       }
;;;2341   
;;;2342       /* Conversion complete callback */
;;;2343       /* Note: Into callback function "HAL_ADC_ConvCpltCallback()",             */
;;;2344       /*       to determine if conversion has been triggered from EOC or EOS,   */
;;;2345       /*       possibility to use:                                              */
;;;2346       /*        " if ( __HAL_ADC_GET_FLAG(&hadc, ADC_FLAG_EOS)) "               */
;;;2347   #if (USE_HAL_ADC_REGISTER_CALLBACKS == 1)
;;;2348       hadc->ConvCpltCallback(hadc);
;;;2349   #else
;;;2350       HAL_ADC_ConvCpltCallback(hadc);
00007a  4620              MOV      r0,r4
00007c  f7fffffe          BL       HAL_ADC_ConvCpltCallback
;;;2351   #endif /* USE_HAL_ADC_REGISTER_CALLBACKS */
;;;2352   
;;;2353       /* Clear regular group conversion flag */
;;;2354       /* Note: in case of overrun set to ADC_OVR_DATA_PRESERVED, end of         */
;;;2355       /*       conversion flags clear induces the release of the preserved data.*/
;;;2356       /*       Therefore, if the preserved data value is needed, it must be     */
;;;2357       /*       read preliminarily into HAL_ADC_ConvCpltCallback().              */
;;;2358       __HAL_ADC_CLEAR_FLAG(hadc, (ADC_FLAG_EOC | ADC_FLAG_EOS));
000080  6821              LDR      r1,[r4,#0]
000082  200c              MOVS     r0,#0xc
000084  6008              STR      r0,[r1,#0]
                  |L16.134|
;;;2359     }
;;;2360   
;;;2361     /* ====== Check ADC group injected end of unitary conversion sequence conversions ===== */
;;;2362     if ((((tmp_isr & ADC_FLAG_JEOC) == ADC_FLAG_JEOC) && ((tmp_ier & ADC_IT_JEOC) == ADC_IT_JEOC)) ||
000086  06b0              LSLS     r0,r6,#26
000088  d501              BPL      |L16.142|
00008a  06a8              LSLS     r0,r5,#26
00008c  d403              BMI      |L16.150|
                  |L16.142|
;;;2363         (((tmp_isr & ADC_FLAG_JEOS) == ADC_FLAG_JEOS) && ((tmp_ier & ADC_IT_JEOS) == ADC_IT_JEOS)))
00008e  0670              LSLS     r0,r6,#25
000090  d531              BPL      |L16.246|
000092  0668              LSLS     r0,r5,#25
000094  d52f              BPL      |L16.246|
                  |L16.150|
;;;2364     {
;;;2365       /* Update state machine on conversion status if not in error state */
;;;2366       if ((hadc->State & HAL_ADC_STATE_ERROR_INTERNAL) == 0UL)
000096  6d60              LDR      r0,[r4,#0x54]
000098  06c0              LSLS     r0,r0,#27
00009a  d403              BMI      |L16.164|
;;;2367       {
;;;2368         /* Set ADC state */
;;;2369         SET_BIT(hadc->State, HAL_ADC_STATE_INJ_EOC);
00009c  6d60              LDR      r0,[r4,#0x54]
00009e  f4405000          ORR      r0,r0,#0x2000
0000a2  6560              STR      r0,[r4,#0x54]
                  |L16.164|
0000a4  6820              LDR      r0,[r4,#0]
0000a6  6cc1              LDR      r1,[r0,#0x4c]
0000a8  f0110fc0          TST      r1,#0xc0
0000ac  d07d              BEQ      |L16.426|
0000ae  2700              MOVS     r7,#0
                  |L16.176|
;;;2370       }
;;;2371   
;;;2372       /* Retrieve ADC configuration */
;;;2373       tmp_adc_inj_is_trigger_source_sw_start = LL_ADC_INJ_IsTriggerSourceSWStart(hadc->Instance);
;;;2374       tmp_adc_reg_is_trigger_source_sw_start = LL_ADC_REG_IsTriggerSourceSWStart(hadc->Instance);
0000b0  f7fffffe          BL       LL_ADC_REG_IsTriggerSourceSWStart
;;;2375       /* Get relevant register CFGR in ADC instance of ADC master or slave  */
;;;2376       /* in function of multimode state (for devices with multimode         */
;;;2377       /* available).                                                        */
;;;2378   #if defined(ADC_MULTIMODE_SUPPORT)
;;;2379       if ((__LL_ADC_MULTI_INSTANCE_MASTER(hadc->Instance) == hadc->Instance)
;;;2380           || (tmp_multimode_config == LL_ADC_MULTI_INDEPENDENT)
;;;2381           || (tmp_multimode_config == LL_ADC_MULTI_DUAL_REG_SIMULT)
;;;2382           || (tmp_multimode_config == LL_ADC_MULTI_DUAL_REG_INTERL)
;;;2383          )
;;;2384       {
;;;2385         tmp_cfgr = READ_REG(hadc->Instance->CFGR);
;;;2386       }
;;;2387       else
;;;2388       {
;;;2389         tmpADC_Master = __LL_ADC_MULTI_INSTANCE_MASTER(hadc->Instance);
;;;2390         tmp_cfgr = READ_REG(tmpADC_Master->CFGR);
;;;2391       }
;;;2392   #else
;;;2393       tmp_cfgr = READ_REG(hadc->Instance->CFGR);
0000b4  6821              LDR      r1,[r4,#0]
0000b6  4602              MOV      r2,r0                 ;2374
0000b8  68c8              LDR      r0,[r1,#0xc]
;;;2394   #endif
;;;2395   
;;;2396       /* Disable interruption if no further conversion upcoming by injected     */
;;;2397       /* external trigger or by automatic injected conversion with regular      */
;;;2398       /* group having no further conversion upcoming (same conditions as        */
;;;2399       /* regular group interruption disabling above),                           */
;;;2400       /* and if injected scan sequence is completed.                            */
;;;2401       if (tmp_adc_inj_is_trigger_source_sw_start != 0UL)
0000ba  b1b7              CBZ      r7,|L16.234|
;;;2402       {
;;;2403         if ((READ_BIT(tmp_cfgr, ADC_CFGR_JAUTO) == 0UL) ||
0000bc  0183              LSLS     r3,r0,#6
0000be  d502              BPL      |L16.198|
;;;2404             ((tmp_adc_reg_is_trigger_source_sw_start != 0UL) &&
0000c0  b19a              CBZ      r2,|L16.234|
;;;2405              (READ_BIT(tmp_cfgr, ADC_CFGR_CONT) == 0UL)))
0000c2  0482              LSLS     r2,r0,#18
0000c4  d411              BMI      |L16.234|
                  |L16.198|
;;;2406         {
;;;2407           /* If End of Sequence is reached, disable interrupts */
;;;2408           if (__HAL_ADC_GET_FLAG(hadc, ADC_FLAG_JEOS))
0000c6  680a              LDR      r2,[r1,#0]
0000c8  0652              LSLS     r2,r2,#25
0000ca  d50e              BPL      |L16.234|
;;;2409           {
;;;2410             /* Particular case if injected contexts queue is enabled:             */
;;;2411             /* when the last context has been fully processed, JSQR is reset      */
;;;2412             /* by the hardware. Even if no injected conversion is planned to come */
;;;2413             /* (queue empty, triggers are ignored), it can start again            */
;;;2414             /* immediately after setting a new context (JADSTART is still set).   */
;;;2415             /* Therefore, state of HAL ADC injected group is kept to busy.        */
;;;2416             if (READ_BIT(tmp_cfgr, ADC_CFGR_JQM) == 0UL)
0000cc  0280              LSLS     r0,r0,#10
0000ce  d40c              BMI      |L16.234|
0000d0  4608              MOV      r0,r1
;;;2417             {
;;;2418               /* Allowed to modify bits ADC_IT_JEOC/ADC_IT_JEOS only if bit       */
;;;2419               /* JADSTART==0 (no conversion on going)                             */
;;;2420               if (LL_ADC_INJ_IsConversionOngoing(hadc->Instance) == 0UL)
0000d2  f7fffffe          BL       LL_ADC_INJ_IsConversionOngoing
0000d6  2800              CMP      r0,#0
0000d8  d07f              BEQ      |L16.474|
;;;2421               {
;;;2422                 /* Disable ADC end of sequence conversion interrupt  */
;;;2423                 __HAL_ADC_DISABLE_IT(hadc, ADC_IT_JEOC | ADC_IT_JEOS);
;;;2424   
;;;2425                 /* Set ADC state */
;;;2426                 CLEAR_BIT(hadc->State, HAL_ADC_STATE_INJ_BUSY);
;;;2427   
;;;2428                 if ((hadc->State & HAL_ADC_STATE_REG_BUSY) == 0UL)
;;;2429                 {
;;;2430                   SET_BIT(hadc->State, HAL_ADC_STATE_READY);
;;;2431                 }
;;;2432               }
;;;2433               else
;;;2434               {
;;;2435                 /* Update ADC state machine to error */
;;;2436                 SET_BIT(hadc->State, HAL_ADC_STATE_ERROR_INTERNAL);
0000da  6d60              LDR      r0,[r4,#0x54]
0000dc  f0400010          ORR      r0,r0,#0x10
0000e0  6560              STR      r0,[r4,#0x54]
;;;2437   
;;;2438                 /* Set ADC error code to ADC peripheral internal error */
;;;2439                 SET_BIT(hadc->ErrorCode, HAL_ADC_ERROR_INTERNAL);
0000e2  6da0              LDR      r0,[r4,#0x58]
0000e4  f0400001          ORR      r0,r0,#1
0000e8  65a0              STR      r0,[r4,#0x58]
                  |L16.234|
;;;2440               }
;;;2441             }
;;;2442           }
;;;2443         }
;;;2444       }
;;;2445   
;;;2446       /* Injected Conversion complete callback */
;;;2447       /* Note:  HAL_ADCEx_InjectedConvCpltCallback can resort to
;;;2448                 if (__HAL_ADC_GET_FLAG(&hadc, ADC_FLAG_JEOS)) or
;;;2449                 if (__HAL_ADC_GET_FLAG(&hadc, ADC_FLAG_JEOC)) to determine whether
;;;2450                 interruption has been triggered by end of conversion or end of
;;;2451                 sequence.    */
;;;2452   #if (USE_HAL_ADC_REGISTER_CALLBACKS == 1)
;;;2453       hadc->InjectedConvCpltCallback(hadc);
;;;2454   #else
;;;2455       HAL_ADCEx_InjectedConvCpltCallback(hadc);
0000ea  4620              MOV      r0,r4
0000ec  f7fffffe          BL       HAL_ADCEx_InjectedConvCpltCallback
;;;2456   #endif /* USE_HAL_ADC_REGISTER_CALLBACKS */
;;;2457   
;;;2458       /* Clear injected group conversion flag */
;;;2459       __HAL_ADC_CLEAR_FLAG(hadc, ADC_FLAG_JEOC | ADC_FLAG_JEOS);
0000f0  6821              LDR      r1,[r4,#0]
0000f2  2060              MOVS     r0,#0x60
0000f4  6008              STR      r0,[r1,#0]
                  |L16.246|
;;;2460     }
;;;2461   
;;;2462     /* ========== Check Analog watchdog 1 flag ========== */
;;;2463     if (((tmp_isr & ADC_FLAG_AWD1) == ADC_FLAG_AWD1) && ((tmp_ier & ADC_IT_AWD1) == ADC_IT_AWD1))
0000f6  0630              LSLS     r0,r6,#24
0000f8  d50b              BPL      |L16.274|
0000fa  0628              LSLS     r0,r5,#24
0000fc  d509              BPL      |L16.274|
;;;2464     {
;;;2465       /* Set ADC state */
;;;2466       SET_BIT(hadc->State, HAL_ADC_STATE_AWD1);
0000fe  6d60              LDR      r0,[r4,#0x54]
000100  f4403080          ORR      r0,r0,#0x10000
000104  6560              STR      r0,[r4,#0x54]
;;;2467   
;;;2468       /* Level out of window 1 callback */
;;;2469   #if (USE_HAL_ADC_REGISTER_CALLBACKS == 1)
;;;2470       hadc->LevelOutOfWindowCallback(hadc);
;;;2471   #else
;;;2472       HAL_ADC_LevelOutOfWindowCallback(hadc);
000106  4620              MOV      r0,r4
000108  f7fffffe          BL       HAL_ADC_LevelOutOfWindowCallback
;;;2473   #endif /* USE_HAL_ADC_REGISTER_CALLBACKS */
;;;2474   
;;;2475       /* Clear ADC analog watchdog flag */
;;;2476       __HAL_ADC_CLEAR_FLAG(hadc, ADC_FLAG_AWD1);
00010c  6821              LDR      r1,[r4,#0]
00010e  2080              MOVS     r0,#0x80
000110  6008              STR      r0,[r1,#0]
                  |L16.274|
;;;2477     }
;;;2478   
;;;2479     /* ========== Check analog watchdog 2 flag ========== */
;;;2480     if (((tmp_isr & ADC_FLAG_AWD2) == ADC_FLAG_AWD2) && ((tmp_ier & ADC_IT_AWD2) == ADC_IT_AWD2))
000112  05f0              LSLS     r0,r6,#23
000114  d50c              BPL      |L16.304|
000116  05e8              LSLS     r0,r5,#23
000118  d50a              BPL      |L16.304|
;;;2481     {
;;;2482       /* Set ADC state */
;;;2483       SET_BIT(hadc->State, HAL_ADC_STATE_AWD2);
00011a  6d60              LDR      r0,[r4,#0x54]
00011c  f4403000          ORR      r0,r0,#0x20000
000120  6560              STR      r0,[r4,#0x54]
;;;2484   
;;;2485       /* Level out of window 2 callback */
;;;2486   #if (USE_HAL_ADC_REGISTER_CALLBACKS == 1)
;;;2487       hadc->LevelOutOfWindow2Callback(hadc);
;;;2488   #else
;;;2489       HAL_ADCEx_LevelOutOfWindow2Callback(hadc);
000122  4620              MOV      r0,r4
000124  f7fffffe          BL       HAL_ADCEx_LevelOutOfWindow2Callback
;;;2490   #endif /* USE_HAL_ADC_REGISTER_CALLBACKS */
;;;2491   
;;;2492       /* Clear ADC analog watchdog flag */
;;;2493       __HAL_ADC_CLEAR_FLAG(hadc, ADC_FLAG_AWD2);
000128  6821              LDR      r1,[r4,#0]
00012a  f44f7080          MOV      r0,#0x100
00012e  6008              STR      r0,[r1,#0]
                  |L16.304|
;;;2494     }
;;;2495   
;;;2496     /* ========== Check analog watchdog 3 flag ========== */
;;;2497     if (((tmp_isr & ADC_FLAG_AWD3) == ADC_FLAG_AWD3) && ((tmp_ier & ADC_IT_AWD3) == ADC_IT_AWD3))
000130  05b0              LSLS     r0,r6,#22
000132  d50c              BPL      |L16.334|
000134  05a8              LSLS     r0,r5,#22
000136  d50a              BPL      |L16.334|
;;;2498     {
;;;2499       /* Set ADC state */
;;;2500       SET_BIT(hadc->State, HAL_ADC_STATE_AWD3);
000138  6d60              LDR      r0,[r4,#0x54]
00013a  f4402080          ORR      r0,r0,#0x40000
00013e  6560              STR      r0,[r4,#0x54]
;;;2501   
;;;2502       /* Level out of window 3 callback */
;;;2503   #if (USE_HAL_ADC_REGISTER_CALLBACKS == 1)
;;;2504       hadc->LevelOutOfWindow3Callback(hadc);
;;;2505   #else
;;;2506       HAL_ADCEx_LevelOutOfWindow3Callback(hadc);
000140  4620              MOV      r0,r4
000142  f7fffffe          BL       HAL_ADCEx_LevelOutOfWindow3Callback
;;;2507   #endif /* USE_HAL_ADC_REGISTER_CALLBACKS */
;;;2508   
;;;2509       /* Clear ADC analog watchdog flag */
;;;2510       __HAL_ADC_CLEAR_FLAG(hadc, ADC_FLAG_AWD3);
000146  6821              LDR      r1,[r4,#0]
000148  f44f7000          MOV      r0,#0x200
00014c  6008              STR      r0,[r1,#0]
                  |L16.334|
;;;2511     }
;;;2512   
;;;2513     /* ========== Check Overrun flag ========== */
;;;2514     if (((tmp_isr & ADC_FLAG_OVR) == ADC_FLAG_OVR) && ((tmp_ier & ADC_IT_OVR) == ADC_IT_OVR))
00014e  06f0              LSLS     r0,r6,#27
000150  d517              BPL      |L16.386|
000152  06e8              LSLS     r0,r5,#27
000154  d515              BPL      |L16.386|
;;;2515     {
;;;2516       /* If overrun is set to overwrite previous data (default setting),        */
;;;2517       /* overrun event is not considered as an error.                           */
;;;2518       /* (cf ref manual "Managing conversions without using the DMA and without */
;;;2519       /* overrun ")                                                             */
;;;2520       /* Exception for usage with DMA overrun event always considered as an     */
;;;2521       /* error.                                                                 */
;;;2522       if (hadc->Init.Overrun == ADC_OVR_DATA_PRESERVED)
000156  6b60              LDR      r0,[r4,#0x34]
000158  b118              CBZ      r0,|L16.354|
;;;2523       {
;;;2524         overrun_error = 1UL;
;;;2525       }
;;;2526       else
;;;2527       {
;;;2528         /* Check DMA configuration */
;;;2529   #if defined(ADC_MULTIMODE_SUPPORT)
;;;2530         if (tmp_multimode_config != LL_ADC_MULTI_INDEPENDENT)
;;;2531         {
;;;2532           /* Multimode (when feature is available) is enabled,
;;;2533              Common Control Register MDMA bits must be checked. */
;;;2534           if (LL_ADC_GetMultiDMATransfer(__LL_ADC_COMMON_INSTANCE(hadc->Instance)) != LL_ADC_MULTI_REG_DMA_EACH_ADC)
;;;2535           {
;;;2536             overrun_error = 1UL;
;;;2537           }
;;;2538         }
;;;2539         else
;;;2540   #endif
;;;2541         {
;;;2542           /* Multimode not set or feature not available or ADC independent */
;;;2543           if ((hadc->Instance->CFGR & ADC_CFGR_DMAEN) != 0UL)
00015a  6820              LDR      r0,[r4,#0]
00015c  68c0              LDR      r0,[r0,#0xc]
00015e  07c0              LSLS     r0,r0,#31
000160  d00c              BEQ      |L16.380|
                  |L16.354|
;;;2544           {
;;;2545             overrun_error = 1UL;
;;;2546           }
;;;2547         }
;;;2548       }
;;;2549   
;;;2550       if (overrun_error == 1UL)
;;;2551       {
;;;2552         /* Change ADC state to error state */
;;;2553         SET_BIT(hadc->State, HAL_ADC_STATE_REG_OVR);
000162  6d60              LDR      r0,[r4,#0x54]
000164  e000              B        |L16.360|
                  |L16.358|
000166  e024              B        |L16.434|
                  |L16.360|
000168  f4406080          ORR      r0,r0,#0x400
00016c  6560              STR      r0,[r4,#0x54]
;;;2554   
;;;2555         /* Set ADC error code to overrun */
;;;2556         SET_BIT(hadc->ErrorCode, HAL_ADC_ERROR_OVR);
00016e  6da0              LDR      r0,[r4,#0x58]
000170  f0400002          ORR      r0,r0,#2
000174  65a0              STR      r0,[r4,#0x58]
;;;2557   
;;;2558         /* Error callback */
;;;2559         /* Note: In case of overrun, ADC conversion data is preserved until     */
;;;2560         /*       flag OVR is reset.                                             */
;;;2561         /*       Therefore, old ADC conversion data can be retrieved in         */
;;;2562         /*       function "HAL_ADC_ErrorCallback()".                            */
;;;2563   #if (USE_HAL_ADC_REGISTER_CALLBACKS == 1)
;;;2564         hadc->ErrorCallback(hadc);
;;;2565   #else
;;;2566         HAL_ADC_ErrorCallback(hadc);
000176  4620              MOV      r0,r4
000178  f7fffffe          BL       HAL_ADC_ErrorCallback
                  |L16.380|
;;;2567   #endif /* USE_HAL_ADC_REGISTER_CALLBACKS */
;;;2568       }
;;;2569   
;;;2570       /* Clear ADC overrun flag */
;;;2571       __HAL_ADC_CLEAR_FLAG(hadc, ADC_FLAG_OVR);
00017c  6821              LDR      r1,[r4,#0]
00017e  2010              MOVS     r0,#0x10
000180  6008              STR      r0,[r1,#0]
                  |L16.386|
;;;2572     }
;;;2573   
;;;2574     /* ========== Check Injected context queue overflow flag ========== */
;;;2575     if (((tmp_isr & ADC_FLAG_JQOVF) == ADC_FLAG_JQOVF) && ((tmp_ier & ADC_IT_JQOVF) == ADC_IT_JQOVF))
000182  0570              LSLS     r0,r6,#21
000184  d53b              BPL      |L16.510|
000186  0568              LSLS     r0,r5,#21
000188  d539              BPL      |L16.510|
;;;2576     {
;;;2577       /* Change ADC state to overrun state */
;;;2578       SET_BIT(hadc->State, HAL_ADC_STATE_INJ_JQOVF);
00018a  6d60              LDR      r0,[r4,#0x54]
00018c  f4404080          ORR      r0,r0,#0x4000
000190  6560              STR      r0,[r4,#0x54]
;;;2579   
;;;2580       /* Set ADC error code to Injected context queue overflow */
;;;2581       SET_BIT(hadc->ErrorCode, HAL_ADC_ERROR_JQOVF);
000192  6da0              LDR      r0,[r4,#0x58]
000194  f0400008          ORR      r0,r0,#8
000198  65a0              STR      r0,[r4,#0x58]
;;;2582   
;;;2583       /* Clear the Injected context queue overflow flag */
;;;2584       __HAL_ADC_CLEAR_FLAG(hadc, ADC_FLAG_JQOVF);
00019a  6821              LDR      r1,[r4,#0]
00019c  f44f6080          MOV      r0,#0x400
0001a0  6008              STR      r0,[r1,#0]
;;;2585   
;;;2586       /* Injected context queue overflow callback */
;;;2587   #if (USE_HAL_ADC_REGISTER_CALLBACKS == 1)
;;;2588       hadc->InjectedQueueOverflowCallback(hadc);
;;;2589   #else
;;;2590       HAL_ADCEx_InjectedQueueOverflowCallback(hadc);
0001a2  4620              MOV      r0,r4
0001a4  e8bd41f0          POP      {r4-r8,lr}
0001a8  e001              B        |L16.430|
                  |L16.426|
0001aa  e014              B        |L16.470|
0001ac  e015              B        |L16.474|
                  |L16.430|
0001ae  f7ffbffe          B.W      HAL_ADCEx_InjectedQueueOverflowCallback
                  |L16.434|
0001b2  6820              LDR      r0,[r4,#0]            ;2320
0001b4  6841              LDR      r1,[r0,#4]            ;2320
0001b6  f021010c          BIC      r1,r1,#0xc            ;2320
0001ba  6041              STR      r1,[r0,#4]            ;2320
0001bc  6d60              LDR      r0,[r4,#0x54]         ;2323
0001be  f4207080          BIC      r0,r0,#0x100          ;2323
0001c2  6560              STR      r0,[r4,#0x54]         ;2323
0001c4  6d60              LDR      r0,[r4,#0x54]         ;2325
0001c6  04c0              LSLS     r0,r0,#19             ;2325
0001c8  f53faf57          BMI      |L16.122|
0001cc  6d60              LDR      r0,[r4,#0x54]         ;2327
0001ce  f0400001          ORR      r0,r0,#1              ;2327
0001d2  6560              STR      r0,[r4,#0x54]         ;2327
0001d4  e751              B        |L16.122|
                  |L16.470|
0001d6  2701              MOVS     r7,#1                 ;2327
0001d8  e76a              B        |L16.176|
                  |L16.474|
0001da  6820              LDR      r0,[r4,#0]            ;2423
0001dc  6841              LDR      r1,[r0,#4]            ;2423
0001de  f0210160          BIC      r1,r1,#0x60           ;2423
0001e2  6041              STR      r1,[r0,#4]            ;2423
0001e4  6d60              LDR      r0,[r4,#0x54]         ;2426
0001e6  f4205080          BIC      r0,r0,#0x1000         ;2426
0001ea  6560              STR      r0,[r4,#0x54]         ;2426
0001ec  6d60              LDR      r0,[r4,#0x54]         ;2428
0001ee  05c0              LSLS     r0,r0,#23             ;2428
0001f0  f53faf7b          BMI      |L16.234|
0001f4  6d60              LDR      r0,[r4,#0x54]         ;2430
0001f6  f0400001          ORR      r0,r0,#1              ;2430
0001fa  6560              STR      r0,[r4,#0x54]         ;2430
0001fc  e775              B        |L16.234|
                  |L16.510|
;;;2591   #endif /* USE_HAL_ADC_REGISTER_CALLBACKS */
;;;2592     }
;;;2593   
;;;2594   }
0001fe  e8bd81f0          POP      {r4-r8,pc}
;;;2595   
                          ENDP


                          AREA ||i.HAL_ADC_Init||, CODE, READONLY, ALIGN=2

                  HAL_ADC_Init PROC
;;;392      */
;;;393    HAL_StatusTypeDef HAL_ADC_Init(ADC_HandleTypeDef *hadc)
000000  b5f8              PUSH     {r3-r7,lr}
;;;394    {
;;;395      HAL_StatusTypeDef tmp_hal_status = HAL_OK;
000002  f04f0500          MOV      r5,#0
000006  0004              MOVS     r4,r0                 ;394
;;;396      uint32_t tmpCFGR;
;;;397      uint32_t tmp_adc_reg_is_conversion_on_going;
;;;398      __IO uint32_t wait_loop_index = 0UL;
000008  462e              MOV      r6,r5
00000a  9500              STR      r5,[sp,#0]            ;394
00000c  d002              BEQ      |L17.20|
;;;399      uint32_t tmp_adc_is_conversion_on_going_regular;
;;;400      uint32_t tmp_adc_is_conversion_on_going_injected;
;;;401    
;;;402      /* Check ADC handle */
;;;403      if (hadc == NULL)
;;;404      {
;;;405        return HAL_ERROR;
;;;406      }
;;;407    
;;;408      /* Check the parameters */
;;;409      assert_param(IS_ADC_ALL_INSTANCE(hadc->Instance));
;;;410      assert_param(IS_ADC_CLOCKPRESCALER(hadc->Init.ClockPrescaler));
;;;411      assert_param(IS_ADC_RESOLUTION(hadc->Init.Resolution));
;;;412    #if defined(ADC_CFGR_DFSDMCFG) &&defined(DFSDM1_Channel0)
;;;413      assert_param(IS_ADC_DFSDMCFG_MODE(hadc));
;;;414    #endif
;;;415      assert_param(IS_ADC_DATA_ALIGN(hadc->Init.DataAlign));
;;;416      assert_param(IS_ADC_SCAN_MODE(hadc->Init.ScanConvMode));
;;;417      assert_param(IS_FUNCTIONAL_STATE(hadc->Init.ContinuousConvMode));
;;;418      assert_param(IS_ADC_EXTTRIG_EDGE(hadc->Init.ExternalTrigConvEdge));
;;;419      assert_param(IS_ADC_EXTTRIG(hadc, hadc->Init.ExternalTrigConv));
;;;420      assert_param(IS_FUNCTIONAL_STATE(hadc->Init.DMAContinuousRequests));
;;;421      assert_param(IS_ADC_EOC_SELECTION(hadc->Init.EOCSelection));
;;;422      assert_param(IS_ADC_OVERRUN(hadc->Init.Overrun));
;;;423      assert_param(IS_FUNCTIONAL_STATE(hadc->Init.LowPowerAutoWait));
;;;424      assert_param(IS_FUNCTIONAL_STATE(hadc->Init.OversamplingMode));
;;;425    
;;;426      if (hadc->Init.ScanConvMode != ADC_SCAN_DISABLE)
;;;427      {
;;;428        assert_param(IS_ADC_REGULAR_NB_CONV(hadc->Init.NbrOfConversion));
;;;429        assert_param(IS_FUNCTIONAL_STATE(hadc->Init.DiscontinuousConvMode));
;;;430    
;;;431        if (hadc->Init.DiscontinuousConvMode == ENABLE)
;;;432        {
;;;433          assert_param(IS_ADC_REGULAR_DISCONT_NUMBER(hadc->Init.NbrOfDiscConversion));
;;;434        }
;;;435      }
;;;436    
;;;437      /* DISCEN and CONT bits cannot be set at the same time */
;;;438      assert_param(!((hadc->Init.DiscontinuousConvMode == ENABLE) && (hadc->Init.ContinuousConvMode == ENABLE)));
;;;439    
;;;440      /* Actions performed only if ADC is coming from state reset:                */
;;;441      /* - Initialization of ADC MSP                                              */
;;;442      if (hadc->State == HAL_ADC_STATE_RESET)
00000e  6d60              LDR      r0,[r4,#0x54]
000010  b110              CBZ      r0,|L17.24|
000012  e007              B        |L17.36|
                  |L17.20|
000014  2001              MOVS     r0,#1                 ;405
;;;443      {
;;;444    #if (USE_HAL_ADC_REGISTER_CALLBACKS == 1)
;;;445        /* Init the ADC Callback settings */
;;;446        hadc->ConvCpltCallback              = HAL_ADC_ConvCpltCallback;                 /* Legacy weak callback */
;;;447        hadc->ConvHalfCpltCallback          = HAL_ADC_ConvHalfCpltCallback;             /* Legacy weak callback */
;;;448        hadc->LevelOutOfWindowCallback      = HAL_ADC_LevelOutOfWindowCallback;         /* Legacy weak callback */
;;;449        hadc->ErrorCallback                 = HAL_ADC_ErrorCallback;                    /* Legacy weak callback */
;;;450        hadc->InjectedConvCpltCallback      = HAL_ADCEx_InjectedConvCpltCallback;       /* Legacy weak callback */
;;;451        hadc->InjectedQueueOverflowCallback = HAL_ADCEx_InjectedQueueOverflowCallback;  /* Legacy weak callback */
;;;452        hadc->LevelOutOfWindow2Callback     = HAL_ADCEx_LevelOutOfWindow2Callback;      /* Legacy weak callback */
;;;453        hadc->LevelOutOfWindow3Callback     = HAL_ADCEx_LevelOutOfWindow3Callback;      /* Legacy weak callback */
;;;454        hadc->EndOfSamplingCallback         = HAL_ADCEx_EndOfSamplingCallback;          /* Legacy weak callback */
;;;455    
;;;456        if (hadc->MspInitCallback == NULL)
;;;457        {
;;;458          hadc->MspInitCallback = HAL_ADC_MspInit; /* Legacy weak MspInit  */
;;;459        }
;;;460    
;;;461        /* Init the low level hardware */
;;;462        hadc->MspInitCallback(hadc);
;;;463    #else
;;;464        /* Init the low level hardware */
;;;465        HAL_ADC_MspInit(hadc);
;;;466    #endif /* USE_HAL_ADC_REGISTER_CALLBACKS */
;;;467    
;;;468        /* Set ADC error code to none */
;;;469        ADC_CLEAR_ERRORCODE(hadc);
;;;470    
;;;471        /* Initialize Lock */
;;;472        hadc->Lock = HAL_UNLOCKED;
;;;473      }
;;;474    
;;;475      /* - Exit from deep-power-down mode and ADC voltage regulator enable        */
;;;476      if (LL_ADC_IsDeepPowerDownEnabled(hadc->Instance) != 0UL)
;;;477      {
;;;478        /* Disable ADC deep power down mode */
;;;479        LL_ADC_DisableDeepPowerDown(hadc->Instance);
;;;480    
;;;481        /* System was in deep power down mode, calibration must
;;;482         be relaunched or a previously saved calibration factor
;;;483         re-applied once the ADC voltage regulator is enabled */
;;;484      }
;;;485    
;;;486      if (LL_ADC_IsInternalRegulatorEnabled(hadc->Instance) == 0UL)
;;;487      {
;;;488        /* Enable ADC internal voltage regulator */
;;;489        LL_ADC_EnableInternalRegulator(hadc->Instance);
;;;490    
;;;491        /* Note: Variable divided by 2 to compensate partially              */
;;;492        /*       CPU processing cycles, scaling in us split to not          */
;;;493        /*       exceed 32 bits register capacity and handle low frequency. */
;;;494        wait_loop_index = ((LL_ADC_DELAY_INTERNAL_REGUL_STAB_US / 10UL) * ((SystemCoreClock / (100000UL * 2UL)) + 1UL));
;;;495        while (wait_loop_index != 0UL)
;;;496        {
;;;497          wait_loop_index--;
;;;498        }
;;;499      }
;;;500    
;;;501      /* Verification that ADC voltage regulator is correctly enabled, whether    */
;;;502      /* or not ADC is coming from state reset (if any potential problem of       */
;;;503      /* clocking, voltage regulator would not be enabled).                       */
;;;504      if (LL_ADC_IsInternalRegulatorEnabled(hadc->Instance) == 0UL)
;;;505      {
;;;506        /* Update ADC state machine to error */
;;;507        SET_BIT(hadc->State, HAL_ADC_STATE_ERROR_INTERNAL);
;;;508    
;;;509        /* Set ADC error code to ADC peripheral internal error */
;;;510        SET_BIT(hadc->ErrorCode, HAL_ADC_ERROR_INTERNAL);
;;;511    
;;;512        tmp_hal_status = HAL_ERROR;
;;;513      }
;;;514    
;;;515      /* Configuration of ADC parameters if previous preliminary actions are      */
;;;516      /* correctly completed and if there is no conversion on going on regular    */
;;;517      /* group (ADC may already be enabled at this point if HAL_ADC_Init() is     */
;;;518      /* called to update a parameter on the fly).                                */
;;;519      tmp_adc_reg_is_conversion_on_going = LL_ADC_REG_IsConversionOngoing(hadc->Instance);
;;;520    
;;;521      if (((hadc->State & HAL_ADC_STATE_ERROR_INTERNAL) == 0UL)
;;;522          && (tmp_adc_reg_is_conversion_on_going == 0UL)
;;;523         )
;;;524      {
;;;525        /* Set ADC state */
;;;526        ADC_STATE_CLR_SET(hadc->State,
;;;527                          HAL_ADC_STATE_REG_BUSY,
;;;528                          HAL_ADC_STATE_BUSY_INTERNAL);
;;;529    
;;;530        /* Configuration of common ADC parameters                                 */
;;;531    
;;;532        /* Parameters update conditioned to ADC state:                            */
;;;533        /* Parameters that can be updated only when ADC is disabled:              */
;;;534        /*  - clock configuration                                                 */
;;;535        if (LL_ADC_IsEnabled(hadc->Instance) == 0UL)
;;;536        {
;;;537          if (__LL_ADC_IS_ENABLED_ALL_COMMON_INSTANCE(__LL_ADC_COMMON_INSTANCE(hadc->Instance)) == 0UL)
;;;538          {
;;;539            /* Reset configuration of ADC common register CCR:                      */
;;;540            /*                                                                      */
;;;541            /*   - ADC clock mode and ACC prescaler (CKMODE and PRESC bits)are set  */
;;;542            /*     according to adc->Init.ClockPrescaler. It selects the clock      */
;;;543            /*    source and sets the clock division factor.                        */
;;;544            /*                                                                      */
;;;545            /* Some parameters of this register are not reset, since they are set   */
;;;546            /* by other functions and must be kept in case of usage of this         */
;;;547            /* function on the fly (update of a parameter of ADC_InitTypeDef        */
;;;548            /* without needing to reconfigure all other ADC groups/channels         */
;;;549            /* parameters):                                                         */
;;;550            /*   - when multimode feature is available, multimode-related           */
;;;551            /*     parameters: MDMA, DMACFG, DELAY, DUAL (set by API                */
;;;552            /*     HAL_ADCEx_MultiModeConfigChannel() )                             */
;;;553            /*   - internal measurement paths: Vbat, temperature sensor, Vref       */
;;;554            /*     (set into HAL_ADC_ConfigChannel() or                             */
;;;555            /*     HAL_ADCEx_InjectedConfigChannel() )                              */
;;;556            LL_ADC_SetCommonClock(__LL_ADC_COMMON_INSTANCE(hadc->Instance), hadc->Init.ClockPrescaler);
;;;557          }
;;;558        }
;;;559    
;;;560        /* Configuration of ADC:                                                  */
;;;561        /*  - resolution                               Init.Resolution            */
;;;562        /*  - data alignment                           Init.DataAlign             */
;;;563        /*  - external trigger to start conversion     Init.ExternalTrigConv      */
;;;564        /*  - external trigger polarity                Init.ExternalTrigConvEdge  */
;;;565        /*  - continuous conversion mode               Init.ContinuousConvMode    */
;;;566        /*  - overrun                                  Init.Overrun               */
;;;567        /*  - discontinuous mode                       Init.DiscontinuousConvMode */
;;;568        /*  - discontinuous mode channel count         Init.NbrOfDiscConversion   */
;;;569        tmpCFGR  = (ADC_CFGR_CONTINUOUS((uint32_t)hadc->Init.ContinuousConvMode)           |
;;;570                    hadc->Init.Overrun                                                     |
;;;571                    hadc->Init.DataAlign                                                   |
;;;572                    hadc->Init.Resolution                                                  |
;;;573                    ADC_CFGR_REG_DISCONTINUOUS((uint32_t)hadc->Init.DiscontinuousConvMode));
;;;574    
;;;575        if (hadc->Init.DiscontinuousConvMode == ENABLE)
;;;576        {
;;;577          tmpCFGR |= ADC_CFGR_DISCONTINUOUS_NUM(hadc->Init.NbrOfDiscConversion);
;;;578        }
;;;579    
;;;580        /* Enable external trigger if trigger selection is different of software  */
;;;581        /* start.                                                                 */
;;;582        /* Note: This configuration keeps the hardware feature of parameter       */
;;;583        /*       ExternalTrigConvEdge "trigger edge none" equivalent to           */
;;;584        /*       software start.                                                  */
;;;585        if (hadc->Init.ExternalTrigConv != ADC_SOFTWARE_START)
;;;586        {
;;;587          tmpCFGR |= ((hadc->Init.ExternalTrigConv & ADC_CFGR_EXTSEL)
;;;588                      | hadc->Init.ExternalTrigConvEdge
;;;589                     );
;;;590        }
;;;591    
;;;592        /* Update Configuration Register CFGR */
;;;593        MODIFY_REG(hadc->Instance->CFGR, ADC_CFGR_FIELDS_1, tmpCFGR);
;;;594    
;;;595        /* Parameters update conditioned to ADC state:                            */
;;;596        /* Parameters that can be updated when ADC is disabled or enabled without */
;;;597        /* conversion on going on regular and injected groups:                    */
;;;598        /*  - DMA continuous request          Init.DMAContinuousRequests          */
;;;599        /*  - LowPowerAutoWait feature        Init.LowPowerAutoWait               */
;;;600        /*  - Oversampling parameters         Init.Oversampling                   */
;;;601        tmp_adc_is_conversion_on_going_regular = LL_ADC_REG_IsConversionOngoing(hadc->Instance);
;;;602        tmp_adc_is_conversion_on_going_injected = LL_ADC_INJ_IsConversionOngoing(hadc->Instance);
;;;603        if ((tmp_adc_is_conversion_on_going_regular == 0UL)
;;;604            && (tmp_adc_is_conversion_on_going_injected == 0UL)
;;;605           )
;;;606        {
;;;607          tmpCFGR = (ADC_CFGR_DFSDM(hadc)                                            |
;;;608                     ADC_CFGR_AUTOWAIT((uint32_t)hadc->Init.LowPowerAutoWait)        |
;;;609                     ADC_CFGR_DMACONTREQ((uint32_t)hadc->Init.DMAContinuousRequests));
;;;610    
;;;611          MODIFY_REG(hadc->Instance->CFGR, ADC_CFGR_FIELDS_2, tmpCFGR);
;;;612    
;;;613          if (hadc->Init.OversamplingMode == ENABLE)
;;;614          {
;;;615            assert_param(IS_ADC_OVERSAMPLING_RATIO(hadc->Init.Oversampling.Ratio));
;;;616            assert_param(IS_ADC_RIGHT_BIT_SHIFT(hadc->Init.Oversampling.RightBitShift));
;;;617            assert_param(IS_ADC_TRIGGERED_OVERSAMPLING_MODE(hadc->Init.Oversampling.TriggeredMode));
;;;618            assert_param(IS_ADC_REGOVERSAMPLING_MODE(hadc->Init.Oversampling.OversamplingStopReset));
;;;619    
;;;620            /* Configuration of Oversampler:                                      */
;;;621            /*  - Oversampling Ratio                                              */
;;;622            /*  - Right bit shift                                                 */
;;;623            /*  - Triggered mode                                                  */
;;;624            /*  - Oversampling mode (continued/resumed)                           */
;;;625            MODIFY_REG(hadc->Instance->CFGR2,
;;;626                       ADC_CFGR2_OVSR  |
;;;627                       ADC_CFGR2_OVSS  |
;;;628                       ADC_CFGR2_TROVS |
;;;629                       ADC_CFGR2_ROVSM,
;;;630                       ADC_CFGR2_ROVSE                       |
;;;631                       hadc->Init.Oversampling.Ratio         |
;;;632                       hadc->Init.Oversampling.RightBitShift |
;;;633                       hadc->Init.Oversampling.TriggeredMode |
;;;634                       hadc->Init.Oversampling.OversamplingStopReset
;;;635                      );
;;;636          }
;;;637          else
;;;638          {
;;;639            /* Disable ADC oversampling scope on ADC group regular */
;;;640            CLEAR_BIT(hadc->Instance->CFGR2, ADC_CFGR2_ROVSE);
;;;641          }
;;;642    
;;;643        }
;;;644    
;;;645        /* Configuration of regular group sequencer:                              */
;;;646        /* - if scan mode is disabled, regular channels sequence length is set to */
;;;647        /*   0x00: 1 channel converted (channel on regular rank 1)                */
;;;648        /*   Parameter "NbrOfConversion" is discarded.                            */
;;;649        /*   Note: Scan mode is not present by hardware on this device, but       */
;;;650        /*   emulated by software for alignment over all STM32 devices.           */
;;;651        /* - if scan mode is enabled, regular channels sequence length is set to  */
;;;652        /*   parameter "NbrOfConversion".                                         */
;;;653    
;;;654        if (hadc->Init.ScanConvMode == ADC_SCAN_ENABLE)
;;;655        {
;;;656          /* Set number of ranks in regular group sequencer */
;;;657          MODIFY_REG(hadc->Instance->SQR1, ADC_SQR1_L, (hadc->Init.NbrOfConversion - (uint8_t)1));
;;;658        }
;;;659        else
;;;660        {
;;;661          CLEAR_BIT(hadc->Instance->SQR1, ADC_SQR1_L);
;;;662        }
;;;663    
;;;664        /* Initialize the ADC state */
;;;665        /* Clear HAL_ADC_STATE_BUSY_INTERNAL bit, set HAL_ADC_STATE_READY bit */
;;;666        ADC_STATE_CLR_SET(hadc->State, HAL_ADC_STATE_BUSY_INTERNAL, HAL_ADC_STATE_READY);
;;;667      }
;;;668      else
;;;669      {
;;;670        /* Update ADC state machine to error */
;;;671        SET_BIT(hadc->State, HAL_ADC_STATE_ERROR_INTERNAL);
;;;672    
;;;673        tmp_hal_status = HAL_ERROR;
;;;674      }
;;;675    
;;;676      /* Return function status */
;;;677      return tmp_hal_status;
;;;678    }
000016  bdf8              POP      {r3-r7,pc}
                  |L17.24|
000018  4620              MOV      r0,r4                 ;465
00001a  f7fffffe          BL       HAL_ADC_MspInit
00001e  65a6              STR      r6,[r4,#0x58]         ;469
000020  f8846050          STRB     r6,[r4,#0x50]         ;472
                  |L17.36|
000024  6820              LDR      r0,[r4,#0]            ;472
000026  6881              LDR      r1,[r0,#8]            ;472
000028  f3c17140          UBFX     r1,r1,#29,#1          ;472
00002c  b119              CBZ      r1,|L17.54|
00002e  6881              LDR      r1,[r0,#8]            ;476
000030  4a57              LDR      r2,|L17.400|
000032  4011              ANDS     r1,r1,r2              ;476
000034  6081              STR      r1,[r0,#8]            ;476
                  |L17.54|
000036  6820              LDR      r0,[r4,#0]            ;476
000038  6881              LDR      r1,[r0,#8]            ;476
00003a  f3c17100          UBFX     r1,r1,#28,#1          ;476
00003e  b989              CBNZ     r1,|L17.100|
000040  6881              LDR      r1,[r0,#8]            ;486
000042  4a54              LDR      r2,|L17.404|
000044  4011              ANDS     r1,r1,r2              ;486
000046  f0415180          ORR      r1,r1,#0x10000000     ;486
00004a  6081              STR      r1,[r0,#8]            ;486
00004c  4852              LDR      r0,|L17.408|
00004e  4953              LDR      r1,|L17.412|
000050  6800              LDR      r0,[r0,#0]            ;494  ; SystemCoreClock
000052  fbb0f0f1          UDIV     r0,r0,r1              ;494
000056  0040              LSLS     r0,r0,#1              ;494
000058  1c80              ADDS     r0,r0,#2              ;494
00005a  e000              B        |L17.94|
                  |L17.92|
00005c  1e40              SUBS     r0,r0,#1              ;495
                  |L17.94|
00005e  9000              STR      r0,[sp,#0]            ;494
000060  2800              CMP      r0,#0                 ;494
000062  d1fb              BNE      |L17.92|
                  |L17.100|
000064  6820              LDR      r0,[r4,#0]            ;494
000066  6881              LDR      r1,[r0,#8]            ;494
000068  f3c17100          UBFX     r1,r1,#28,#1          ;494
00006c  b941              CBNZ     r1,|L17.128|
00006e  6d61              LDR      r1,[r4,#0x54]         ;507
000070  f0410110          ORR      r1,r1,#0x10           ;507
000074  6561              STR      r1,[r4,#0x54]         ;507
000076  6da1              LDR      r1,[r4,#0x58]         ;510
000078  f0410101          ORR      r1,r1,#1              ;510
00007c  65a1              STR      r1,[r4,#0x58]         ;510
00007e  2501              MOVS     r5,#1                 ;512
                  |L17.128|
000080  f7fffffe          BL       LL_ADC_REG_IsConversionOngoing
000084  6d61              LDR      r1,[r4,#0x54]         ;521
000086  06c9              LSLS     r1,r1,#27             ;521
000088  d400              BMI      |L17.140|
00008a  b130              CBZ      r0,|L17.154|
                  |L17.140|
00008c  6d60              LDR      r0,[r4,#0x54]         ;671
00008e  f0400010          ORR      r0,r0,#0x10           ;671
000092  6560              STR      r0,[r4,#0x54]         ;671
000094  2501              MOVS     r5,#1                 ;673
                  |L17.150|
000096  4628              MOV      r0,r5                 ;677
000098  bdf8              POP      {r3-r7,pc}
                  |L17.154|
00009a  6d60              LDR      r0,[r4,#0x54]         ;526
00009c  f4207080          BIC      r0,r0,#0x100          ;526
0000a0  f0400002          ORR      r0,r0,#2              ;526
0000a4  6560              STR      r0,[r4,#0x54]         ;526
0000a6  6820              LDR      r0,[r4,#0]            ;526
0000a8  6880              LDR      r0,[r0,#8]            ;526
0000aa  f0100f01          TST      r0,#1                 ;526
0000ae  d10b              BNE      |L17.200|
0000b0  483b              LDR      r0,|L17.416|
0000b2  6880              LDR      r0,[r0,#8]            ;535
0000b4  f0100f01          TST      r0,#1                 ;535
0000b8  d106              BNE      |L17.200|
0000ba  483a              LDR      r0,|L17.420|
0000bc  6861              LDR      r1,[r4,#4]            ;537
0000be  6882              LDR      r2,[r0,#8]            ;537
0000c0  f422127c          BIC      r2,r2,#0x3f0000       ;537
0000c4  430a              ORRS     r2,r2,r1              ;537
0000c6  6082              STR      r2,[r0,#8]            ;537
                  |L17.200|
0000c8  68e1              LDR      r1,[r4,#0xc]          ;569
0000ca  6b60              LDR      r0,[r4,#0x34]         ;569
0000cc  7e62              LDRB     r2,[r4,#0x19]         ;569
0000ce  4308              ORRS     r0,r0,r1              ;569
0000d0  68a1              LDR      r1,[r4,#8]            ;569
0000d2  ea413142          ORR      r1,r1,r2,LSL #13      ;569
0000d6  4308              ORRS     r0,r0,r1              ;569
0000d8  f8941020          LDRB     r1,[r4,#0x20]         ;569
0000dc  ea404001          ORR      r0,r0,r1,LSL #16      ;569
0000e0  2901              CMP      r1,#1                 ;575
0000e2  d104              BNE      |L17.238|
0000e4  8ca1              LDRH     r1,[r4,#0x24]         ;577
0000e6  4a30              LDR      r2,|L17.424|
0000e8  eb024141          ADD      r1,r2,r1,LSL #17      ;577
0000ec  4308              ORRS     r0,r0,r1              ;577
                  |L17.238|
0000ee  6aa1              LDR      r1,[r4,#0x28]         ;585
0000f0  b129              CBZ      r1,|L17.254|
0000f2  f4017170          AND      r1,r1,#0x3c0          ;587
0000f6  6ae2              LDR      r2,[r4,#0x2c]         ;587
0000f8  4301              ORRS     r1,r1,r0              ;587
0000fa  ea420001          ORR      r0,r2,r1              ;587
                  |L17.254|
0000fe  6821              LDR      r1,[r4,#0]            ;593
000100  68ca              LDR      r2,[r1,#0xc]          ;593
000102  4b2a              LDR      r3,|L17.428|
000104  401a              ANDS     r2,r2,r3              ;593
000106  4302              ORRS     r2,r2,r0              ;593
000108  60ca              STR      r2,[r1,#0xc]          ;593
00010a  6820              LDR      r0,[r4,#0]            ;601
00010c  f7fffffe          BL       LL_ADC_REG_IsConversionOngoing
000110  4606              MOV      r6,r0                 ;601
000112  6820              LDR      r0,[r4,#0]            ;602
000114  f7fffffe          BL       LL_ADC_INJ_IsConversionOngoing
000118  4330              ORRS     r0,r0,r6              ;603
00011a  d115              BNE      |L17.328|
00011c  7e20              LDRB     r0,[r4,#0x18]         ;607
00011e  f8941030          LDRB     r1,[r4,#0x30]         ;607
000122  0380              LSLS     r0,r0,#14             ;607
000124  ea400041          ORR      r0,r0,r1,LSL #1       ;607
000128  6821              LDR      r1,[r4,#0]            ;611
00012a  68ca              LDR      r2,[r1,#0xc]          ;611
00012c  f2440302          MOV      r3,#0x4002            ;611
000130  439a              BICS     r2,r2,r3              ;611
000132  4302              ORRS     r2,r2,r0              ;611
000134  60ca              STR      r2,[r1,#0xc]          ;611
000136  f8940038          LDRB     r0,[r4,#0x38]         ;613
00013a  2801              CMP      r0,#1                 ;613
00013c  d00c              BEQ      |L17.344|
00013e  6820              LDR      r0,[r4,#0]            ;640
000140  6901              LDR      r1,[r0,#0x10]         ;640
000142  f0210101          BIC      r1,r1,#1              ;640
000146  6101              STR      r1,[r0,#0x10]         ;640
                  |L17.328|
000148  6920              LDR      r0,[r4,#0x10]         ;654
00014a  2801              CMP      r0,#1                 ;654
00014c  6820              LDR      r0,[r4,#0]            ;661
00014e  6b01              LDR      r1,[r0,#0x30]         ;661
000150  f021010f          BIC      r1,r1,#0xf            ;661
000154  d011              BEQ      |L17.378|
000156  e013              B        |L17.384|
                  |L17.344|
000158  e9d4010f          LDRD     r0,r1,[r4,#0x3c]      ;654
00015c  4308              ORRS     r0,r0,r1              ;625
00015e  e9d41211          LDRD     r1,r2,[r4,#0x44]      ;625
000162  4311              ORRS     r1,r1,r2              ;625
000164  4308              ORRS     r0,r0,r1              ;625
000166  6821              LDR      r1,[r4,#0]            ;625
000168  690a              LDR      r2,[r1,#0x10]         ;625
00016a  f24073fc          MOV      r3,#0x7fc             ;625
00016e  439a              BICS     r2,r2,r3              ;625
000170  4310              ORRS     r0,r0,r2              ;625
000172  f0400001          ORR      r0,r0,#1              ;625
000176  6108              STR      r0,[r1,#0x10]         ;625
000178  e7e6              B        |L17.328|
                  |L17.378|
00017a  69e2              LDR      r2,[r4,#0x1c]         ;657
00017c  1e52              SUBS     r2,r2,#1              ;657
00017e  4311              ORRS     r1,r1,r2              ;657
                  |L17.384|
000180  6301              STR      r1,[r0,#0x30]         ;661
000182  6d60              LDR      r0,[r4,#0x54]         ;666
000184  f0200002          BIC      r0,r0,#2              ;666
000188  f0400001          ORR      r0,r0,#1              ;666
00018c  6560              STR      r0,[r4,#0x54]         ;666
00018e  e782              B        |L17.150|
;;;679    
                          ENDP

                  |L17.400|
                          DCD      0x5fffffc0
                  |L17.404|
                          DCD      0x7fffffc0
                  |L17.408|
                          DCD      SystemCoreClock
                  |L17.412|
                          DCD      0x00030d40
                  |L17.416|
                          DCD      0x50040000
                  |L17.420|
                          DCD      0x50040300
                  |L17.424|
                          DCD      0xfffe0000
                  |L17.428|
                          DCD      0xfff0c007

                          AREA ||i.HAL_ADC_LevelOutOfWindowCallback||, CODE, READONLY, ALIGN=1

                  HAL_ADC_LevelOutOfWindowCallback PROC
;;;2630     */
;;;2631   __weak void HAL_ADC_LevelOutOfWindowCallback(ADC_HandleTypeDef *hadc)
000000  4770              BX       lr
;;;2632   {
;;;2633     /* Prevent unused argument(s) compilation warning */
;;;2634     UNUSED(hadc);
;;;2635   
;;;2636     /* NOTE : This function should not be modified. When the callback is needed,
;;;2637               function HAL_ADC_LevelOutOfWindowCallback must be implemented in the user file.
;;;2638     */
;;;2639   }
;;;2640   
                          ENDP


                          AREA ||i.HAL_ADC_MspDeInit||, CODE, READONLY, ALIGN=1

                  HAL_ADC_MspDeInit PROC
;;;913      */
;;;914    __weak void HAL_ADC_MspDeInit(ADC_HandleTypeDef *hadc)
000000  4770              BX       lr
;;;915    {
;;;916      /* Prevent unused argument(s) compilation warning */
;;;917      UNUSED(hadc);
;;;918    
;;;919      /* NOTE : This function should not be modified. When the callback is needed,
;;;920                function HAL_ADC_MspDeInit must be implemented in the user file.
;;;921       */
;;;922    }
;;;923    
                          ENDP


                          AREA ||i.HAL_ADC_MspInit||, CODE, READONLY, ALIGN=1

                  HAL_ADC_MspInit PROC
;;;896      */
;;;897    __weak void HAL_ADC_MspInit(ADC_HandleTypeDef *hadc)
000000  4770              BX       lr
;;;898    {
;;;899      /* Prevent unused argument(s) compilation warning */
;;;900      UNUSED(hadc);
;;;901    
;;;902      /* NOTE : This function should not be modified. When the callback is needed,
;;;903                function HAL_ADC_MspInit must be implemented in the user file.
;;;904       */
;;;905    }
;;;906    
                          ENDP


                          AREA ||i.HAL_ADC_PollForConversion||, CODE, READONLY, ALIGN=1

                  HAL_ADC_PollForConversion PROC
;;;1392     */
;;;1393   HAL_StatusTypeDef HAL_ADC_PollForConversion(ADC_HandleTypeDef *hadc, uint32_t Timeout)
000000  e92d41f0          PUSH     {r4-r8,lr}
;;;1394   {
000004  4604              MOV      r4,r0
;;;1395     uint32_t tickstart;
;;;1396     uint32_t tmp_Flag_End;
;;;1397     uint32_t tmp_cfgr;
;;;1398   #if defined(ADC_MULTIMODE_SUPPORT)
;;;1399     const ADC_TypeDef *tmpADC_Master;
;;;1400     uint32_t tmp_multimode_config = LL_ADC_GetMultimode(__LL_ADC_COMMON_INSTANCE(hadc->Instance));
;;;1401   #endif
;;;1402   
;;;1403     /* Check the parameters */
;;;1404     assert_param(IS_ADC_ALL_INSTANCE(hadc->Instance));
;;;1405   
;;;1406     /* If end of conversion selected to end of sequence conversions */
;;;1407     if (hadc->Init.EOCSelection == ADC_EOC_SEQ_CONV)
000006  6940              LDR      r0,[r0,#0x14]
000008  460e              MOV      r6,r1                 ;1394
00000a  2808              CMP      r0,#8
00000c  d00a              BEQ      |L21.36|
;;;1408     {
;;;1409       tmp_Flag_End = ADC_FLAG_EOS;
;;;1410     }
;;;1411     /* If end of conversion selected to end of unitary conversion */
;;;1412     else /* ADC_EOC_SINGLE_CONV */
;;;1413     {
;;;1414       /* Verification that ADC configuration is compliant with polling for      */
;;;1415       /* each conversion:                                                       */
;;;1416       /* Particular case is ADC configured in DMA mode and ADC sequencer with   */
;;;1417       /* several ranks and polling for end of each conversion.                  */
;;;1418       /* For code simplicity sake, this particular case is generalized to       */
;;;1419       /* ADC configured in DMA mode and and polling for end of each conversion. */
;;;1420   #if defined(ADC_MULTIMODE_SUPPORT)
;;;1421       if ((tmp_multimode_config == LL_ADC_MULTI_INDEPENDENT)
;;;1422           || (tmp_multimode_config == LL_ADC_MULTI_DUAL_INJ_SIMULT)
;;;1423           || (tmp_multimode_config == LL_ADC_MULTI_DUAL_INJ_ALTERN)
;;;1424          )
;;;1425       {
;;;1426         /* Check ADC DMA mode in independent mode on ADC group regular */
;;;1427         if (READ_BIT(hadc->Instance->CFGR, ADC_CFGR_DMAEN) != 0UL)
;;;1428         {
;;;1429           SET_BIT(hadc->State, HAL_ADC_STATE_ERROR_CONFIG);
;;;1430           return HAL_ERROR;
;;;1431         }
;;;1432         else
;;;1433         {
;;;1434           tmp_Flag_End = (ADC_FLAG_EOC);
;;;1435         }
;;;1436       }
;;;1437       else
;;;1438       {
;;;1439         /* Check ADC DMA mode in multimode on ADC group regular */
;;;1440         if (LL_ADC_GetMultiDMATransfer(__LL_ADC_COMMON_INSTANCE(hadc->Instance)) != LL_ADC_MULTI_REG_DMA_EACH_ADC)
;;;1441         {
;;;1442           SET_BIT(hadc->State, HAL_ADC_STATE_ERROR_CONFIG);
;;;1443           return HAL_ERROR;
;;;1444         }
;;;1445         else
;;;1446         {
;;;1447           tmp_Flag_End = (ADC_FLAG_EOC);
;;;1448         }
;;;1449       }
;;;1450   #else
;;;1451       /* Check ADC DMA mode */
;;;1452       if (READ_BIT(hadc->Instance->CFGR, ADC_CFGR_DMAEN) != 0UL)
00000e  6820              LDR      r0,[r4,#0]
000010  68c0              LDR      r0,[r0,#0xc]
000012  07c0              LSLS     r0,r0,#31
000014  d008              BEQ      |L21.40|
;;;1453       {
;;;1454         SET_BIT(hadc->State, HAL_ADC_STATE_ERROR_CONFIG);
000016  6d60              LDR      r0,[r4,#0x54]
000018  f0400020          ORR      r0,r0,#0x20
00001c  6560              STR      r0,[r4,#0x54]
;;;1455         return HAL_ERROR;
00001e  2001              MOVS     r0,#1
                  |L21.32|
;;;1456       }
;;;1457       else
;;;1458       {
;;;1459         tmp_Flag_End = (ADC_FLAG_EOC);
;;;1460       }
;;;1461   #endif
;;;1462     }
;;;1463   
;;;1464     /* Get tick count */
;;;1465     tickstart = HAL_GetTick();
;;;1466   
;;;1467     /* Wait until End of unitary conversion or sequence conversions flag is raised */
;;;1468     while ((hadc->Instance->ISR & tmp_Flag_End) == 0UL)
;;;1469     {
;;;1470       /* Check if timeout is disabled (set to infinite wait) */
;;;1471       if (Timeout != HAL_MAX_DELAY)
;;;1472       {
;;;1473         if (((HAL_GetTick() - tickstart) > Timeout) || (Timeout == 0UL))
;;;1474         {
;;;1475           /* New check to avoid false timeout detection in case of preemption */
;;;1476           if ((hadc->Instance->ISR & tmp_Flag_End) == 0UL)
;;;1477           {
;;;1478             /* Update ADC state machine to timeout */
;;;1479             SET_BIT(hadc->State, HAL_ADC_STATE_TIMEOUT);
;;;1480   
;;;1481             /* Process unlocked */
;;;1482             __HAL_UNLOCK(hadc);
;;;1483   
;;;1484             return HAL_TIMEOUT;
;;;1485           }
;;;1486         }
;;;1487       }
;;;1488     }
;;;1489   
;;;1490     /* Update ADC state machine */
;;;1491     SET_BIT(hadc->State, HAL_ADC_STATE_REG_EOC);
;;;1492   
;;;1493     /* Determine whether any further conversion upcoming on group regular       */
;;;1494     /* by external trigger, continuous mode or scan sequence on going.          */
;;;1495     if ((LL_ADC_REG_IsTriggerSourceSWStart(hadc->Instance) != 0UL)
;;;1496         && (hadc->Init.ContinuousConvMode == DISABLE)
;;;1497        )
;;;1498     {
;;;1499       /* Check whether end of sequence is reached */
;;;1500       if (__HAL_ADC_GET_FLAG(hadc, ADC_FLAG_EOS))
;;;1501       {
;;;1502         /* Set ADC state */
;;;1503         CLEAR_BIT(hadc->State, HAL_ADC_STATE_REG_BUSY);
;;;1504   
;;;1505         if ((hadc->State & HAL_ADC_STATE_INJ_BUSY) == 0UL)
;;;1506         {
;;;1507           SET_BIT(hadc->State, HAL_ADC_STATE_READY);
;;;1508         }
;;;1509       }
;;;1510     }
;;;1511   
;;;1512     /* Get relevant register CFGR in ADC instance of ADC master or slave        */
;;;1513     /* in function of multimode state (for devices with multimode               */
;;;1514     /* available).                                                              */
;;;1515   #if defined(ADC_MULTIMODE_SUPPORT)
;;;1516     if ((__LL_ADC_MULTI_INSTANCE_MASTER(hadc->Instance) == hadc->Instance)
;;;1517         || (tmp_multimode_config == LL_ADC_MULTI_INDEPENDENT)
;;;1518         || (tmp_multimode_config == LL_ADC_MULTI_DUAL_INJ_SIMULT)
;;;1519         || (tmp_multimode_config == LL_ADC_MULTI_DUAL_INJ_ALTERN)
;;;1520        )
;;;1521     {
;;;1522       /* Retrieve handle ADC CFGR register */
;;;1523       tmp_cfgr = READ_REG(hadc->Instance->CFGR);
;;;1524     }
;;;1525     else
;;;1526     {
;;;1527       /* Retrieve Master ADC CFGR register */
;;;1528       tmpADC_Master = __LL_ADC_MULTI_INSTANCE_MASTER(hadc->Instance);
;;;1529       tmp_cfgr = READ_REG(tmpADC_Master->CFGR);
;;;1530     }
;;;1531   #else
;;;1532     /* Retrieve handle ADC CFGR register */
;;;1533     tmp_cfgr = READ_REG(hadc->Instance->CFGR);
;;;1534   #endif
;;;1535   
;;;1536     /* Clear polled flag */
;;;1537     if (tmp_Flag_End == ADC_FLAG_EOS)
;;;1538     {
;;;1539       __HAL_ADC_CLEAR_FLAG(hadc, ADC_FLAG_EOS);
;;;1540     }
;;;1541     else
;;;1542     {
;;;1543       /* Clear end of conversion EOC flag of regular group if low power feature */
;;;1544       /* "LowPowerAutoWait " is disabled, to not interfere with this feature    */
;;;1545       /* until data register is read using function HAL_ADC_GetValue().         */
;;;1546       if (READ_BIT(tmp_cfgr, ADC_CFGR_AUTDLY) == 0UL)
;;;1547       {
;;;1548         __HAL_ADC_CLEAR_FLAG(hadc, (ADC_FLAG_EOC | ADC_FLAG_EOS));
;;;1549       }
;;;1550     }
;;;1551   
;;;1552     /* Return function status */
;;;1553     return HAL_OK;
;;;1554   }
000020  e8bd81f0          POP      {r4-r8,pc}
                  |L21.36|
000024  2508              MOVS     r5,#8                 ;1409
000026  e000              B        |L21.42|
                  |L21.40|
000028  2504              MOVS     r5,#4                 ;1459
                  |L21.42|
00002a  f7fffffe          BL       HAL_GetTick
00002e  4607              MOV      r7,r0                 ;1465
000030  e014              B        |L21.92|
                  |L21.50|
000032  1c70              ADDS     r0,r6,#1              ;1471
000034  d012              BEQ      |L21.92|
000036  f7fffffe          BL       HAL_GetTick
00003a  1bc0              SUBS     r0,r0,r7              ;1473
00003c  42b0              CMP      r0,r6                 ;1473
00003e  d800              BHI      |L21.66|
000040  b966              CBNZ     r6,|L21.92|
                  |L21.66|
000042  6820              LDR      r0,[r4,#0]            ;1476
000044  6800              LDR      r0,[r0,#0]            ;1476
000046  4228              TST      r0,r5                 ;1476
000048  d108              BNE      |L21.92|
00004a  6d60              LDR      r0,[r4,#0x54]         ;1479
00004c  f0400004          ORR      r0,r0,#4              ;1479
000050  6560              STR      r0,[r4,#0x54]         ;1479
000052  2000              MOVS     r0,#0                 ;1482
000054  f8840050          STRB     r0,[r4,#0x50]         ;1482
000058  2003              MOVS     r0,#3                 ;1484
00005a  e7e1              B        |L21.32|
                  |L21.92|
00005c  6820              LDR      r0,[r4,#0]            ;1468
00005e  6800              LDR      r0,[r0,#0]            ;1468
000060  4228              TST      r0,r5                 ;1468
000062  d0e6              BEQ      |L21.50|
000064  6d60              LDR      r0,[r4,#0x54]         ;1491
000066  f4407000          ORR      r0,r0,#0x200          ;1491
00006a  6560              STR      r0,[r4,#0x54]         ;1491
00006c  6820              LDR      r0,[r4,#0]            ;1495
00006e  f7fffffe          BL       LL_ADC_REG_IsTriggerSourceSWStart
000072  b180              CBZ      r0,|L21.150|
000074  7e60              LDRB     r0,[r4,#0x19]         ;1496
000076  b970              CBNZ     r0,|L21.150|
000078  6820              LDR      r0,[r4,#0]            ;1500
00007a  6800              LDR      r0,[r0,#0]            ;1500
00007c  0700              LSLS     r0,r0,#28             ;1500
00007e  d50a              BPL      |L21.150|
000080  6d60              LDR      r0,[r4,#0x54]         ;1503
000082  f4207080          BIC      r0,r0,#0x100          ;1503
000086  6560              STR      r0,[r4,#0x54]         ;1503
000088  6d60              LDR      r0,[r4,#0x54]         ;1505
00008a  04c0              LSLS     r0,r0,#19             ;1505
00008c  d403              BMI      |L21.150|
00008e  6d60              LDR      r0,[r4,#0x54]         ;1507
000090  f0400001          ORR      r0,r0,#1              ;1507
000094  6560              STR      r0,[r4,#0x54]         ;1507
                  |L21.150|
000096  6820              LDR      r0,[r4,#0]            ;1533
000098  68c1              LDR      r1,[r0,#0xc]          ;1533
00009a  2d08              CMP      r5,#8                 ;1537
00009c  d005              BEQ      |L21.170|
00009e  0449              LSLS     r1,r1,#17             ;1546
0000a0  d401              BMI      |L21.166|
0000a2  210c              MOVS     r1,#0xc               ;1548
                  |L21.164|
0000a4  6001              STR      r1,[r0,#0]            ;1548
                  |L21.166|
0000a6  2000              MOVS     r0,#0                 ;1553
0000a8  e7ba              B        |L21.32|
                  |L21.170|
0000aa  2108              MOVS     r1,#8                 ;1539
0000ac  e7fa              B        |L21.164|
;;;1555   
                          ENDP


                          AREA ||i.HAL_ADC_PollForEvent||, CODE, READONLY, ALIGN=1

                  HAL_ADC_PollForEvent PROC
;;;1575     */
;;;1576   HAL_StatusTypeDef HAL_ADC_PollForEvent(ADC_HandleTypeDef *hadc, uint32_t EventType, uint32_t Timeout)
000000  e92d41f0          PUSH     {r4-r8,lr}
;;;1577   {
000004  4616              MOV      r6,r2
000006  460d              MOV      r5,r1
000008  4604              MOV      r4,r0
;;;1578     uint32_t tickstart;
;;;1579   
;;;1580     /* Check the parameters */
;;;1581     assert_param(IS_ADC_ALL_INSTANCE(hadc->Instance));
;;;1582     assert_param(IS_ADC_EVENT_TYPE(EventType));
;;;1583   
;;;1584     /* Get tick count */
;;;1585     tickstart = HAL_GetTick();
00000a  f7fffffe          BL       HAL_GetTick
00000e  4607              MOV      r7,r0
;;;1586   
;;;1587     /* Check selected event flag */
;;;1588     while (__HAL_ADC_GET_FLAG(hadc, EventType) == 0UL)
000010  e016              B        |L22.64|
                  |L22.18|
;;;1589     {
;;;1590       /* Check if timeout is disabled (set to infinite wait) */
;;;1591       if (Timeout != HAL_MAX_DELAY)
000012  1c70              ADDS     r0,r6,#1
000014  d014              BEQ      |L22.64|
;;;1592       {
;;;1593         if (((HAL_GetTick() - tickstart) > Timeout) || (Timeout == 0UL))
000016  f7fffffe          BL       HAL_GetTick
00001a  1bc0              SUBS     r0,r0,r7
00001c  42b0              CMP      r0,r6
00001e  d800              BHI      |L22.34|
000020  b976              CBNZ     r6,|L22.64|
                  |L22.34|
;;;1594         {
;;;1595           /* New check to avoid false timeout detection in case of preemption */
;;;1596           if (__HAL_ADC_GET_FLAG(hadc, EventType) == 0UL)
000022  6820              LDR      r0,[r4,#0]
000024  6800              LDR      r0,[r0,#0]
000026  ea350000          BICS     r0,r5,r0
00002a  d009              BEQ      |L22.64|
;;;1597           {
;;;1598             /* Update ADC state machine to timeout */
;;;1599             SET_BIT(hadc->State, HAL_ADC_STATE_TIMEOUT);
00002c  6d60              LDR      r0,[r4,#0x54]
00002e  f0400004          ORR      r0,r0,#4
000032  6560              STR      r0,[r4,#0x54]
;;;1600   
;;;1601             /* Process unlocked */
;;;1602             __HAL_UNLOCK(hadc);
000034  2000              MOVS     r0,#0
000036  f8840050          STRB     r0,[r4,#0x50]
;;;1603   
;;;1604             return HAL_TIMEOUT;
00003a  2003              MOVS     r0,#3
                  |L22.60|
;;;1605           }
;;;1606         }
;;;1607       }
;;;1608     }
;;;1609   
;;;1610     switch (EventType)
;;;1611     {
;;;1612       /* End Of Sampling event */
;;;1613       case ADC_EOSMP_EVENT:
;;;1614         /* Set ADC state */
;;;1615         SET_BIT(hadc->State, HAL_ADC_STATE_REG_EOSMP);
;;;1616   
;;;1617         /* Clear the End Of Sampling flag */
;;;1618         __HAL_ADC_CLEAR_FLAG(hadc, ADC_FLAG_EOSMP);
;;;1619   
;;;1620         break;
;;;1621   
;;;1622       /* Analog watchdog (level out of window) event */
;;;1623       /* Note: In case of several analog watchdog enabled, if needed to know      */
;;;1624       /* which one triggered and on which ADCx, test ADC state of analog watchdog */
;;;1625       /* flags HAL_ADC_STATE_AWD1/2/3 using function "HAL_ADC_GetState()".        */
;;;1626       /* For example:                                                             */
;;;1627       /*  " if ((HAL_ADC_GetState(hadc1) & HAL_ADC_STATE_AWD1) != 0UL) "          */
;;;1628       /*  " if ((HAL_ADC_GetState(hadc1) & HAL_ADC_STATE_AWD2) != 0UL) "          */
;;;1629       /*  " if ((HAL_ADC_GetState(hadc1) & HAL_ADC_STATE_AWD3) != 0UL) "          */
;;;1630   
;;;1631       /* Check analog watchdog 1 flag */
;;;1632       case ADC_AWD_EVENT:
;;;1633         /* Set ADC state */
;;;1634         SET_BIT(hadc->State, HAL_ADC_STATE_AWD1);
;;;1635   
;;;1636         /* Clear ADC analog watchdog flag */
;;;1637         __HAL_ADC_CLEAR_FLAG(hadc, ADC_FLAG_AWD1);
;;;1638   
;;;1639         break;
;;;1640   
;;;1641       /* Check analog watchdog 2 flag */
;;;1642       case ADC_AWD2_EVENT:
;;;1643         /* Set ADC state */
;;;1644         SET_BIT(hadc->State, HAL_ADC_STATE_AWD2);
;;;1645   
;;;1646         /* Clear ADC analog watchdog flag */
;;;1647         __HAL_ADC_CLEAR_FLAG(hadc, ADC_FLAG_AWD2);
;;;1648   
;;;1649         break;
;;;1650   
;;;1651       /* Check analog watchdog 3 flag */
;;;1652       case ADC_AWD3_EVENT:
;;;1653         /* Set ADC state */
;;;1654         SET_BIT(hadc->State, HAL_ADC_STATE_AWD3);
;;;1655   
;;;1656         /* Clear ADC analog watchdog flag */
;;;1657         __HAL_ADC_CLEAR_FLAG(hadc, ADC_FLAG_AWD3);
;;;1658   
;;;1659         break;
;;;1660   
;;;1661       /* Injected context queue overflow event */
;;;1662       case ADC_JQOVF_EVENT:
;;;1663         /* Set ADC state */
;;;1664         SET_BIT(hadc->State, HAL_ADC_STATE_INJ_JQOVF);
;;;1665   
;;;1666         /* Set ADC error code to Injected context queue overflow */
;;;1667         SET_BIT(hadc->ErrorCode, HAL_ADC_ERROR_JQOVF);
;;;1668   
;;;1669         /* Clear ADC Injected context queue overflow flag */
;;;1670         __HAL_ADC_CLEAR_FLAG(hadc, ADC_FLAG_JQOVF);
;;;1671   
;;;1672         break;
;;;1673   
;;;1674       /* Overrun event */
;;;1675       default: /* Case ADC_OVR_EVENT */
;;;1676         /* If overrun is set to overwrite previous data, overrun event is not     */
;;;1677         /* considered as an error.                                                */
;;;1678         /* (cf ref manual "Managing conversions without using the DMA and without */
;;;1679         /* overrun ")                                                             */
;;;1680         if (hadc->Init.Overrun == ADC_OVR_DATA_PRESERVED)
;;;1681         {
;;;1682           /* Set ADC state */
;;;1683           SET_BIT(hadc->State, HAL_ADC_STATE_REG_OVR);
;;;1684   
;;;1685           /* Set ADC error code to overrun */
;;;1686           SET_BIT(hadc->ErrorCode, HAL_ADC_ERROR_OVR);
;;;1687         }
;;;1688         else
;;;1689         {
;;;1690           /* Clear ADC Overrun flag only if Overrun is set to ADC_OVR_DATA_OVERWRITTEN
;;;1691              otherwise, data register is potentially overwritten by new converted data as soon
;;;1692              as OVR is cleared. */
;;;1693           __HAL_ADC_CLEAR_FLAG(hadc, ADC_FLAG_OVR);
;;;1694         }
;;;1695         break;
;;;1696     }
;;;1697   
;;;1698     /* Return function status */
;;;1699     return HAL_OK;
;;;1700   }
00003c  e8bd81f0          POP      {r4-r8,pc}
                  |L22.64|
000040  6820              LDR      r0,[r4,#0]            ;1588
000042  6800              LDR      r0,[r0,#0]            ;1588
000044  ea350000          BICS     r0,r5,r0              ;1588
000048  d1e3              BNE      |L22.18|
00004a  f44f7080          MOV      r0,#0x100             ;1610
00004e  4285              CMP      r5,r0                 ;1610
000050  d021              BEQ      |L22.150|
000052  dc04              BGT      |L22.94|
000054  2d02              CMP      r5,#2                 ;1610
000056  d012              BEQ      |L22.126|
000058  2d80              CMP      r5,#0x80              ;1610
00005a  d125              BNE      |L22.168|
00005c  e015              B        |L22.138|
                  |L22.94|
00005e  f44f7000          MOV      r0,#0x200             ;1610
000062  4285              CMP      r5,r0                 ;1610
000064  d01b              BEQ      |L22.158|
000066  0040              LSLS     r0,r0,#1              ;1610
000068  4285              CMP      r5,r0                 ;1610
00006a  d11d              BNE      |L22.168|
00006c  6d61              LDR      r1,[r4,#0x54]         ;1664
00006e  f4414180          ORR      r1,r1,#0x4000         ;1664
000072  6561              STR      r1,[r4,#0x54]         ;1664
000074  6da1              LDR      r1,[r4,#0x58]         ;1667
000076  f0410108          ORR      r1,r1,#8              ;1667
00007a  65a1              STR      r1,[r4,#0x58]         ;1667
00007c  e017              B        |L22.174|
                  |L22.126|
00007e  6d60              LDR      r0,[r4,#0x54]         ;1615
000080  f4406000          ORR      r0,r0,#0x800          ;1615
000084  6560              STR      r0,[r4,#0x54]         ;1615
000086  2002              MOVS     r0,#2                 ;1618
000088  e011              B        |L22.174|
                  |L22.138|
00008a  6d60              LDR      r0,[r4,#0x54]         ;1634
00008c  f4403080          ORR      r0,r0,#0x10000        ;1634
000090  6560              STR      r0,[r4,#0x54]         ;1634
000092  2080              MOVS     r0,#0x80              ;1637
000094  e00b              B        |L22.174|
                  |L22.150|
000096  6d61              LDR      r1,[r4,#0x54]         ;1644
000098  f4413100          ORR      r1,r1,#0x20000        ;1644
00009c  e002              B        |L22.164|
                  |L22.158|
00009e  6d61              LDR      r1,[r4,#0x54]         ;1654
0000a0  f4412180          ORR      r1,r1,#0x40000        ;1654
                  |L22.164|
0000a4  6561              STR      r1,[r4,#0x54]         ;1654
0000a6  e002              B        |L22.174|
                  |L22.168|
0000a8  6b60              LDR      r0,[r4,#0x34]         ;1680
0000aa  b120              CBZ      r0,|L22.182|
0000ac  2010              MOVS     r0,#0x10              ;1693
                  |L22.174|
0000ae  6821              LDR      r1,[r4,#0]            ;1693
0000b0  6008              STR      r0,[r1,#0]            ;1693
                  |L22.178|
0000b2  2000              MOVS     r0,#0                 ;1699
0000b4  e7c2              B        |L22.60|
                  |L22.182|
0000b6  6d60              LDR      r0,[r4,#0x54]         ;1683
0000b8  f4406080          ORR      r0,r0,#0x400          ;1683
0000bc  6560              STR      r0,[r4,#0x54]         ;1683
0000be  6da0              LDR      r0,[r4,#0x58]         ;1686
0000c0  f0400002          ORR      r0,r0,#2              ;1686
0000c4  65a0              STR      r0,[r4,#0x58]         ;1686
0000c6  e7f4              B        |L22.178|
;;;1701   
                          ENDP


                          AREA ||i.HAL_ADC_Start||, CODE, READONLY, ALIGN=2

                  HAL_ADC_Start PROC
;;;1203     */
;;;1204   HAL_StatusTypeDef HAL_ADC_Start(ADC_HandleTypeDef *hadc)
000000  b510              PUSH     {r4,lr}
;;;1205   {
000002  4604              MOV      r4,r0
;;;1206     HAL_StatusTypeDef tmp_hal_status;
;;;1207   #if defined(ADC_MULTIMODE_SUPPORT)
;;;1208     const ADC_TypeDef *tmpADC_Master;
;;;1209     uint32_t tmp_multimode_config = LL_ADC_GetMultimode(__LL_ADC_COMMON_INSTANCE(hadc->Instance));
;;;1210   #endif
;;;1211   
;;;1212     /* Check the parameters */
;;;1213     assert_param(IS_ADC_ALL_INSTANCE(hadc->Instance));
;;;1214   
;;;1215     /* Perform ADC enable and conversion start if no conversion is on going */
;;;1216     if (LL_ADC_REG_IsConversionOngoing(hadc->Instance) == 0UL)
000004  6800              LDR      r0,[r0,#0]
000006  f7fffffe          BL       LL_ADC_REG_IsConversionOngoing
00000a  b110              CBZ      r0,|L23.18|
;;;1217     {
;;;1218       /* Process locked */
;;;1219       __HAL_LOCK(hadc);
;;;1220   
;;;1221       /* Enable the ADC peripheral */
;;;1222       tmp_hal_status = ADC_Enable(hadc);
;;;1223   
;;;1224       /* Start conversion if ADC is effectively enabled */
;;;1225       if (tmp_hal_status == HAL_OK)
;;;1226       {
;;;1227         /* Set ADC state                                                        */
;;;1228         /* - Clear state bitfield related to regular group conversion results   */
;;;1229         /* - Set state bitfield related to regular operation                    */
;;;1230         ADC_STATE_CLR_SET(hadc->State,
;;;1231                           HAL_ADC_STATE_READY | HAL_ADC_STATE_REG_EOC | HAL_ADC_STATE_REG_OVR | HAL_ADC_STATE_REG_EOSMP,
;;;1232                           HAL_ADC_STATE_REG_BUSY);
;;;1233   
;;;1234   #if defined(ADC_MULTIMODE_SUPPORT)
;;;1235         /* Reset HAL_ADC_STATE_MULTIMODE_SLAVE bit
;;;1236           - if ADC instance is master or if multimode feature is not available
;;;1237           - if multimode setting is disabled (ADC instance slave in independent mode) */
;;;1238         if ((__LL_ADC_MULTI_INSTANCE_MASTER(hadc->Instance) == hadc->Instance)
;;;1239             || (tmp_multimode_config == LL_ADC_MULTI_INDEPENDENT)
;;;1240            )
;;;1241         {
;;;1242           CLEAR_BIT(hadc->State, HAL_ADC_STATE_MULTIMODE_SLAVE);
;;;1243         }
;;;1244   #endif
;;;1245   
;;;1246         /* Set ADC error code */
;;;1247         /* Check if a conversion is on going on ADC group injected */
;;;1248         if (HAL_IS_BIT_SET(hadc->State, HAL_ADC_STATE_INJ_BUSY))
;;;1249         {
;;;1250           /* Reset ADC error code fields related to regular conversions only */
;;;1251           CLEAR_BIT(hadc->ErrorCode, (HAL_ADC_ERROR_OVR | HAL_ADC_ERROR_DMA));
;;;1252         }
;;;1253         else
;;;1254         {
;;;1255           /* Reset all ADC error code fields */
;;;1256           ADC_CLEAR_ERRORCODE(hadc);
;;;1257         }
;;;1258   
;;;1259         /* Clear ADC group regular conversion flag and overrun flag               */
;;;1260         /* (To ensure of no unknown state from potential previous ADC operations) */
;;;1261         __HAL_ADC_CLEAR_FLAG(hadc, (ADC_FLAG_EOC | ADC_FLAG_EOS | ADC_FLAG_OVR));
;;;1262   
;;;1263         /* Process unlocked */
;;;1264         /* Unlock before starting ADC conversions: in case of potential         */
;;;1265         /* interruption, to let the process to ADC IRQ Handler.                 */
;;;1266         __HAL_UNLOCK(hadc);
;;;1267   
;;;1268         /* Enable conversion of regular group.                                  */
;;;1269         /* If software start has been selected, conversion starts immediately.  */
;;;1270         /* If external trigger has been selected, conversion will start at next */
;;;1271         /* trigger event.                                                       */
;;;1272         /* Case of multimode enabled (when multimode feature is available):     */
;;;1273         /*  - if ADC is slave and dual regular conversions are enabled, ADC is  */
;;;1274         /*    enabled only (conversion is not started),                         */
;;;1275         /*  - if ADC is master, ADC is enabled and conversion is started.       */
;;;1276   #if defined(ADC_MULTIMODE_SUPPORT)
;;;1277         if ((__LL_ADC_MULTI_INSTANCE_MASTER(hadc->Instance) == hadc->Instance)
;;;1278             || (tmp_multimode_config == LL_ADC_MULTI_INDEPENDENT)
;;;1279             || (tmp_multimode_config == LL_ADC_MULTI_DUAL_INJ_SIMULT)
;;;1280             || (tmp_multimode_config == LL_ADC_MULTI_DUAL_INJ_ALTERN)
;;;1281            )
;;;1282         {
;;;1283           /* ADC instance is not a multimode slave instance with multimode regular conversions enabled */
;;;1284           if (READ_BIT(hadc->Instance->CFGR, ADC_CFGR_JAUTO) != 0UL)
;;;1285           {
;;;1286             ADC_STATE_CLR_SET(hadc->State, HAL_ADC_STATE_INJ_EOC, HAL_ADC_STATE_INJ_BUSY);
;;;1287           }
;;;1288   
;;;1289           /* Start ADC group regular conversion */
;;;1290           LL_ADC_REG_StartConversion(hadc->Instance);
;;;1291         }
;;;1292         else
;;;1293         {
;;;1294           /* ADC instance is a multimode slave instance with multimode regular conversions enabled */
;;;1295           SET_BIT(hadc->State, HAL_ADC_STATE_MULTIMODE_SLAVE);
;;;1296           /* if Master ADC JAUTO bit is set, update Slave State in setting
;;;1297              HAL_ADC_STATE_INJ_BUSY bit and in resetting HAL_ADC_STATE_INJ_EOC bit */
;;;1298           tmpADC_Master = __LL_ADC_MULTI_INSTANCE_MASTER(hadc->Instance);
;;;1299           if (READ_BIT(tmpADC_Master->CFGR, ADC_CFGR_JAUTO) != 0UL)
;;;1300           {
;;;1301             ADC_STATE_CLR_SET(hadc->State, HAL_ADC_STATE_INJ_EOC, HAL_ADC_STATE_INJ_BUSY);
;;;1302           }
;;;1303   
;;;1304         }
;;;1305   #else
;;;1306         if (READ_BIT(hadc->Instance->CFGR, ADC_CFGR_JAUTO) != 0UL)
;;;1307         {
;;;1308           ADC_STATE_CLR_SET(hadc->State, HAL_ADC_STATE_INJ_EOC, HAL_ADC_STATE_INJ_BUSY);
;;;1309         }
;;;1310   
;;;1311         /* Start ADC group regular conversion */
;;;1312         LL_ADC_REG_StartConversion(hadc->Instance);
;;;1313   #endif
;;;1314       }
;;;1315       else
;;;1316       {
;;;1317         /* Process unlocked */
;;;1318         __HAL_UNLOCK(hadc);
;;;1319       }
;;;1320     }
;;;1321     else
;;;1322     {
;;;1323       tmp_hal_status = HAL_BUSY;
00000c  2102              MOVS     r1,#2
                  |L23.14|
;;;1324     }
;;;1325   
;;;1326     /* Return function status */
;;;1327     return tmp_hal_status;
00000e  4608              MOV      r0,r1
;;;1328   }
000010  bd10              POP      {r4,pc}
                  |L23.18|
000012  f8940050          LDRB     r0,[r4,#0x50]         ;1219
000016  2801              CMP      r0,#1                 ;1219
000018  d00c              BEQ      |L23.52|
00001a  2001              MOVS     r0,#1                 ;1219
00001c  f8840050          STRB     r0,[r4,#0x50]         ;1219
000020  4620              MOV      r0,r4                 ;1222
000022  f7fffffe          BL       ADC_Enable
000026  0001              MOVS     r1,r0                 ;1222
000028  f04f0000          MOV      r0,#0                 ;1222
00002c  d004              BEQ      |L23.56|
00002e  f8840050          STRB     r0,[r4,#0x50]         ;1318
000032  e7ec              B        |L23.14|
                  |L23.52|
000034  2002              MOVS     r0,#2                 ;1219
000036  bd10              POP      {r4,pc}
                  |L23.56|
000038  6d62              LDR      r2,[r4,#0x54]         ;1230
00003a  f6406301          MOV      r3,#0xe01             ;1230
00003e  439a              BICS     r2,r2,r3              ;1230
000040  f4427280          ORR      r2,r2,#0x100          ;1230
000044  6562              STR      r2,[r4,#0x54]         ;1230
000046  6d62              LDR      r2,[r4,#0x54]         ;1248
000048  04d2              LSLS     r2,r2,#19             ;1248
00004a  d504              BPL      |L23.86|
00004c  6da2              LDR      r2,[r4,#0x58]         ;1251
00004e  f0220206          BIC      r2,r2,#6              ;1251
000052  65a2              STR      r2,[r4,#0x58]         ;1251
000054  e000              B        |L23.88|
                  |L23.86|
000056  65a0              STR      r0,[r4,#0x58]         ;1256
                  |L23.88|
000058  6823              LDR      r3,[r4,#0]            ;1261
00005a  221c              MOVS     r2,#0x1c              ;1261
00005c  601a              STR      r2,[r3,#0]            ;1261
00005e  f8840050          STRB     r0,[r4,#0x50]         ;1266
000062  6820              LDR      r0,[r4,#0]            ;1306
000064  68c2              LDR      r2,[r0,#0xc]          ;1306
000066  0192              LSLS     r2,r2,#6              ;1306
000068  d505              BPL      |L23.118|
00006a  6d62              LDR      r2,[r4,#0x54]         ;1308
00006c  f4225200          BIC      r2,r2,#0x2000         ;1308
000070  f4425280          ORR      r2,r2,#0x1000         ;1308
000074  6562              STR      r2,[r4,#0x54]         ;1308
                  |L23.118|
000076  6882              LDR      r2,[r0,#8]            ;1308
000078  4b02              LDR      r3,|L23.132|
00007a  401a              ANDS     r2,r2,r3              ;1308
00007c  1d12              ADDS     r2,r2,#4              ;1308
00007e  6082              STR      r2,[r0,#8]            ;1308
000080  e7c5              B        |L23.14|
;;;1329   
                          ENDP

000082  0000              DCW      0x0000
                  |L23.132|
                          DCD      0x7fffffc0

                          AREA ||i.HAL_ADC_Start_DMA||, CODE, READONLY, ALIGN=2

                  HAL_ADC_Start_DMA PROC
;;;1984     */
;;;1985   HAL_StatusTypeDef HAL_ADC_Start_DMA(ADC_HandleTypeDef *hadc, uint32_t *pData, uint32_t Length)
000000  b570              PUSH     {r4-r6,lr}
;;;1986   {
000002  4604              MOV      r4,r0
000004  4615              MOV      r5,r2
000006  460e              MOV      r6,r1
;;;1987     HAL_StatusTypeDef tmp_hal_status;
;;;1988   #if defined(ADC_MULTIMODE_SUPPORT)
;;;1989     uint32_t tmp_multimode_config = LL_ADC_GetMultimode(__LL_ADC_COMMON_INSTANCE(hadc->Instance));
;;;1990   #endif
;;;1991   
;;;1992     /* Check the parameters */
;;;1993     assert_param(IS_ADC_ALL_INSTANCE(hadc->Instance));
;;;1994   
;;;1995     /* Perform ADC enable and conversion start if no conversion is on going */
;;;1996     if (LL_ADC_REG_IsConversionOngoing(hadc->Instance) == 0UL)
000008  6800              LDR      r0,[r0,#0]
00000a  f7fffffe          BL       LL_ADC_REG_IsConversionOngoing
00000e  bbe0              CBNZ     r0,|L24.138|
;;;1997     {
;;;1998       /* Process locked */
;;;1999       __HAL_LOCK(hadc);
000010  f8940050          LDRB     r0,[r4,#0x50]
000014  2801              CMP      r0,#1
000016  d042              BEQ      |L24.158|
000018  2001              MOVS     r0,#1
00001a  f8840050          STRB     r0,[r4,#0x50]
;;;2000   
;;;2001   #if defined(ADC_MULTIMODE_SUPPORT)
;;;2002       /* Ensure that multimode regular conversions are not enabled.   */
;;;2003       /* Otherwise, dedicated API HAL_ADCEx_MultiModeStart_DMA() must be used.  */
;;;2004       if ((ADC_IS_INDEPENDENT(hadc) != RESET)
;;;2005           || (tmp_multimode_config == LL_ADC_MULTI_INDEPENDENT)
;;;2006           || (tmp_multimode_config == LL_ADC_MULTI_DUAL_INJ_SIMULT)
;;;2007           || (tmp_multimode_config == LL_ADC_MULTI_DUAL_INJ_ALTERN)
;;;2008          )
;;;2009   #endif /* ADC_MULTIMODE_SUPPORT */
;;;2010       {
;;;2011         /* Enable the ADC peripheral */
;;;2012         tmp_hal_status = ADC_Enable(hadc);
00001e  4620              MOV      r0,r4
000020  f7fffffe          BL       ADC_Enable
000024  2100              MOVS     r1,#0
000026  b110              CBZ      r0,|L24.46|
;;;2013   
;;;2014         /* Start conversion if ADC is effectively enabled */
;;;2015         if (tmp_hal_status == HAL_OK)
;;;2016         {
;;;2017           /* Set ADC state                                                        */
;;;2018           /* - Clear state bitfield related to regular group conversion results   */
;;;2019           /* - Set state bitfield related to regular operation                    */
;;;2020           ADC_STATE_CLR_SET(hadc->State,
;;;2021                             HAL_ADC_STATE_READY | HAL_ADC_STATE_REG_EOC | HAL_ADC_STATE_REG_OVR | HAL_ADC_STATE_REG_EOSMP,
;;;2022                             HAL_ADC_STATE_REG_BUSY);
;;;2023   
;;;2024   #if defined(ADC_MULTIMODE_SUPPORT)
;;;2025           /* Reset HAL_ADC_STATE_MULTIMODE_SLAVE bit
;;;2026             - if ADC instance is master or if multimode feature is not available
;;;2027             - if multimode setting is disabled (ADC instance slave in independent mode) */
;;;2028           if ((__LL_ADC_MULTI_INSTANCE_MASTER(hadc->Instance) == hadc->Instance)
;;;2029               || (tmp_multimode_config == LL_ADC_MULTI_INDEPENDENT)
;;;2030              )
;;;2031           {
;;;2032             CLEAR_BIT(hadc->State, HAL_ADC_STATE_MULTIMODE_SLAVE);
;;;2033           }
;;;2034   #endif
;;;2035   
;;;2036           /* Check if a conversion is on going on ADC group injected */
;;;2037           if ((hadc->State & HAL_ADC_STATE_INJ_BUSY) != 0UL)
;;;2038           {
;;;2039             /* Reset ADC error code fields related to regular conversions only */
;;;2040             CLEAR_BIT(hadc->ErrorCode, (HAL_ADC_ERROR_OVR | HAL_ADC_ERROR_DMA));
;;;2041           }
;;;2042           else
;;;2043           {
;;;2044             /* Reset all ADC error code fields */
;;;2045             ADC_CLEAR_ERRORCODE(hadc);
;;;2046           }
;;;2047   
;;;2048           /* Set the DMA transfer complete callback */
;;;2049           hadc->DMA_Handle->XferCpltCallback = ADC_DMAConvCplt;
;;;2050   
;;;2051           /* Set the DMA half transfer complete callback */
;;;2052           hadc->DMA_Handle->XferHalfCpltCallback = ADC_DMAHalfConvCplt;
;;;2053   
;;;2054           /* Set the DMA error callback */
;;;2055           hadc->DMA_Handle->XferErrorCallback = ADC_DMAError;
;;;2056   
;;;2057   
;;;2058           /* Manage ADC and DMA start: ADC overrun interruption, DMA start,     */
;;;2059           /* ADC start (in case of SW start):                                   */
;;;2060   
;;;2061           /* Clear regular group conversion flag and overrun flag               */
;;;2062           /* (To ensure of no unknown state from potential previous ADC         */
;;;2063           /* operations)                                                        */
;;;2064           __HAL_ADC_CLEAR_FLAG(hadc, (ADC_FLAG_EOC | ADC_FLAG_EOS | ADC_FLAG_OVR));
;;;2065   
;;;2066           /* Process unlocked */
;;;2067           /* Unlock before starting ADC conversions: in case of potential         */
;;;2068           /* interruption, to let the process to ADC IRQ Handler.                 */
;;;2069           __HAL_UNLOCK(hadc);
;;;2070   
;;;2071           /* With DMA, overrun event is always considered as an error even if
;;;2072              hadc->Init.Overrun is set to ADC_OVR_DATA_OVERWRITTEN. Therefore,
;;;2073              ADC_IT_OVR is enabled. */
;;;2074           __HAL_ADC_ENABLE_IT(hadc, ADC_IT_OVR);
;;;2075   
;;;2076           /* Enable ADC DMA mode */
;;;2077           SET_BIT(hadc->Instance->CFGR, ADC_CFGR_DMAEN);
;;;2078   
;;;2079           /* Start the DMA channel */
;;;2080           tmp_hal_status = HAL_DMA_Start_IT(hadc->DMA_Handle, (uint32_t)&hadc->Instance->DR, (uint32_t)pData, Length);
;;;2081   
;;;2082           /* Enable conversion of regular group.                                  */
;;;2083           /* If software start has been selected, conversion starts immediately.  */
;;;2084           /* If external trigger has been selected, conversion will start at next */
;;;2085           /* trigger event.                                                       */
;;;2086           /* Start ADC group regular conversion */
;;;2087           LL_ADC_REG_StartConversion(hadc->Instance);
;;;2088         }
;;;2089         else
;;;2090         {
;;;2091           /* Process unlocked */
;;;2092           __HAL_UNLOCK(hadc);
000028  f8841050          STRB     r1,[r4,#0x50]
;;;2093         }
;;;2094   
;;;2095       }
;;;2096   #if defined(ADC_MULTIMODE_SUPPORT)
;;;2097       else
;;;2098       {
;;;2099         tmp_hal_status = HAL_ERROR;
;;;2100         /* Process unlocked */
;;;2101         __HAL_UNLOCK(hadc);
;;;2102       }
;;;2103   #endif
;;;2104     }
;;;2105     else
;;;2106     {
;;;2107       tmp_hal_status = HAL_BUSY;
;;;2108     }
;;;2109   
;;;2110     /* Return function status */
;;;2111     return tmp_hal_status;
;;;2112   }
00002c  bd70              POP      {r4-r6,pc}
                  |L24.46|
00002e  6d60              LDR      r0,[r4,#0x54]         ;2020
000030  f6406201          MOV      r2,#0xe01             ;2020
000034  4390              BICS     r0,r0,r2              ;2020
000036  f4407080          ORR      r0,r0,#0x100          ;2020
00003a  6560              STR      r0,[r4,#0x54]         ;2020
00003c  6d60              LDR      r0,[r4,#0x54]         ;2037
00003e  04c0              LSLS     r0,r0,#19             ;2037
000040  d504              BPL      |L24.76|
000042  6da0              LDR      r0,[r4,#0x58]         ;2040
000044  f0200006          BIC      r0,r0,#6              ;2040
000048  65a0              STR      r0,[r4,#0x58]         ;2040
00004a  e000              B        |L24.78|
                  |L24.76|
00004c  65a1              STR      r1,[r4,#0x58]         ;2045
                  |L24.78|
00004e  6ce2              LDR      r2,[r4,#0x4c]         ;2049
000050  4814              LDR      r0,|L24.164|
000052  62d0              STR      r0,[r2,#0x2c]         ;2052
000054  6ce2              LDR      r2,[r4,#0x4c]         ;2052
000056  4814              LDR      r0,|L24.168|
000058  6310              STR      r0,[r2,#0x30]         ;2055
00005a  6ce2              LDR      r2,[r4,#0x4c]         ;2055
00005c  4813              LDR      r0,|L24.172|
00005e  6350              STR      r0,[r2,#0x34]         ;2064
000060  6822              LDR      r2,[r4,#0]            ;2064
000062  201c              MOVS     r0,#0x1c              ;2064
000064  6010              STR      r0,[r2,#0]            ;2064
000066  f8841050          STRB     r1,[r4,#0x50]         ;2069
00006a  6820              LDR      r0,[r4,#0]            ;2074
00006c  6841              LDR      r1,[r0,#4]            ;2074
00006e  f0410110          ORR      r1,r1,#0x10           ;2074
000072  6041              STR      r1,[r0,#4]            ;2074
000074  6820              LDR      r0,[r4,#0]            ;2077
000076  68c1              LDR      r1,[r0,#0xc]          ;2077
000078  f0410101          ORR      r1,r1,#1              ;2077
00007c  60c1              STR      r1,[r0,#0xc]          ;2077
00007e  6821              LDR      r1,[r4,#0]            ;2080
000080  462b              MOV      r3,r5                 ;2080
000082  4632              MOV      r2,r6                 ;2080
000084  3140              ADDS     r1,r1,#0x40           ;2080
000086  6ce0              LDR      r0,[r4,#0x4c]         ;2080
000088  e000              B        |L24.140|
                  |L24.138|
00008a  e008              B        |L24.158|
                  |L24.140|
00008c  f7fffffe          BL       HAL_DMA_Start_IT
000090  6821              LDR      r1,[r4,#0]            ;2080
000092  688a              LDR      r2,[r1,#8]            ;2080
000094  4b06              LDR      r3,|L24.176|
000096  401a              ANDS     r2,r2,r3              ;2080
000098  1d12              ADDS     r2,r2,#4              ;2080
00009a  608a              STR      r2,[r1,#8]            ;2080
00009c  bd70              POP      {r4-r6,pc}
                  |L24.158|
00009e  2002              MOVS     r0,#2                 ;2107
0000a0  bd70              POP      {r4-r6,pc}
;;;2113   
                          ENDP

0000a2  0000              DCW      0x0000
                  |L24.164|
                          DCD      ADC_DMAConvCplt
                  |L24.168|
                          DCD      ADC_DMAHalfConvCplt
                  |L24.172|
                          DCD      ADC_DMAError
                  |L24.176|
                          DCD      0x7fffffc0

                          AREA ||i.HAL_ADC_Start_IT||, CODE, READONLY, ALIGN=2

                  HAL_ADC_Start_IT PROC
;;;1724     */
;;;1725   HAL_StatusTypeDef HAL_ADC_Start_IT(ADC_HandleTypeDef *hadc)
000000  b510              PUSH     {r4,lr}
;;;1726   {
000002  4604              MOV      r4,r0
;;;1727     HAL_StatusTypeDef tmp_hal_status;
;;;1728   #if defined(ADC_MULTIMODE_SUPPORT)
;;;1729     const ADC_TypeDef *tmpADC_Master;
;;;1730     uint32_t tmp_multimode_config = LL_ADC_GetMultimode(__LL_ADC_COMMON_INSTANCE(hadc->Instance));
;;;1731   #endif
;;;1732   
;;;1733     /* Check the parameters */
;;;1734     assert_param(IS_ADC_ALL_INSTANCE(hadc->Instance));
;;;1735   
;;;1736     /* Perform ADC enable and conversion start if no conversion is on going */
;;;1737     if (LL_ADC_REG_IsConversionOngoing(hadc->Instance) == 0UL)
000004  6800              LDR      r0,[r0,#0]
000006  f7fffffe          BL       LL_ADC_REG_IsConversionOngoing
00000a  b110              CBZ      r0,|L25.18|
;;;1738     {
;;;1739       /* Process locked */
;;;1740       __HAL_LOCK(hadc);
;;;1741   
;;;1742       /* Enable the ADC peripheral */
;;;1743       tmp_hal_status = ADC_Enable(hadc);
;;;1744   
;;;1745       /* Start conversion if ADC is effectively enabled */
;;;1746       if (tmp_hal_status == HAL_OK)
;;;1747       {
;;;1748         /* Set ADC state                                                        */
;;;1749         /* - Clear state bitfield related to regular group conversion results   */
;;;1750         /* - Set state bitfield related to regular operation                    */
;;;1751         ADC_STATE_CLR_SET(hadc->State,
;;;1752                           HAL_ADC_STATE_READY | HAL_ADC_STATE_REG_EOC | HAL_ADC_STATE_REG_OVR | HAL_ADC_STATE_REG_EOSMP,
;;;1753                           HAL_ADC_STATE_REG_BUSY);
;;;1754   
;;;1755   #if defined(ADC_MULTIMODE_SUPPORT)
;;;1756         /* Reset HAL_ADC_STATE_MULTIMODE_SLAVE bit
;;;1757           - if ADC instance is master or if multimode feature is not available
;;;1758           - if multimode setting is disabled (ADC instance slave in independent mode) */
;;;1759         if ((__LL_ADC_MULTI_INSTANCE_MASTER(hadc->Instance) == hadc->Instance)
;;;1760             || (tmp_multimode_config == LL_ADC_MULTI_INDEPENDENT)
;;;1761            )
;;;1762         {
;;;1763           CLEAR_BIT(hadc->State, HAL_ADC_STATE_MULTIMODE_SLAVE);
;;;1764         }
;;;1765   #endif
;;;1766   
;;;1767         /* Set ADC error code */
;;;1768         /* Check if a conversion is on going on ADC group injected */
;;;1769         if ((hadc->State & HAL_ADC_STATE_INJ_BUSY) != 0UL)
;;;1770         {
;;;1771           /* Reset ADC error code fields related to regular conversions only */
;;;1772           CLEAR_BIT(hadc->ErrorCode, (HAL_ADC_ERROR_OVR | HAL_ADC_ERROR_DMA));
;;;1773         }
;;;1774         else
;;;1775         {
;;;1776           /* Reset all ADC error code fields */
;;;1777           ADC_CLEAR_ERRORCODE(hadc);
;;;1778         }
;;;1779   
;;;1780         /* Clear ADC group regular conversion flag and overrun flag               */
;;;1781         /* (To ensure of no unknown state from potential previous ADC operations) */
;;;1782         __HAL_ADC_CLEAR_FLAG(hadc, (ADC_FLAG_EOC | ADC_FLAG_EOS | ADC_FLAG_OVR));
;;;1783   
;;;1784         /* Process unlocked */
;;;1785         /* Unlock before starting ADC conversions: in case of potential         */
;;;1786         /* interruption, to let the process to ADC IRQ Handler.                 */
;;;1787         __HAL_UNLOCK(hadc);
;;;1788   
;;;1789         /* Disable all interruptions before enabling the desired ones */
;;;1790         __HAL_ADC_DISABLE_IT(hadc, (ADC_IT_EOC | ADC_IT_EOS | ADC_IT_OVR));
;;;1791   
;;;1792         /* Enable ADC end of conversion interrupt */
;;;1793         switch (hadc->Init.EOCSelection)
;;;1794         {
;;;1795           case ADC_EOC_SEQ_CONV:
;;;1796             __HAL_ADC_ENABLE_IT(hadc, ADC_IT_EOS);
;;;1797             break;
;;;1798           /* case ADC_EOC_SINGLE_CONV */
;;;1799           default:
;;;1800             __HAL_ADC_ENABLE_IT(hadc, ADC_IT_EOC);
;;;1801             break;
;;;1802         }
;;;1803   
;;;1804         /* Enable ADC overrun interrupt */
;;;1805         /* If hadc->Init.Overrun is set to ADC_OVR_DATA_PRESERVED, only then is
;;;1806            ADC_IT_OVR enabled; otherwise data overwrite is considered as normal
;;;1807            behavior and no CPU time is lost for a non-processed interruption */
;;;1808         if (hadc->Init.Overrun == ADC_OVR_DATA_PRESERVED)
;;;1809         {
;;;1810           __HAL_ADC_ENABLE_IT(hadc, ADC_IT_OVR);
;;;1811         }
;;;1812   
;;;1813         /* Enable conversion of regular group.                                  */
;;;1814         /* If software start has been selected, conversion starts immediately.  */
;;;1815         /* If external trigger has been selected, conversion will start at next */
;;;1816         /* trigger event.                                                       */
;;;1817         /* Case of multimode enabled (when multimode feature is available):     */
;;;1818         /*  - if ADC is slave and dual regular conversions are enabled, ADC is  */
;;;1819         /*    enabled only (conversion is not started),                         */
;;;1820         /*  - if ADC is master, ADC is enabled and conversion is started.       */
;;;1821   #if defined(ADC_MULTIMODE_SUPPORT)
;;;1822         if ((__LL_ADC_MULTI_INSTANCE_MASTER(hadc->Instance) == hadc->Instance)
;;;1823             || (tmp_multimode_config == LL_ADC_MULTI_INDEPENDENT)
;;;1824             || (tmp_multimode_config == LL_ADC_MULTI_DUAL_INJ_SIMULT)
;;;1825             || (tmp_multimode_config == LL_ADC_MULTI_DUAL_INJ_ALTERN)
;;;1826            )
;;;1827         {
;;;1828           /* ADC instance is not a multimode slave instance with multimode regular conversions enabled */
;;;1829           if (READ_BIT(hadc->Instance->CFGR, ADC_CFGR_JAUTO) != 0UL)
;;;1830           {
;;;1831             ADC_STATE_CLR_SET(hadc->State, HAL_ADC_STATE_INJ_EOC, HAL_ADC_STATE_INJ_BUSY);
;;;1832   
;;;1833             /* Enable as well injected interruptions in case
;;;1834              HAL_ADCEx_InjectedStart_IT() has not been called beforehand. This
;;;1835              allows to start regular and injected conversions when JAUTO is
;;;1836              set with a single call to HAL_ADC_Start_IT() */
;;;1837             switch (hadc->Init.EOCSelection)
;;;1838             {
;;;1839               case ADC_EOC_SEQ_CONV:
;;;1840                 __HAL_ADC_DISABLE_IT(hadc, ADC_IT_JEOC);
;;;1841                 __HAL_ADC_ENABLE_IT(hadc, ADC_IT_JEOS);
;;;1842                 break;
;;;1843               /* case ADC_EOC_SINGLE_CONV */
;;;1844               default:
;;;1845                 __HAL_ADC_DISABLE_IT(hadc, ADC_IT_JEOS);
;;;1846                 __HAL_ADC_ENABLE_IT(hadc, ADC_IT_JEOC);
;;;1847                 break;
;;;1848             }
;;;1849           }
;;;1850   
;;;1851           /* Start ADC group regular conversion */
;;;1852           LL_ADC_REG_StartConversion(hadc->Instance);
;;;1853         }
;;;1854         else
;;;1855         {
;;;1856           /* ADC instance is a multimode slave instance with multimode regular conversions enabled */
;;;1857           SET_BIT(hadc->State, HAL_ADC_STATE_MULTIMODE_SLAVE);
;;;1858           /* if Master ADC JAUTO bit is set, Slave injected interruptions
;;;1859              are enabled nevertheless (for same reason as above) */
;;;1860           tmpADC_Master = __LL_ADC_MULTI_INSTANCE_MASTER(hadc->Instance);
;;;1861           if (READ_BIT(tmpADC_Master->CFGR, ADC_CFGR_JAUTO) != 0UL)
;;;1862           {
;;;1863             /* First, update Slave State in setting HAL_ADC_STATE_INJ_BUSY bit
;;;1864                and in resetting HAL_ADC_STATE_INJ_EOC bit */
;;;1865             ADC_STATE_CLR_SET(hadc->State, HAL_ADC_STATE_INJ_EOC, HAL_ADC_STATE_INJ_BUSY);
;;;1866             /* Next, set Slave injected interruptions */
;;;1867             switch (hadc->Init.EOCSelection)
;;;1868             {
;;;1869               case ADC_EOC_SEQ_CONV:
;;;1870                 __HAL_ADC_DISABLE_IT(hadc, ADC_IT_JEOC);
;;;1871                 __HAL_ADC_ENABLE_IT(hadc, ADC_IT_JEOS);
;;;1872                 break;
;;;1873               /* case ADC_EOC_SINGLE_CONV */
;;;1874               default:
;;;1875                 __HAL_ADC_DISABLE_IT(hadc, ADC_IT_JEOS);
;;;1876                 __HAL_ADC_ENABLE_IT(hadc, ADC_IT_JEOC);
;;;1877                 break;
;;;1878             }
;;;1879           }
;;;1880         }
;;;1881   #else
;;;1882         /* ADC instance is not a multimode slave instance with multimode regular conversions enabled */
;;;1883         if (READ_BIT(hadc->Instance->CFGR, ADC_CFGR_JAUTO) != 0UL)
;;;1884         {
;;;1885           ADC_STATE_CLR_SET(hadc->State, HAL_ADC_STATE_INJ_EOC, HAL_ADC_STATE_INJ_BUSY);
;;;1886   
;;;1887           /* Enable as well injected interruptions in case
;;;1888            HAL_ADCEx_InjectedStart_IT() has not been called beforehand. This
;;;1889            allows to start regular and injected conversions when JAUTO is
;;;1890            set with a single call to HAL_ADC_Start_IT() */
;;;1891           switch (hadc->Init.EOCSelection)
;;;1892           {
;;;1893             case ADC_EOC_SEQ_CONV:
;;;1894               __HAL_ADC_DISABLE_IT(hadc, ADC_IT_JEOC);
;;;1895               __HAL_ADC_ENABLE_IT(hadc, ADC_IT_JEOS);
;;;1896               break;
;;;1897             /* case ADC_EOC_SINGLE_CONV */
;;;1898             default:
;;;1899               __HAL_ADC_DISABLE_IT(hadc, ADC_IT_JEOS);
;;;1900               __HAL_ADC_ENABLE_IT(hadc, ADC_IT_JEOC);
;;;1901               break;
;;;1902           }
;;;1903         }
;;;1904   
;;;1905         /* Start ADC group regular conversion */
;;;1906         LL_ADC_REG_StartConversion(hadc->Instance);
;;;1907   #endif
;;;1908       }
;;;1909       else
;;;1910       {
;;;1911         /* Process unlocked */
;;;1912         __HAL_UNLOCK(hadc);
;;;1913       }
;;;1914   
;;;1915     }
;;;1916     else
;;;1917     {
;;;1918       tmp_hal_status = HAL_BUSY;
00000c  2102              MOVS     r1,#2
                  |L25.14|
;;;1919     }
;;;1920   
;;;1921     /* Return function status */
;;;1922     return tmp_hal_status;
00000e  4608              MOV      r0,r1
;;;1923   }
000010  bd10              POP      {r4,pc}
                  |L25.18|
000012  f8940050          LDRB     r0,[r4,#0x50]         ;1740
000016  2801              CMP      r0,#1                 ;1740
000018  d00c              BEQ      |L25.52|
00001a  2001              MOVS     r0,#1                 ;1740
00001c  f8840050          STRB     r0,[r4,#0x50]         ;1740
000020  4620              MOV      r0,r4                 ;1743
000022  f7fffffe          BL       ADC_Enable
000026  0001              MOVS     r1,r0                 ;1743
000028  f04f0000          MOV      r0,#0                 ;1743
00002c  d004              BEQ      |L25.56|
00002e  f8840050          STRB     r0,[r4,#0x50]         ;1912
000032  e7ec              B        |L25.14|
                  |L25.52|
000034  2002              MOVS     r0,#2                 ;1740
000036  bd10              POP      {r4,pc}
                  |L25.56|
000038  6d62              LDR      r2,[r4,#0x54]         ;1751
00003a  f6406301          MOV      r3,#0xe01             ;1751
00003e  439a              BICS     r2,r2,r3              ;1751
000040  f4427280          ORR      r2,r2,#0x100          ;1751
000044  6562              STR      r2,[r4,#0x54]         ;1751
000046  6d62              LDR      r2,[r4,#0x54]         ;1769
000048  04d2              LSLS     r2,r2,#19             ;1769
00004a  d504              BPL      |L25.86|
00004c  6da2              LDR      r2,[r4,#0x58]         ;1772
00004e  f0220206          BIC      r2,r2,#6              ;1772
000052  65a2              STR      r2,[r4,#0x58]         ;1772
000054  e000              B        |L25.88|
                  |L25.86|
000056  65a0              STR      r0,[r4,#0x58]         ;1777
                  |L25.88|
000058  6823              LDR      r3,[r4,#0]            ;1782
00005a  221c              MOVS     r2,#0x1c              ;1782
00005c  601a              STR      r2,[r3,#0]            ;1782
00005e  f8840050          STRB     r0,[r4,#0x50]         ;1787
000062  6820              LDR      r0,[r4,#0]            ;1790
000064  6842              LDR      r2,[r0,#4]            ;1790
000066  f022021c          BIC      r2,r2,#0x1c           ;1790
00006a  6042              STR      r2,[r0,#4]            ;1790
00006c  6960              LDR      r0,[r4,#0x14]         ;1793
00006e  2808              CMP      r0,#8                 ;1793
000070  6820              LDR      r0,[r4,#0]            ;1796
000072  6842              LDR      r2,[r0,#4]            ;1796
000074  d002              BEQ      |L25.124|
000076  f0420204          ORR      r2,r2,#4              ;1800
00007a  e001              B        |L25.128|
                  |L25.124|
00007c  f0420208          ORR      r2,r2,#8              ;1796
                  |L25.128|
000080  6042              STR      r2,[r0,#4]            ;1796
000082  6b60              LDR      r0,[r4,#0x34]         ;1808
000084  b920              CBNZ     r0,|L25.144|
000086  6820              LDR      r0,[r4,#0]            ;1810
000088  6842              LDR      r2,[r0,#4]            ;1810
00008a  f0420210          ORR      r2,r2,#0x10           ;1810
00008e  6042              STR      r2,[r0,#4]            ;1810
                  |L25.144|
000090  6820              LDR      r0,[r4,#0]            ;1883
000092  68c2              LDR      r2,[r0,#0xc]          ;1883
000094  0192              LSLS     r2,r2,#6              ;1883
000096  d519              BPL      |L25.204|
000098  6d62              LDR      r2,[r4,#0x54]         ;1885
00009a  f4225200          BIC      r2,r2,#0x2000         ;1885
00009e  f4425280          ORR      r2,r2,#0x1000         ;1885
0000a2  6562              STR      r2,[r4,#0x54]         ;1885
0000a4  6962              LDR      r2,[r4,#0x14]         ;1891
0000a6  2a08              CMP      r2,#8                 ;1891
0000a8  6842              LDR      r2,[r0,#4]            ;1894
0000aa  d007              BEQ      |L25.188|
0000ac  f0220240          BIC      r2,r2,#0x40           ;1899
0000b0  6042              STR      r2,[r0,#4]            ;1899
0000b2  6820              LDR      r0,[r4,#0]            ;1900
0000b4  6842              LDR      r2,[r0,#4]            ;1900
0000b6  f0420220          ORR      r2,r2,#0x20           ;1900
0000ba  e006              B        |L25.202|
                  |L25.188|
0000bc  f0220220          BIC      r2,r2,#0x20           ;1894
0000c0  6042              STR      r2,[r0,#4]            ;1894
0000c2  6820              LDR      r0,[r4,#0]            ;1895
0000c4  6842              LDR      r2,[r0,#4]            ;1895
0000c6  f0420240          ORR      r2,r2,#0x40           ;1895
                  |L25.202|
0000ca  6042              STR      r2,[r0,#4]            ;1900
                  |L25.204|
0000cc  6820              LDR      r0,[r4,#0]            ;1900
0000ce  6882              LDR      r2,[r0,#8]            ;1900
0000d0  4b02              LDR      r3,|L25.220|
0000d2  401a              ANDS     r2,r2,r3              ;1900
0000d4  1d12              ADDS     r2,r2,#4              ;1900
0000d6  6082              STR      r2,[r0,#8]            ;1900
0000d8  e799              B        |L25.14|
;;;1924   
                          ENDP

0000da  0000              DCW      0x0000
                  |L25.220|
                          DCD      0x7fffffc0

                          AREA ||i.HAL_ADC_Stop||, CODE, READONLY, ALIGN=1

                  HAL_ADC_Stop PROC
;;;1338     */
;;;1339   HAL_StatusTypeDef HAL_ADC_Stop(ADC_HandleTypeDef *hadc)
000000  b510              PUSH     {r4,lr}
;;;1340   {
000002  4604              MOV      r4,r0
;;;1341     HAL_StatusTypeDef tmp_hal_status;
;;;1342   
;;;1343     /* Check the parameters */
;;;1344     assert_param(IS_ADC_ALL_INSTANCE(hadc->Instance));
;;;1345   
;;;1346     /* Process locked */
;;;1347     __HAL_LOCK(hadc);
000004  f8900050          LDRB     r0,[r0,#0x50]
000008  2801              CMP      r0,#1
00000a  d008              BEQ      |L26.30|
00000c  2001              MOVS     r0,#1
00000e  f8840050          STRB     r0,[r4,#0x50]
;;;1348   
;;;1349     /* 1. Stop potential conversion on going, on ADC groups regular and injected */
;;;1350     tmp_hal_status = ADC_ConversionStop(hadc, ADC_REGULAR_INJECTED_GROUP);
000012  2103              MOVS     r1,#3
000014  4620              MOV      r0,r4
000016  f7fffffe          BL       ADC_ConversionStop
00001a  b110              CBZ      r0,|L26.34|
00001c  e00b              B        |L26.54|
                  |L26.30|
00001e  2002              MOVS     r0,#2                 ;1347
;;;1351   
;;;1352     /* Disable ADC peripheral if conversions are effectively stopped */
;;;1353     if (tmp_hal_status == HAL_OK)
;;;1354     {
;;;1355       /* 2. Disable the ADC peripheral */
;;;1356       tmp_hal_status = ADC_Disable(hadc);
;;;1357   
;;;1358       /* Check if ADC is effectively disabled */
;;;1359       if (tmp_hal_status == HAL_OK)
;;;1360       {
;;;1361         /* Set ADC state */
;;;1362         ADC_STATE_CLR_SET(hadc->State,
;;;1363                           HAL_ADC_STATE_REG_BUSY | HAL_ADC_STATE_INJ_BUSY,
;;;1364                           HAL_ADC_STATE_READY);
;;;1365       }
;;;1366     }
;;;1367   
;;;1368     /* Process unlocked */
;;;1369     __HAL_UNLOCK(hadc);
;;;1370   
;;;1371     /* Return function status */
;;;1372     return tmp_hal_status;
;;;1373   }
000020  bd10              POP      {r4,pc}
                  |L26.34|
000022  4620              MOV      r0,r4                 ;1356
000024  f7fffffe          BL       ADC_Disable
000028  b928              CBNZ     r0,|L26.54|
00002a  6d61              LDR      r1,[r4,#0x54]         ;1362
00002c  f4215188          BIC      r1,r1,#0x1100         ;1362
000030  f0410101          ORR      r1,r1,#1              ;1362
000034  6561              STR      r1,[r4,#0x54]         ;1362
                  |L26.54|
000036  2100              MOVS     r1,#0                 ;1369
000038  f8841050          STRB     r1,[r4,#0x50]         ;1369
00003c  bd10              POP      {r4,pc}
;;;1374   
                          ENDP


                          AREA ||i.HAL_ADC_Stop_DMA||, CODE, READONLY, ALIGN=1

                  HAL_ADC_Stop_DMA PROC
;;;2126     */
;;;2127   HAL_StatusTypeDef HAL_ADC_Stop_DMA(ADC_HandleTypeDef *hadc)
000000  b570              PUSH     {r4-r6,lr}
;;;2128   {
000002  4604              MOV      r4,r0
;;;2129     HAL_StatusTypeDef tmp_hal_status;
;;;2130   
;;;2131     /* Check the parameters */
;;;2132     assert_param(IS_ADC_ALL_INSTANCE(hadc->Instance));
;;;2133   
;;;2134     /* Process locked */
;;;2135     __HAL_LOCK(hadc);
000004  f8900050          LDRB     r0,[r0,#0x50]
000008  2801              CMP      r0,#1
00000a  d009              BEQ      |L27.32|
00000c  2001              MOVS     r0,#1
00000e  f8840050          STRB     r0,[r4,#0x50]
;;;2136   
;;;2137     /* 1. Stop potential ADC group regular conversion on going */
;;;2138     tmp_hal_status = ADC_ConversionStop(hadc, ADC_REGULAR_INJECTED_GROUP);
000012  2103              MOVS     r1,#3
000014  4620              MOV      r0,r4
000016  f7fffffe          BL       ADC_ConversionStop
00001a  0005              MOVS     r5,r0
00001c  d002              BEQ      |L27.36|
00001e  e027              B        |L27.112|
                  |L27.32|
000020  2002              MOVS     r0,#2                 ;2135
;;;2139   
;;;2140     /* Disable ADC peripheral if conversions are effectively stopped */
;;;2141     if (tmp_hal_status == HAL_OK)
;;;2142     {
;;;2143       /* Disable ADC DMA (ADC DMA configuration of continuous requests is kept) */
;;;2144       CLEAR_BIT(hadc->Instance->CFGR, ADC_CFGR_DMAEN);
;;;2145   
;;;2146       /* Disable the DMA channel (in case of DMA in circular mode or stop       */
;;;2147       /* while DMA transfer is on going)                                        */
;;;2148       if (hadc->DMA_Handle->State == HAL_DMA_STATE_BUSY)
;;;2149       {
;;;2150         tmp_hal_status = HAL_DMA_Abort(hadc->DMA_Handle);
;;;2151   
;;;2152         /* Check if DMA channel effectively disabled */
;;;2153         if (tmp_hal_status != HAL_OK)
;;;2154         {
;;;2155           /* Update ADC state machine to error */
;;;2156           SET_BIT(hadc->State, HAL_ADC_STATE_ERROR_DMA);
;;;2157         }
;;;2158       }
;;;2159   
;;;2160       /* Disable ADC overrun interrupt */
;;;2161       __HAL_ADC_DISABLE_IT(hadc, ADC_IT_OVR);
;;;2162   
;;;2163       /* 2. Disable the ADC peripheral */
;;;2164       /* Update "tmp_hal_status" only if DMA channel disabling passed,          */
;;;2165       /* to keep in memory a potential failing status.                          */
;;;2166       if (tmp_hal_status == HAL_OK)
;;;2167       {
;;;2168         tmp_hal_status = ADC_Disable(hadc);
;;;2169       }
;;;2170       else
;;;2171       {
;;;2172         (void)ADC_Disable(hadc);
;;;2173       }
;;;2174   
;;;2175       /* Check if ADC is effectively disabled */
;;;2176       if (tmp_hal_status == HAL_OK)
;;;2177       {
;;;2178         /* Set ADC state */
;;;2179         ADC_STATE_CLR_SET(hadc->State,
;;;2180                           HAL_ADC_STATE_REG_BUSY | HAL_ADC_STATE_INJ_BUSY,
;;;2181                           HAL_ADC_STATE_READY);
;;;2182       }
;;;2183   
;;;2184     }
;;;2185   
;;;2186     /* Process unlocked */
;;;2187     __HAL_UNLOCK(hadc);
;;;2188   
;;;2189     /* Return function status */
;;;2190     return tmp_hal_status;
;;;2191   }
000022  bd70              POP      {r4-r6,pc}
                  |L27.36|
000024  6820              LDR      r0,[r4,#0]            ;2144
000026  68c1              LDR      r1,[r0,#0xc]          ;2144
000028  f0210101          BIC      r1,r1,#1              ;2144
00002c  60c1              STR      r1,[r0,#0xc]          ;2144
00002e  6ce0              LDR      r0,[r4,#0x4c]         ;2148
000030  f8901025          LDRB     r1,[r0,#0x25]         ;2148
000034  2902              CMP      r1,#2                 ;2148
000036  d107              BNE      |L27.72|
000038  f7fffffe          BL       HAL_DMA_Abort
00003c  0005              MOVS     r5,r0                 ;2150
00003e  d003              BEQ      |L27.72|
000040  6d60              LDR      r0,[r4,#0x54]         ;2156
000042  f0400040          ORR      r0,r0,#0x40           ;2156
000046  6560              STR      r0,[r4,#0x54]         ;2156
                  |L27.72|
000048  6820              LDR      r0,[r4,#0]            ;2161
00004a  6841              LDR      r1,[r0,#4]            ;2161
00004c  f0210110          BIC      r1,r1,#0x10           ;2161
000050  6041              STR      r1,[r0,#4]            ;2161
000052  4620              MOV      r0,r4                 ;2172
000054  b115              CBZ      r5,|L27.92|
000056  f7fffffe          BL       ADC_Disable
00005a  e009              B        |L27.112|
                  |L27.92|
00005c  f7fffffe          BL       ADC_Disable
000060  0005              MOVS     r5,r0                 ;2168
000062  d105              BNE      |L27.112|
000064  6d60              LDR      r0,[r4,#0x54]         ;2179
000066  f4205088          BIC      r0,r0,#0x1100         ;2179
00006a  f0400001          ORR      r0,r0,#1              ;2179
00006e  6560              STR      r0,[r4,#0x54]         ;2179
                  |L27.112|
000070  2000              MOVS     r0,#0                 ;2187
000072  f8840050          STRB     r0,[r4,#0x50]         ;2187
000076  4628              MOV      r0,r5                 ;2190
000078  bd70              POP      {r4-r6,pc}
;;;2192   
                          ENDP


                          AREA ||i.HAL_ADC_Stop_IT||, CODE, READONLY, ALIGN=1

                  HAL_ADC_Stop_IT PROC
;;;1931     */
;;;1932   HAL_StatusTypeDef HAL_ADC_Stop_IT(ADC_HandleTypeDef *hadc)
000000  b510              PUSH     {r4,lr}
;;;1933   {
000002  4604              MOV      r4,r0
;;;1934     HAL_StatusTypeDef tmp_hal_status;
;;;1935   
;;;1936     /* Check the parameters */
;;;1937     assert_param(IS_ADC_ALL_INSTANCE(hadc->Instance));
;;;1938   
;;;1939     /* Process locked */
;;;1940     __HAL_LOCK(hadc);
000004  f8900050          LDRB     r0,[r0,#0x50]
000008  2801              CMP      r0,#1
00000a  d008              BEQ      |L28.30|
00000c  2001              MOVS     r0,#1
00000e  f8840050          STRB     r0,[r4,#0x50]
;;;1941   
;;;1942     /* 1. Stop potential conversion on going, on ADC groups regular and injected */
;;;1943     tmp_hal_status = ADC_ConversionStop(hadc, ADC_REGULAR_INJECTED_GROUP);
000012  2103              MOVS     r1,#3
000014  4620              MOV      r0,r4
000016  f7fffffe          BL       ADC_ConversionStop
00001a  b110              CBZ      r0,|L28.34|
00001c  e010              B        |L28.64|
                  |L28.30|
00001e  2002              MOVS     r0,#2                 ;1940
;;;1944   
;;;1945     /* Disable ADC peripheral if conversions are effectively stopped */
;;;1946     if (tmp_hal_status == HAL_OK)
;;;1947     {
;;;1948       /* Disable ADC end of conversion interrupt for regular group */
;;;1949       /* Disable ADC overrun interrupt */
;;;1950       __HAL_ADC_DISABLE_IT(hadc, (ADC_IT_EOC | ADC_IT_EOS | ADC_IT_OVR));
;;;1951   
;;;1952       /* 2. Disable the ADC peripheral */
;;;1953       tmp_hal_status = ADC_Disable(hadc);
;;;1954   
;;;1955       /* Check if ADC is effectively disabled */
;;;1956       if (tmp_hal_status == HAL_OK)
;;;1957       {
;;;1958         /* Set ADC state */
;;;1959         ADC_STATE_CLR_SET(hadc->State,
;;;1960                           HAL_ADC_STATE_REG_BUSY | HAL_ADC_STATE_INJ_BUSY,
;;;1961                           HAL_ADC_STATE_READY);
;;;1962       }
;;;1963     }
;;;1964   
;;;1965     /* Process unlocked */
;;;1966     __HAL_UNLOCK(hadc);
;;;1967   
;;;1968     /* Return function status */
;;;1969     return tmp_hal_status;
;;;1970   }
000020  bd10              POP      {r4,pc}
                  |L28.34|
000022  6820              LDR      r0,[r4,#0]            ;1950
000024  6841              LDR      r1,[r0,#4]            ;1950
000026  f021011c          BIC      r1,r1,#0x1c           ;1950
00002a  6041              STR      r1,[r0,#4]            ;1950
00002c  4620              MOV      r0,r4                 ;1953
00002e  f7fffffe          BL       ADC_Disable
000032  b928              CBNZ     r0,|L28.64|
000034  6d61              LDR      r1,[r4,#0x54]         ;1959
000036  f4215188          BIC      r1,r1,#0x1100         ;1959
00003a  f0410101          ORR      r1,r1,#1              ;1959
00003e  6561              STR      r1,[r4,#0x54]         ;1959
                  |L28.64|
000040  2100              MOVS     r1,#0                 ;1966
000042  f8841050          STRB     r1,[r4,#0x50]         ;1966
000046  bd10              POP      {r4,pc}
;;;1971   
                          ENDP


                          AREA ||i.LL_ADC_ConfigAnalogWDThresholds||, CODE, READONLY, ALIGN=1

                  LL_ADC_ConfigAnalogWDThresholds PROC
;;;5320     */
;;;5321   __STATIC_INLINE void LL_ADC_ConfigAnalogWDThresholds(ADC_TypeDef *ADCx, uint32_t AWDy, uint32_t AWDThresholdHighValue,
000000  b510              PUSH     {r4,lr}
;;;5322                                                        uint32_t AWDThresholdLowValue)
;;;5323   {
;;;5324     /* Set bits with content of parameter "AWDThresholdxxxValue" with bits      */
;;;5325     /* position in register and register position depending on parameter        */
;;;5326     /* "AWDy".                                                                  */
;;;5327     /* Parameters "AWDy" and "AWDThresholdxxxValue" are used with masks because */
;;;5328     /* containing other bits reserved for other purpose.                        */
;;;5329     __IO uint32_t *preg = __ADC_PTR_REG_OFFSET(ADCx->TR1, ((AWDy & ADC_AWD_TRX_REGOFFSET_MASK) >> ADC_AWD_TRX_REGOFFSET_POS));
000002  240c              MOVS     r4,#0xc
000004  ea044191          AND      r1,r4,r1,LSR #18
000008  4408              ADD      r0,r0,r1
;;;5330   
;;;5331     MODIFY_REG(*preg,
00000a  6a01              LDR      r1,[r0,#0x20]
00000c  ea434202          ORR      r2,r3,r2,LSL #16
000010  f00121f0          AND      r1,r1,#0xf000f000
000014  4311              ORRS     r1,r1,r2
000016  6201              STR      r1,[r0,#0x20]
;;;5332                ADC_TR1_HT1 | ADC_TR1_LT1,
;;;5333                (AWDThresholdHighValue << ADC_TR1_HT1_BITOFFSET_POS) | AWDThresholdLowValue);
;;;5334   }
000018  bd10              POP      {r4,pc}
;;;5335   
                          ENDP


                          AREA ||i.LL_ADC_GetOffsetChannel||, CODE, READONLY, ALIGN=1

                  LL_ADC_GetOffsetChannel PROC
;;;3007     */
;;;3008   __STATIC_INLINE uint32_t LL_ADC_GetOffsetChannel(ADC_TypeDef *ADCx, uint32_t Offsety)
000000  eb000081          ADD      r0,r0,r1,LSL #2
;;;3009   {
;;;3010     const __IO uint32_t *preg = __ADC_PTR_REG_OFFSET(ADCx->OFR1, Offsety);
;;;3011   
;;;3012     return (uint32_t) READ_BIT(*preg, ADC_OFR1_OFFSET1_CH);
000004  6e00              LDR      r0,[r0,#0x60]
000006  f00040f8          AND      r0,r0,#0x7c000000
;;;3013   }
00000a  4770              BX       lr
;;;3014   
                          ENDP


                          AREA ||i.LL_ADC_INJ_IsConversionOngoing||, CODE, READONLY, ALIGN=1

                  LL_ADC_INJ_IsConversionOngoing PROC
;;;6352     */
;;;6353   __STATIC_INLINE uint32_t LL_ADC_INJ_IsConversionOngoing(ADC_TypeDef *ADCx)
000000  6880              LDR      r0,[r0,#8]
;;;6354   {
;;;6355     return ((READ_BIT(ADCx->CR, ADC_CR_JADSTART) == (ADC_CR_JADSTART)) ? 1UL : 0UL);
000002  f3c000c0          UBFX     r0,r0,#3,#1
;;;6356   }
000006  4770              BX       lr
;;;6357   
                          ENDP


                          AREA ||i.LL_ADC_REG_IsConversionOngoing||, CODE, READONLY, ALIGN=1

                  LL_ADC_REG_IsConversionOngoing PROC
;;;6169     */
;;;6170   __STATIC_INLINE uint32_t LL_ADC_REG_IsConversionOngoing(ADC_TypeDef *ADCx)
000000  6880              LDR      r0,[r0,#8]
;;;6171   {
;;;6172     return ((READ_BIT(ADCx->CR, ADC_CR_ADSTART) == (ADC_CR_ADSTART)) ? 1UL : 0UL);
000002  f3c00080          UBFX     r0,r0,#2,#1
;;;6173   }
000006  4770              BX       lr
;;;6174   
                          ENDP


                          AREA ||i.LL_ADC_REG_IsTriggerSourceSWStart||, CODE, READONLY, ALIGN=1

                  LL_ADC_REG_IsTriggerSourceSWStart PROC
;;;3247     */
;;;3248   __STATIC_INLINE uint32_t LL_ADC_REG_IsTriggerSourceSWStart(ADC_TypeDef *ADCx)
000000  68c0              LDR      r0,[r0,#0xc]
;;;3249   {
;;;3250     return ((READ_BIT(ADCx->CFGR, ADC_CFGR_EXTEN) == (LL_ADC_REG_TRIG_SOFTWARE & ADC_CFGR_EXTEN)) ? 1UL : 0UL);
000002  f4106f40          TST      r0,#0xc00
000006  d001              BEQ      |L33.12|
000008  2000              MOVS     r0,#0
;;;3251   }
00000a  4770              BX       lr
                  |L33.12|
00000c  2001              MOVS     r0,#1                 ;3250
00000e  4770              BX       lr
;;;3252   
                          ENDP


                          AREA ||i.LL_ADC_SetAnalogWDMonitChannels||, CODE, READONLY, ALIGN=2

                  LL_ADC_SetAnalogWDMonitChannels PROC
;;;5076     */
;;;5077   __STATIC_INLINE void LL_ADC_SetAnalogWDMonitChannels(ADC_TypeDef *ADCx, uint32_t AWDy, uint32_t AWDChannelGroup)
000000  b510              PUSH     {r4,lr}
;;;5078   {
;;;5079     /* Set bits with content of parameter "AWDChannelGroup" with bits position  */
;;;5080     /* in register and register position depending on parameter "AWDy".         */
;;;5081     /* Parameters "AWDChannelGroup" and "AWDy" are used with masks because      */
;;;5082     /* containing other bits reserved for other purpose.                        */
;;;5083     __IO uint32_t *preg = __ADC_PTR_REG_OFFSET(ADCx->CFGR, ((AWDy & ADC_AWD_CRX_REGOFFSET_MASK) >> ADC_AWD_CRX_REGOFFSET_POS)
000002  f0010301          AND      r3,r1,#1
000006  eb0303c3          ADD      r3,r3,r3,LSL #3
00000a  f3c15401          UBFX     r4,r1,#20,#2
00000e  eb040383          ADD      r3,r4,r3,LSL #2
000012  eb000083          ADD      r0,r0,r3,LSL #2
;;;5084                                                + ((AWDy & ADC_AWD_CR12_REGOFFSETGAP_MASK) * ADC_AWD_CR12_REGOFFSETGAP_VAL));
;;;5085   
;;;5086     MODIFY_REG(*preg,
000016  68c3              LDR      r3,[r0,#0xc]
000018  4c03              LDR      r4,|L34.40|
00001a  400a              ANDS     r2,r2,r1
00001c  400c              ANDS     r4,r4,r1
00001e  43a3              BICS     r3,r3,r4
000020  4313              ORRS     r3,r3,r2
000022  60c3              STR      r3,[r0,#0xc]
;;;5087                (AWDy & ADC_AWD_CR_ALL_CHANNEL_MASK),
;;;5088                AWDChannelGroup & AWDy);
;;;5089   }
000024  bd10              POP      {r4,pc}
;;;5090   
                          ENDP

000026  0000              DCW      0x0000
                  |L34.40|
                          DCD      0x7dc7ffff

                          AREA ||i.LL_ADC_SetChannelSamplingTime||, CODE, READONLY, ALIGN=1

                  LL_ADC_SetChannelSamplingTime PROC
;;;4715     */
;;;4716   __STATIC_INLINE void LL_ADC_SetChannelSamplingTime(ADC_TypeDef *ADCx, uint32_t Channel, uint32_t SamplingTime)
000000  2304              MOVS     r3,#4
;;;4717   {
;;;4718     /* Set bits with content of parameter "SamplingTime" with bits position     */
;;;4719     /* in register and register position depending on parameter "Channel".      */
;;;4720     /* Parameter "Channel" is used with masks because containing                */
;;;4721     /* other bits reserved for other purpose.                                   */
;;;4722     __IO uint32_t *preg = __ADC_PTR_REG_OFFSET(ADCx->SMPR1, ((Channel & ADC_CHANNEL_SMPRX_REGOFFSET_MASK) >> ADC_SMPRX_REGOFFSET_POS));
000002  ea0353d1          AND      r3,r3,r1,LSR #23
000006  b510              PUSH     {r4,lr}               ;4717
000008  4418              ADD      r0,r0,r3
;;;4723   
;;;4724     MODIFY_REG(*preg,
00000a  6943              LDR      r3,[r0,#0x14]
00000c  f3c15104          UBFX     r1,r1,#20,#5
000010  2407              MOVS     r4,#7
000012  408c              LSLS     r4,r4,r1
000014  43a3              BICS     r3,r3,r4
000016  408a              LSLS     r2,r2,r1
000018  4313              ORRS     r3,r3,r2
00001a  6143              STR      r3,[r0,#0x14]
;;;4725                ADC_SMPR1_SMP0 << ((Channel & ADC_CHANNEL_SMPx_BITOFFSET_MASK) >> ADC_CHANNEL_SMPx_BITOFFSET_POS),
;;;4726                SamplingTime   << ((Channel & ADC_CHANNEL_SMPx_BITOFFSET_MASK) >> ADC_CHANNEL_SMPx_BITOFFSET_POS));
;;;4727   }
00001c  bd10              POP      {r4,pc}
;;;4728   
                          ENDP


                          AREA ||i.LL_ADC_SetOffsetState||, CODE, READONLY, ALIGN=1

                  LL_ADC_SetOffsetState PROC
;;;3066     */
;;;3067   __STATIC_INLINE void LL_ADC_SetOffsetState(ADC_TypeDef *ADCx, uint32_t Offsety, uint32_t OffsetState)
000000  eb000081          ADD      r0,r0,r1,LSL #2
;;;3068   {
;;;3069     __IO uint32_t *preg = __ADC_PTR_REG_OFFSET(ADCx->OFR1, Offsety);
;;;3070   
;;;3071     MODIFY_REG(*preg,
000004  6e01              LDR      r1,[r0,#0x60]
000006  f0214100          BIC      r1,r1,#0x80000000
00000a  4311              ORRS     r1,r1,r2
00000c  6601              STR      r1,[r0,#0x60]
;;;3072                ADC_OFR1_OFFSET1_EN,
;;;3073                OffsetState);
;;;3074   }
00000e  4770              BX       lr
;;;3075   
                          ENDP


;*** Start embedded assembler ***

#line 1 "../Drivers/STM32L4xx_HAL_Driver/Src/stm32l4xx_hal_adc.c"
	AREA ||.rev16_text||, CODE
	THUMB
	EXPORT |__asm___19_stm32l4xx_hal_adc_c_52ef8f50____REV16|
#line 492 "../Drivers/CMSIS/Include/cmsis_armcc.h"
|__asm___19_stm32l4xx_hal_adc_c_52ef8f50____REV16| PROC
#line 493

 rev16 r0, r0
 bx lr
	ENDP
	AREA ||.revsh_text||, CODE
	THUMB
	EXPORT |__asm___19_stm32l4xx_hal_adc_c_52ef8f50____REVSH|
#line 507
|__asm___19_stm32l4xx_hal_adc_c_52ef8f50____REVSH| PROC
#line 508

 revsh r0, r0
 bx lr
	ENDP
	AREA ||.rrx_text||, CODE
	THUMB
	EXPORT |__asm___19_stm32l4xx_hal_adc_c_52ef8f50____RRX|
#line 694
|__asm___19_stm32l4xx_hal_adc_c_52ef8f50____RRX| PROC
#line 695

 rrx r0, r0
 bx lr
	ENDP

;*** End   embedded assembler ***
