; generated by Component: ARM Compiler 5.06 update 6 (build 750) Tool: ArmCC [4d3637]
; commandline ArmCC [--c99 --split_sections --debug -c --asm --interleave -osmart_tracker_datn_nas\stm32l4xx_hal_uart.o --asm_dir=./ --list_dir=--list --depend=smart_tracker_datn_nas\stm32l4xx_hal_uart.d --cpu=Cortex-M4.fp --apcs=interwork -O3 --diag_suppress=9931 -I../Core/Inc -I../Drivers/STM32L4xx_HAL_Driver/Inc -I../Drivers/STM32L4xx_HAL_Driver/Inc/Legacy -I../Drivers/CMSIS/Device/ST/STM32L4xx/Include -I../Drivers/CMSIS/Include -I../Lib/BSP -I../Lib/Driver_Custom -I../Lib/Services/StorageManager -I../Lib/Task -I../Lib/Utils -I../Middlewares/Third_Party/FreeRTOS/Source/include -I../Middlewares/Third_Party/FreeRTOS/Source/CMSIS_RTOS -I../Middlewares/Third_Party/FreeRTOS/Source/portable/RVDS/ARM_CM4F -I.\RTE\_Smart_tracker_DATN_NAS -ID:\Keil_C\ARM\CMSIS\5.5.1\CMSIS\Core\Include -ID:\Keil_C\Keil\STM32L4xx_DFP\2.2.0\Drivers\CMSIS\Device\ST\STM32L4xx\Include -D__UVISION_VERSION=528 -D_RTE_ -DSTM32L431xx -DUSE_HAL_DRIVER -DSTM32L431xx --omf_browse=smart_tracker_datn_nas\stm32l4xx_hal_uart.crf ../Drivers/STM32L4xx_HAL_Driver/Src/stm32l4xx_hal_uart.c]
                          THUMB

                          AREA ||i.HAL_HalfDuplex_EnableReceiver||, CODE, READONLY, ALIGN=1

                  HAL_HalfDuplex_EnableReceiver PROC
;;;3012     */
;;;3013   HAL_StatusTypeDef HAL_HalfDuplex_EnableReceiver(UART_HandleTypeDef *huart)
000000  f8901074          LDRB     r1,[r0,#0x74]
;;;3014   {
;;;3015     __HAL_LOCK(huart);
000004  2901              CMP      r1,#1
000006  d01d              BEQ      |L1.68|
000008  2101              MOVS     r1,#1
00000a  f8801074          STRB     r1,[r0,#0x74]
;;;3016     huart->gState = HAL_UART_STATE_BUSY;
00000e  2124              MOVS     r1,#0x24
000010  6781              STR      r1,[r0,#0x78]
                  |L1.18|
;;;3017   
;;;3018     /* Clear TE and RE bits */
;;;3019     ATOMIC_CLEAR_BIT(huart->Instance->CR1, (USART_CR1_TE | USART_CR1_RE));
000012  6801              LDR      r1,[r0,#0]
000014  e8512f00          LDREX    r2,[r1,#0]
000018  f022020c          BIC      r2,r2,#0xc
00001c  e8412300          STREX    r3,r2,[r1,#0]
000020  2b00              CMP      r3,#0
000022  d1f6              BNE      |L1.18|
                  |L1.36|
;;;3020   
;;;3021     /* Enable the USART's receive interface by setting the RE bit in the USART CR1 register */
;;;3022     ATOMIC_SET_BIT(huart->Instance->CR1, USART_CR1_RE);
000024  6802              LDR      r2,[r0,#0]
000026  e8521f00          LDREX    r1,[r2,#0]
00002a  f0410104          ORR      r1,r1,#4
00002e  e8421300          STREX    r3,r1,[r2,#0]
000032  2b00              CMP      r3,#0
000034  d1f6              BNE      |L1.36|
;;;3023   
;;;3024     huart->gState = HAL_UART_STATE_READY;
000036  2120              MOVS     r1,#0x20
000038  6781              STR      r1,[r0,#0x78]
;;;3025   
;;;3026     __HAL_UNLOCK(huart);
00003a  2100              MOVS     r1,#0
00003c  f8801074          STRB     r1,[r0,#0x74]
;;;3027   
;;;3028     return HAL_OK;
000040  4608              MOV      r0,r1
;;;3029   }
000042  4770              BX       lr
                  |L1.68|
000044  2002              MOVS     r0,#2                 ;3015
000046  4770              BX       lr
;;;3030   
                          ENDP


                          AREA ||i.HAL_HalfDuplex_EnableTransmitter||, CODE, READONLY, ALIGN=1

                  HAL_HalfDuplex_EnableTransmitter PROC
;;;2989     */
;;;2990   HAL_StatusTypeDef HAL_HalfDuplex_EnableTransmitter(UART_HandleTypeDef *huart)
000000  f8901074          LDRB     r1,[r0,#0x74]
;;;2991   {
;;;2992     __HAL_LOCK(huart);
000004  2901              CMP      r1,#1
000006  d01d              BEQ      |L2.68|
000008  2101              MOVS     r1,#1
00000a  f8801074          STRB     r1,[r0,#0x74]
;;;2993     huart->gState = HAL_UART_STATE_BUSY;
00000e  2124              MOVS     r1,#0x24
000010  6781              STR      r1,[r0,#0x78]
                  |L2.18|
;;;2994   
;;;2995     /* Clear TE and RE bits */
;;;2996     ATOMIC_CLEAR_BIT(huart->Instance->CR1, (USART_CR1_TE | USART_CR1_RE));
000012  6801              LDR      r1,[r0,#0]
000014  e8512f00          LDREX    r2,[r1,#0]
000018  f022020c          BIC      r2,r2,#0xc
00001c  e8412300          STREX    r3,r2,[r1,#0]
000020  2b00              CMP      r3,#0
000022  d1f6              BNE      |L2.18|
                  |L2.36|
;;;2997   
;;;2998     /* Enable the USART's transmit interface by setting the TE bit in the USART CR1 register */
;;;2999     ATOMIC_SET_BIT(huart->Instance->CR1, USART_CR1_TE);
000024  6802              LDR      r2,[r0,#0]
000026  e8521f00          LDREX    r1,[r2,#0]
00002a  f0410108          ORR      r1,r1,#8
00002e  e8421300          STREX    r3,r1,[r2,#0]
000032  2b00              CMP      r3,#0
000034  d1f6              BNE      |L2.36|
;;;3000   
;;;3001     huart->gState = HAL_UART_STATE_READY;
000036  2120              MOVS     r1,#0x20
000038  6781              STR      r1,[r0,#0x78]
;;;3002   
;;;3003     __HAL_UNLOCK(huart);
00003a  2100              MOVS     r1,#0
00003c  f8801074          STRB     r1,[r0,#0x74]
;;;3004   
;;;3005     return HAL_OK;
000040  4608              MOV      r0,r1
;;;3006   }
000042  4770              BX       lr
                  |L2.68|
000044  2002              MOVS     r0,#2                 ;2992
000046  4770              BX       lr
;;;3007   
                          ENDP


                          AREA ||i.HAL_HalfDuplex_Init||, CODE, READONLY, ALIGN=1

                  HAL_HalfDuplex_Init PROC
;;;399      */
;;;400    HAL_StatusTypeDef HAL_HalfDuplex_Init(UART_HandleTypeDef *huart)
000000  b510              PUSH     {r4,lr}
;;;401    {
000002  0004              MOVS     r4,r0
000004  d002              BEQ      |L3.12|
;;;402      /* Check the UART handle allocation */
;;;403      if (huart == NULL)
;;;404      {
;;;405        return HAL_ERROR;
;;;406      }
;;;407    
;;;408      /* Check UART instance */
;;;409      assert_param(IS_UART_HALFDUPLEX_INSTANCE(huart->Instance));
;;;410    
;;;411      if (huart->gState == HAL_UART_STATE_RESET)
000006  6fa0              LDR      r0,[r4,#0x78]
000008  b110              CBZ      r0,|L3.16|
00000a  e007              B        |L3.28|
                  |L3.12|
00000c  2001              MOVS     r0,#1                 ;405
                  |L3.14|
;;;412      {
;;;413        /* Allocate lock resource and initialize it */
;;;414        huart->Lock = HAL_UNLOCKED;
;;;415    
;;;416    #if (USE_HAL_UART_REGISTER_CALLBACKS == 1)
;;;417        UART_InitCallbacksToDefault(huart);
;;;418    
;;;419        if (huart->MspInitCallback == NULL)
;;;420        {
;;;421          huart->MspInitCallback = HAL_UART_MspInit;
;;;422        }
;;;423    
;;;424        /* Init the low level hardware */
;;;425        huart->MspInitCallback(huart);
;;;426    #else
;;;427        /* Init the low level hardware : GPIO, CLOCK */
;;;428        HAL_UART_MspInit(huart);
;;;429    #endif /* (USE_HAL_UART_REGISTER_CALLBACKS) */
;;;430      }
;;;431    
;;;432      huart->gState = HAL_UART_STATE_BUSY;
;;;433    
;;;434      __HAL_UART_DISABLE(huart);
;;;435    
;;;436      /* Set the UART Communication parameters */
;;;437      if (UART_SetConfig(huart) == HAL_ERROR)
;;;438      {
;;;439        return HAL_ERROR;
;;;440      }
;;;441    
;;;442      if (huart->AdvancedInit.AdvFeatureInit != UART_ADVFEATURE_NO_INIT)
;;;443      {
;;;444        UART_AdvFeatureConfig(huart);
;;;445      }
;;;446    
;;;447      /* In half-duplex mode, the following bits must be kept cleared:
;;;448      - LINEN and CLKEN bits in the USART_CR2 register,
;;;449      - SCEN and IREN bits in the USART_CR3 register.*/
;;;450      CLEAR_BIT(huart->Instance->CR2, (USART_CR2_LINEN | USART_CR2_CLKEN));
;;;451      CLEAR_BIT(huart->Instance->CR3, (USART_CR3_IREN | USART_CR3_SCEN));
;;;452    
;;;453      /* Enable the Half-Duplex mode by setting the HDSEL bit in the CR3 register */
;;;454      SET_BIT(huart->Instance->CR3, USART_CR3_HDSEL);
;;;455    
;;;456      __HAL_UART_ENABLE(huart);
;;;457    
;;;458      /* TEACK and/or REACK to check before moving huart->gState and huart->RxState to Ready */
;;;459      return (UART_CheckIdleState(huart));
;;;460    }
00000e  bd10              POP      {r4,pc}
                  |L3.16|
000010  2000              MOVS     r0,#0                 ;414
000012  f8840074          STRB     r0,[r4,#0x74]         ;414
000016  4620              MOV      r0,r4                 ;428
000018  f7fffffe          BL       HAL_UART_MspInit
                  |L3.28|
00001c  2024              MOVS     r0,#0x24              ;432
00001e  67a0              STR      r0,[r4,#0x78]         ;432
000020  6820              LDR      r0,[r4,#0]            ;434
000022  6801              LDR      r1,[r0,#0]            ;434
000024  f0210101          BIC      r1,r1,#1              ;434
000028  6001              STR      r1,[r0,#0]            ;434
00002a  4620              MOV      r0,r4                 ;437
00002c  f7fffffe          BL       UART_SetConfig
000030  2801              CMP      r0,#1                 ;437
000032  d0ec              BEQ      |L3.14|
000034  6a60              LDR      r0,[r4,#0x24]         ;442
000036  b110              CBZ      r0,|L3.62|
000038  4620              MOV      r0,r4                 ;444
00003a  f7fffffe          BL       UART_AdvFeatureConfig
                  |L3.62|
00003e  6820              LDR      r0,[r4,#0]            ;450
000040  6841              LDR      r1,[r0,#4]            ;450
000042  f4214190          BIC      r1,r1,#0x4800         ;450
000046  6041              STR      r1,[r0,#4]            ;450
000048  6820              LDR      r0,[r4,#0]            ;451
00004a  6881              LDR      r1,[r0,#8]            ;451
00004c  f0210122          BIC      r1,r1,#0x22           ;451
000050  6081              STR      r1,[r0,#8]            ;451
000052  6820              LDR      r0,[r4,#0]            ;454
000054  6881              LDR      r1,[r0,#8]            ;454
000056  f0410108          ORR      r1,r1,#8              ;454
00005a  6081              STR      r1,[r0,#8]            ;454
00005c  6820              LDR      r0,[r4,#0]            ;456
00005e  6801              LDR      r1,[r0,#0]            ;456
000060  f0410101          ORR      r1,r1,#1              ;456
000064  6001              STR      r1,[r0,#0]            ;456
000066  4620              MOV      r0,r4                 ;459
000068  e8bd4010          POP      {r4,lr}               ;459
00006c  f7ffbffe          B.W      UART_CheckIdleState
;;;461    
                          ENDP


                          AREA ||i.HAL_LIN_Init||, CODE, READONLY, ALIGN=1

                  HAL_LIN_Init PROC
;;;472      */
;;;473    HAL_StatusTypeDef HAL_LIN_Init(UART_HandleTypeDef *huart, uint32_t BreakDetectLength)
000000  b570              PUSH     {r4-r6,lr}
;;;474    {
000002  460d              MOV      r5,r1
000004  0004              MOVS     r4,r0
000006  d005              BEQ      |L4.20|
;;;475      /* Check the UART handle allocation */
;;;476      if (huart == NULL)
;;;477      {
;;;478        return HAL_ERROR;
;;;479      }
;;;480    
;;;481      /* Check the LIN UART instance */
;;;482      assert_param(IS_UART_LIN_INSTANCE(huart->Instance));
;;;483      /* Check the Break detection length parameter */
;;;484      assert_param(IS_UART_LIN_BREAK_DETECT_LENGTH(BreakDetectLength));
;;;485    
;;;486      /* LIN mode limited to 16-bit oversampling only */
;;;487      if (huart->Init.OverSampling == UART_OVERSAMPLING_8)
000008  69e0              LDR      r0,[r4,#0x1c]
00000a  f5b04f00          CMP      r0,#0x8000
00000e  d001              BEQ      |L4.20|
;;;488      {
;;;489        return HAL_ERROR;
;;;490      }
;;;491      /* LIN mode limited to 8-bit data length */
;;;492      if (huart->Init.WordLength != UART_WORDLENGTH_8B)
000010  68a0              LDR      r0,[r4,#8]
000012  b108              CBZ      r0,|L4.24|
                  |L4.20|
;;;493      {
;;;494        return HAL_ERROR;
000014  2001              MOVS     r0,#1
                  |L4.22|
;;;495      }
;;;496    
;;;497      if (huart->gState == HAL_UART_STATE_RESET)
;;;498      {
;;;499        /* Allocate lock resource and initialize it */
;;;500        huart->Lock = HAL_UNLOCKED;
;;;501    
;;;502    #if (USE_HAL_UART_REGISTER_CALLBACKS == 1)
;;;503        UART_InitCallbacksToDefault(huart);
;;;504    
;;;505        if (huart->MspInitCallback == NULL)
;;;506        {
;;;507          huart->MspInitCallback = HAL_UART_MspInit;
;;;508        }
;;;509    
;;;510        /* Init the low level hardware */
;;;511        huart->MspInitCallback(huart);
;;;512    #else
;;;513        /* Init the low level hardware : GPIO, CLOCK */
;;;514        HAL_UART_MspInit(huart);
;;;515    #endif /* (USE_HAL_UART_REGISTER_CALLBACKS) */
;;;516      }
;;;517    
;;;518      huart->gState = HAL_UART_STATE_BUSY;
;;;519    
;;;520      __HAL_UART_DISABLE(huart);
;;;521    
;;;522      /* Set the UART Communication parameters */
;;;523      if (UART_SetConfig(huart) == HAL_ERROR)
;;;524      {
;;;525        return HAL_ERROR;
;;;526      }
;;;527    
;;;528      if (huart->AdvancedInit.AdvFeatureInit != UART_ADVFEATURE_NO_INIT)
;;;529      {
;;;530        UART_AdvFeatureConfig(huart);
;;;531      }
;;;532    
;;;533      /* In LIN mode, the following bits must be kept cleared:
;;;534      - LINEN and CLKEN bits in the USART_CR2 register,
;;;535      - SCEN and IREN bits in the USART_CR3 register.*/
;;;536      CLEAR_BIT(huart->Instance->CR2, USART_CR2_CLKEN);
;;;537      CLEAR_BIT(huart->Instance->CR3, (USART_CR3_HDSEL | USART_CR3_IREN | USART_CR3_SCEN));
;;;538    
;;;539      /* Enable the LIN mode by setting the LINEN bit in the CR2 register */
;;;540      SET_BIT(huart->Instance->CR2, USART_CR2_LINEN);
;;;541    
;;;542      /* Set the USART LIN Break detection length. */
;;;543      MODIFY_REG(huart->Instance->CR2, USART_CR2_LBDL, BreakDetectLength);
;;;544    
;;;545      __HAL_UART_ENABLE(huart);
;;;546    
;;;547      /* TEACK and/or REACK to check before moving huart->gState and huart->RxState to Ready */
;;;548      return (UART_CheckIdleState(huart));
;;;549    }
000016  bd70              POP      {r4-r6,pc}
                  |L4.24|
000018  6fa0              LDR      r0,[r4,#0x78]         ;497
00001a  b928              CBNZ     r0,|L4.40|
00001c  2000              MOVS     r0,#0                 ;500
00001e  f8840074          STRB     r0,[r4,#0x74]         ;500
000022  4620              MOV      r0,r4                 ;514
000024  f7fffffe          BL       HAL_UART_MspInit
                  |L4.40|
000028  2024              MOVS     r0,#0x24              ;518
00002a  67a0              STR      r0,[r4,#0x78]         ;518
00002c  6820              LDR      r0,[r4,#0]            ;520
00002e  6801              LDR      r1,[r0,#0]            ;520
000030  f0210101          BIC      r1,r1,#1              ;520
000034  6001              STR      r1,[r0,#0]            ;520
000036  4620              MOV      r0,r4                 ;523
000038  f7fffffe          BL       UART_SetConfig
00003c  2801              CMP      r0,#1                 ;523
00003e  d0ea              BEQ      |L4.22|
000040  6a60              LDR      r0,[r4,#0x24]         ;528
000042  b110              CBZ      r0,|L4.74|
000044  4620              MOV      r0,r4                 ;530
000046  f7fffffe          BL       UART_AdvFeatureConfig
                  |L4.74|
00004a  6820              LDR      r0,[r4,#0]            ;536
00004c  6841              LDR      r1,[r0,#4]            ;536
00004e  f4216100          BIC      r1,r1,#0x800          ;536
000052  6041              STR      r1,[r0,#4]            ;536
000054  6820              LDR      r0,[r4,#0]            ;537
000056  6881              LDR      r1,[r0,#8]            ;537
000058  f021012a          BIC      r1,r1,#0x2a           ;537
00005c  6081              STR      r1,[r0,#8]            ;537
00005e  6820              LDR      r0,[r4,#0]            ;540
000060  6841              LDR      r1,[r0,#4]            ;540
000062  f4414180          ORR      r1,r1,#0x4000         ;540
000066  6041              STR      r1,[r0,#4]            ;540
000068  6820              LDR      r0,[r4,#0]            ;543
00006a  6841              LDR      r1,[r0,#4]            ;543
00006c  f0210120          BIC      r1,r1,#0x20           ;543
000070  4329              ORRS     r1,r1,r5              ;543
000072  6041              STR      r1,[r0,#4]            ;543
000074  6820              LDR      r0,[r4,#0]            ;545
000076  6801              LDR      r1,[r0,#0]            ;545
000078  f0410101          ORR      r1,r1,#1              ;545
00007c  6001              STR      r1,[r0,#0]            ;545
00007e  4620              MOV      r0,r4                 ;548
000080  e8bd4070          POP      {r4-r6,lr}            ;548
000084  f7ffbffe          B.W      UART_CheckIdleState
;;;550    
                          ENDP


                          AREA ||i.HAL_LIN_SendBreak||, CODE, READONLY, ALIGN=1

                  HAL_LIN_SendBreak PROC
;;;3036     */
;;;3037   HAL_StatusTypeDef HAL_LIN_SendBreak(UART_HandleTypeDef *huart)
000000  f8901074          LDRB     r1,[r0,#0x74]
;;;3038   {
;;;3039     /* Check the parameters */
;;;3040     assert_param(IS_UART_LIN_INSTANCE(huart->Instance));
;;;3041   
;;;3042     __HAL_LOCK(huart);
000004  2901              CMP      r1,#1
000006  d010              BEQ      |L5.42|
000008  2101              MOVS     r1,#1
00000a  f8801074          STRB     r1,[r0,#0x74]
;;;3043   
;;;3044     huart->gState = HAL_UART_STATE_BUSY;
00000e  2124              MOVS     r1,#0x24
000010  6781              STR      r1,[r0,#0x78]
;;;3045   
;;;3046     /* Send break characters */
;;;3047     __HAL_UART_SEND_REQ(huart, UART_SENDBREAK_REQUEST);
000012  6801              LDR      r1,[r0,#0]
000014  8b0a              LDRH     r2,[r1,#0x18]
000016  f0420202          ORR      r2,r2,#2
00001a  830a              STRH     r2,[r1,#0x18]
;;;3048   
;;;3049     huart->gState = HAL_UART_STATE_READY;
00001c  2120              MOVS     r1,#0x20
00001e  6781              STR      r1,[r0,#0x78]
;;;3050   
;;;3051     __HAL_UNLOCK(huart);
000020  2100              MOVS     r1,#0
000022  f8801074          STRB     r1,[r0,#0x74]
;;;3052   
;;;3053     return HAL_OK;
000026  4608              MOV      r0,r1
;;;3054   }
000028  4770              BX       lr
                  |L5.42|
00002a  2002              MOVS     r0,#2                 ;3042
00002c  4770              BX       lr
;;;3055   
                          ENDP


                          AREA ||i.HAL_MultiProcessor_DisableMuteMode||, CODE, READONLY, ALIGN=1

                  HAL_MultiProcessor_DisableMuteMode PROC
;;;2959     */
;;;2960   HAL_StatusTypeDef HAL_MultiProcessor_DisableMuteMode(UART_HandleTypeDef *huart)
000000  f8901074          LDRB     r1,[r0,#0x74]
;;;2961   {
;;;2962     __HAL_LOCK(huart);
000004  2901              CMP      r1,#1
000006  d011              BEQ      |L6.44|
000008  2101              MOVS     r1,#1
00000a  f8801074          STRB     r1,[r0,#0x74]
;;;2963   
;;;2964     huart->gState = HAL_UART_STATE_BUSY;
00000e  2124              MOVS     r1,#0x24
000010  6781              STR      r1,[r0,#0x78]
                  |L6.18|
;;;2965   
;;;2966     /* Disable USART mute mode by clearing the MME bit in the CR1 register */
;;;2967     ATOMIC_CLEAR_BIT(huart->Instance->CR1, USART_CR1_MME);
000012  6802              LDR      r2,[r0,#0]
000014  e8521f00          LDREX    r1,[r2,#0]
000018  f4215100          BIC      r1,r1,#0x2000
00001c  e8421300          STREX    r3,r1,[r2,#0]
000020  2b00              CMP      r3,#0
000022  d1f6              BNE      |L6.18|
;;;2968   
;;;2969     huart->gState = HAL_UART_STATE_READY;
000024  2120              MOVS     r1,#0x20
000026  6781              STR      r1,[r0,#0x78]
;;;2970   
;;;2971     return (UART_CheckIdleState(huart));
000028  f7ffbffe          B.W      UART_CheckIdleState
                  |L6.44|
00002c  2002              MOVS     r0,#2                 ;2962
;;;2972   }
00002e  4770              BX       lr
;;;2973   
                          ENDP


                          AREA ||i.HAL_MultiProcessor_EnableMuteMode||, CODE, READONLY, ALIGN=1

                  HAL_MultiProcessor_EnableMuteMode PROC
;;;2939     */
;;;2940   HAL_StatusTypeDef HAL_MultiProcessor_EnableMuteMode(UART_HandleTypeDef *huart)
000000  f8901074          LDRB     r1,[r0,#0x74]
;;;2941   {
;;;2942     __HAL_LOCK(huart);
000004  2901              CMP      r1,#1
000006  d011              BEQ      |L7.44|
000008  2101              MOVS     r1,#1
00000a  f8801074          STRB     r1,[r0,#0x74]
;;;2943   
;;;2944     huart->gState = HAL_UART_STATE_BUSY;
00000e  2124              MOVS     r1,#0x24
000010  6781              STR      r1,[r0,#0x78]
                  |L7.18|
;;;2945   
;;;2946     /* Enable USART mute mode by setting the MME bit in the CR1 register */
;;;2947     ATOMIC_SET_BIT(huart->Instance->CR1, USART_CR1_MME);
000012  6802              LDR      r2,[r0,#0]
000014  e8521f00          LDREX    r1,[r2,#0]
000018  f4415100          ORR      r1,r1,#0x2000
00001c  e8421300          STREX    r3,r1,[r2,#0]
000020  2b00              CMP      r3,#0
000022  d1f6              BNE      |L7.18|
;;;2948   
;;;2949     huart->gState = HAL_UART_STATE_READY;
000024  2120              MOVS     r1,#0x20
000026  6781              STR      r1,[r0,#0x78]
;;;2950   
;;;2951     return (UART_CheckIdleState(huart));
000028  f7ffbffe          B.W      UART_CheckIdleState
                  |L7.44|
00002c  2002              MOVS     r0,#2                 ;2942
;;;2952   }
00002e  4770              BX       lr
;;;2953   
                          ENDP


                          AREA ||i.HAL_MultiProcessor_EnterMuteMode||, CODE, READONLY, ALIGN=1

                  HAL_MultiProcessor_EnterMuteMode PROC
;;;2979     */
;;;2980   void HAL_MultiProcessor_EnterMuteMode(UART_HandleTypeDef *huart)
000000  6800              LDR      r0,[r0,#0]
;;;2981   {
;;;2982     __HAL_UART_SEND_REQ(huart, UART_MUTE_MODE_REQUEST);
000002  8b01              LDRH     r1,[r0,#0x18]
000004  f0410104          ORR      r1,r1,#4
000008  8301              STRH     r1,[r0,#0x18]
;;;2983   }
00000a  4770              BX       lr
;;;2984   
                          ENDP


                          AREA ||i.HAL_MultiProcessor_Init||, CODE, READONLY, ALIGN=1

                  HAL_MultiProcessor_Init PROC
;;;569      */
;;;570    HAL_StatusTypeDef HAL_MultiProcessor_Init(UART_HandleTypeDef *huart, uint8_t Address, uint32_t WakeUpMethod)
000000  b570              PUSH     {r4-r6,lr}
;;;571    {
000002  4615              MOV      r5,r2
000004  460e              MOV      r6,r1
000006  0004              MOVS     r4,r0
000008  d002              BEQ      |L9.16|
;;;572      /* Check the UART handle allocation */
;;;573      if (huart == NULL)
;;;574      {
;;;575        return HAL_ERROR;
;;;576      }
;;;577    
;;;578      /* Check the wake up method parameter */
;;;579      assert_param(IS_UART_WAKEUPMETHOD(WakeUpMethod));
;;;580    
;;;581      if (huart->gState == HAL_UART_STATE_RESET)
00000a  6fa0              LDR      r0,[r4,#0x78]
00000c  b110              CBZ      r0,|L9.20|
00000e  e007              B        |L9.32|
                  |L9.16|
000010  2001              MOVS     r0,#1                 ;575
                  |L9.18|
;;;582      {
;;;583        /* Allocate lock resource and initialize it */
;;;584        huart->Lock = HAL_UNLOCKED;
;;;585    
;;;586    #if (USE_HAL_UART_REGISTER_CALLBACKS == 1)
;;;587        UART_InitCallbacksToDefault(huart);
;;;588    
;;;589        if (huart->MspInitCallback == NULL)
;;;590        {
;;;591          huart->MspInitCallback = HAL_UART_MspInit;
;;;592        }
;;;593    
;;;594        /* Init the low level hardware */
;;;595        huart->MspInitCallback(huart);
;;;596    #else
;;;597        /* Init the low level hardware : GPIO, CLOCK */
;;;598        HAL_UART_MspInit(huart);
;;;599    #endif /* (USE_HAL_UART_REGISTER_CALLBACKS) */
;;;600      }
;;;601    
;;;602      huart->gState = HAL_UART_STATE_BUSY;
;;;603    
;;;604      __HAL_UART_DISABLE(huart);
;;;605    
;;;606      /* Set the UART Communication parameters */
;;;607      if (UART_SetConfig(huart) == HAL_ERROR)
;;;608      {
;;;609        return HAL_ERROR;
;;;610      }
;;;611    
;;;612      if (huart->AdvancedInit.AdvFeatureInit != UART_ADVFEATURE_NO_INIT)
;;;613      {
;;;614        UART_AdvFeatureConfig(huart);
;;;615      }
;;;616    
;;;617      /* In multiprocessor mode, the following bits must be kept cleared:
;;;618      - LINEN and CLKEN bits in the USART_CR2 register,
;;;619      - SCEN, HDSEL and IREN  bits in the USART_CR3 register. */
;;;620      CLEAR_BIT(huart->Instance->CR2, (USART_CR2_LINEN | USART_CR2_CLKEN));
;;;621      CLEAR_BIT(huart->Instance->CR3, (USART_CR3_SCEN | USART_CR3_HDSEL | USART_CR3_IREN));
;;;622    
;;;623      if (WakeUpMethod == UART_WAKEUPMETHOD_ADDRESSMARK)
;;;624      {
;;;625        /* If address mark wake up method is chosen, set the USART address node */
;;;626        MODIFY_REG(huart->Instance->CR2, USART_CR2_ADD, ((uint32_t)Address << UART_CR2_ADDRESS_LSB_POS));
;;;627      }
;;;628    
;;;629      /* Set the wake up method by setting the WAKE bit in the CR1 register */
;;;630      MODIFY_REG(huart->Instance->CR1, USART_CR1_WAKE, WakeUpMethod);
;;;631    
;;;632      __HAL_UART_ENABLE(huart);
;;;633    
;;;634      /* TEACK and/or REACK to check before moving huart->gState and huart->RxState to Ready */
;;;635      return (UART_CheckIdleState(huart));
;;;636    }
000012  bd70              POP      {r4-r6,pc}
                  |L9.20|
000014  2000              MOVS     r0,#0                 ;584
000016  f8840074          STRB     r0,[r4,#0x74]         ;584
00001a  4620              MOV      r0,r4                 ;598
00001c  f7fffffe          BL       HAL_UART_MspInit
                  |L9.32|
000020  2024              MOVS     r0,#0x24              ;602
000022  67a0              STR      r0,[r4,#0x78]         ;602
000024  6820              LDR      r0,[r4,#0]            ;604
000026  6801              LDR      r1,[r0,#0]            ;604
000028  f0210101          BIC      r1,r1,#1              ;604
00002c  6001              STR      r1,[r0,#0]            ;604
00002e  4620              MOV      r0,r4                 ;607
000030  f7fffffe          BL       UART_SetConfig
000034  2801              CMP      r0,#1                 ;607
000036  d0ec              BEQ      |L9.18|
000038  6a60              LDR      r0,[r4,#0x24]         ;612
00003a  b110              CBZ      r0,|L9.66|
00003c  4620              MOV      r0,r4                 ;614
00003e  f7fffffe          BL       UART_AdvFeatureConfig
                  |L9.66|
000042  6820              LDR      r0,[r4,#0]            ;620
000044  6841              LDR      r1,[r0,#4]            ;620
000046  f4214190          BIC      r1,r1,#0x4800         ;620
00004a  6041              STR      r1,[r0,#4]            ;620
00004c  6820              LDR      r0,[r4,#0]            ;621
00004e  6881              LDR      r1,[r0,#8]            ;621
000050  f021012a          BIC      r1,r1,#0x2a           ;621
000054  6081              STR      r1,[r0,#8]            ;621
000056  f5b56f00          CMP      r5,#0x800             ;623
00005a  d104              BNE      |L9.102|
00005c  6820              LDR      r0,[r4,#0]            ;626
00005e  6841              LDR      r1,[r0,#4]            ;626
000060  f366611f          BFI      r1,r6,#24,#8          ;626
000064  6041              STR      r1,[r0,#4]            ;626
                  |L9.102|
000066  6820              LDR      r0,[r4,#0]            ;630
000068  6801              LDR      r1,[r0,#0]            ;630
00006a  f4216100          BIC      r1,r1,#0x800          ;630
00006e  4329              ORRS     r1,r1,r5              ;630
000070  6001              STR      r1,[r0,#0]            ;630
000072  6820              LDR      r0,[r4,#0]            ;632
000074  6801              LDR      r1,[r0,#0]            ;632
000076  f0410101          ORR      r1,r1,#1              ;632
00007a  6001              STR      r1,[r0,#0]            ;632
00007c  4620              MOV      r0,r4                 ;635
00007e  e8bd4070          POP      {r4-r6,lr}            ;635
000082  f7ffbffe          B.W      UART_CheckIdleState
;;;637    
                          ENDP


                          AREA ||i.HAL_UARTEx_RxEventCallback||, CODE, READONLY, ALIGN=1

                  HAL_UARTEx_RxEventCallback PROC
;;;2800     */
;;;2801   __weak void HAL_UARTEx_RxEventCallback(UART_HandleTypeDef *huart, uint16_t Size)
000000  4770              BX       lr
;;;2802   {
;;;2803     /* Prevent unused argument(s) compilation warning */
;;;2804     UNUSED(huart);
;;;2805     UNUSED(Size);
;;;2806   
;;;2807     /* NOTE : This function should not be modified, when the callback is needed,
;;;2808               the HAL_UARTEx_RxEventCallback can be implemented in the user file.
;;;2809      */
;;;2810   }
;;;2811   
                          ENDP


                          AREA ||i.HAL_UART_Abort||, CODE, READONLY, ALIGN=1

                  HAL_UART_Abort PROC
;;;1715     */
;;;1716   HAL_StatusTypeDef HAL_UART_Abort(UART_HandleTypeDef *huart)
000000  b570              PUSH     {r4-r6,lr}
;;;1717   {
000002  4604              MOV      r4,r0
                  |L11.4|
;;;1718   #if defined(USART_CR1_FIFOEN)
;;;1719     /* Disable TXE, TC, RXNE, PE, RXFT, TXFT and ERR (Frame error, noise error, overrun error) interrupts */
;;;1720     ATOMIC_CLEAR_BIT(huart->Instance->CR1, (USART_CR1_RXNEIE_RXFNEIE | USART_CR1_PEIE |
;;;1721                                             USART_CR1_TXEIE_TXFNFIE | USART_CR1_TCIE));
;;;1722     ATOMIC_CLEAR_BIT(huart->Instance->CR3, USART_CR3_EIE | USART_CR3_RXFTIE | USART_CR3_TXFTIE);
;;;1723   #else
;;;1724     /* Disable TXEIE, TCIE, RXNE, PE and ERR (Frame error, noise error, overrun error) interrupts */
;;;1725     ATOMIC_CLEAR_BIT(huart->Instance->CR1, (USART_CR1_RXNEIE | USART_CR1_PEIE | USART_CR1_TXEIE | USART_CR1_TCIE));
000004  6821              LDR      r1,[r4,#0]
000006  e8510f00          LDREX    r0,[r1,#0]
00000a  f42070f0          BIC      r0,r0,#0x1e0
00000e  e8410200          STREX    r2,r0,[r1,#0]
000012  2a00              CMP      r2,#0
000014  d1f6              BNE      |L11.4|
                  |L11.22|
;;;1726     ATOMIC_CLEAR_BIT(huart->Instance->CR3, USART_CR3_EIE);
000016  6820              LDR      r0,[r4,#0]
000018  3008              ADDS     r0,r0,#8
00001a  e8501f00          LDREX    r1,[r0,#0]
00001e  f0210101          BIC      r1,r1,#1
000022  e8401200          STREX    r2,r1,[r0,#0]
000026  2a00              CMP      r2,#0
000028  d1f5              BNE      |L11.22|
;;;1727   #endif /* USART_CR1_FIFOEN */
;;;1728   
;;;1729     /* If Reception till IDLE event was ongoing, disable IDLEIE interrupt */
;;;1730     if (huart->ReceptionType == HAL_UART_RECEPTION_TOIDLE)
00002a  6e20              LDR      r0,[r4,#0x60]
00002c  2801              CMP      r0,#1
00002e  d108              BNE      |L11.66|
                  |L11.48|
;;;1731     {
;;;1732       ATOMIC_CLEAR_BIT(huart->Instance->CR1, (USART_CR1_IDLEIE));
000030  6821              LDR      r1,[r4,#0]
000032  e8510f00          LDREX    r0,[r1,#0]
000036  f0200010          BIC      r0,r0,#0x10
00003a  e8410200          STREX    r2,r0,[r1,#0]
00003e  2a00              CMP      r2,#0
000040  d1f6              BNE      |L11.48|
                  |L11.66|
;;;1733     }
;;;1734   
;;;1735     /* Abort the UART DMA Tx channel if enabled */
;;;1736     if (HAL_IS_BIT_SET(huart->Instance->CR3, USART_CR3_DMAT))
000042  6820              LDR      r0,[r4,#0]
000044  6880              LDR      r0,[r0,#8]
;;;1737     {
;;;1738       /* Disable the UART DMA Tx request if enabled */
;;;1739       ATOMIC_CLEAR_BIT(huart->Instance->CR3, USART_CR3_DMAT);
;;;1740   
;;;1741       /* Abort the UART DMA Tx channel : use blocking DMA Abort API (no callback) */
;;;1742       if (huart->hdmatx != NULL)
;;;1743       {
;;;1744         /* Set the UART DMA Abort callback to Null.
;;;1745            No call back execution at end of DMA abort procedure */
;;;1746         huart->hdmatx->XferAbortCallback = NULL;
;;;1747   
;;;1748         if (HAL_DMA_Abort(huart->hdmatx) != HAL_OK)
;;;1749         {
;;;1750           if (HAL_DMA_GetError(huart->hdmatx) == HAL_DMA_ERROR_TIMEOUT)
;;;1751           {
;;;1752             /* Set error code to DMA */
;;;1753             huart->ErrorCode = HAL_UART_ERROR_DMA;
000046  f04f0610          MOV      r6,#0x10
00004a  0600              LSLS     r0,r0,#24             ;1736
00004c  f04f0500          MOV      r5,#0
000050  d515              BPL      |L11.126|
                  |L11.82|
000052  6820              LDR      r0,[r4,#0]            ;1739
000054  3008              ADDS     r0,r0,#8              ;1739
000056  e8501f00          LDREX    r1,[r0,#0]            ;1739
00005a  f0210180          BIC      r1,r1,#0x80           ;1739
00005e  e8401200          STREX    r2,r1,[r0,#0]         ;1739
000062  2a00              CMP      r2,#0                 ;1739
000064  d1f5              BNE      |L11.82|
000066  6ee0              LDR      r0,[r4,#0x6c]         ;1742
000068  b148              CBZ      r0,|L11.126|
00006a  6385              STR      r5,[r0,#0x38]         ;1748
00006c  6ee0              LDR      r0,[r4,#0x6c]         ;1748
00006e  f7fffffe          BL       HAL_DMA_Abort
000072  b120              CBZ      r0,|L11.126|
000074  6ee0              LDR      r0,[r4,#0x6c]         ;1750
000076  f7fffffe          BL       HAL_DMA_GetError
00007a  2820              CMP      r0,#0x20              ;1750
00007c  d02d              BEQ      |L11.218|
                  |L11.126|
;;;1754   
;;;1755             return HAL_TIMEOUT;
;;;1756           }
;;;1757         }
;;;1758       }
;;;1759     }
;;;1760   
;;;1761     /* Abort the UART DMA Rx channel if enabled */
;;;1762     if (HAL_IS_BIT_SET(huart->Instance->CR3, USART_CR3_DMAR))
00007e  6820              LDR      r0,[r4,#0]
000080  6880              LDR      r0,[r0,#8]
000082  0640              LSLS     r0,r0,#25
000084  d515              BPL      |L11.178|
                  |L11.134|
;;;1763     {
;;;1764       /* Disable the UART DMA Rx request if enabled */
;;;1765       ATOMIC_CLEAR_BIT(huart->Instance->CR3, USART_CR3_DMAR);
000086  6820              LDR      r0,[r4,#0]
000088  3008              ADDS     r0,r0,#8
00008a  e8501f00          LDREX    r1,[r0,#0]
00008e  f0210140          BIC      r1,r1,#0x40
000092  e8401200          STREX    r2,r1,[r0,#0]
000096  2a00              CMP      r2,#0
000098  d1f5              BNE      |L11.134|
;;;1766   
;;;1767       /* Abort the UART DMA Rx channel : use blocking DMA Abort API (no callback) */
;;;1768       if (huart->hdmarx != NULL)
00009a  6f20              LDR      r0,[r4,#0x70]
00009c  b148              CBZ      r0,|L11.178|
;;;1769       {
;;;1770         /* Set the UART DMA Abort callback to Null.
;;;1771            No call back execution at end of DMA abort procedure */
;;;1772         huart->hdmarx->XferAbortCallback = NULL;
;;;1773   
;;;1774         if (HAL_DMA_Abort(huart->hdmarx) != HAL_OK)
00009e  6385              STR      r5,[r0,#0x38]
0000a0  6f20              LDR      r0,[r4,#0x70]
0000a2  f7fffffe          BL       HAL_DMA_Abort
0000a6  b120              CBZ      r0,|L11.178|
;;;1775         {
;;;1776           if (HAL_DMA_GetError(huart->hdmarx) == HAL_DMA_ERROR_TIMEOUT)
0000a8  6f20              LDR      r0,[r4,#0x70]
0000aa  f7fffffe          BL       HAL_DMA_GetError
0000ae  2820              CMP      r0,#0x20
0000b0  d013              BEQ      |L11.218|
                  |L11.178|
;;;1777           {
;;;1778             /* Set error code to DMA */
;;;1779             huart->ErrorCode = HAL_UART_ERROR_DMA;
;;;1780   
;;;1781             return HAL_TIMEOUT;
;;;1782           }
;;;1783         }
;;;1784       }
;;;1785     }
;;;1786   
;;;1787     /* Reset Tx and Rx transfer counters */
;;;1788     huart->TxXferCount = 0U;
0000b2  f8a45052          STRH     r5,[r4,#0x52]
;;;1789     huart->RxXferCount = 0U;
0000b6  f8a4505a          STRH     r5,[r4,#0x5a]
;;;1790   
;;;1791     /* Clear the Error flags in the ICR register */
;;;1792     __HAL_UART_CLEAR_FLAG(huart, UART_CLEAR_OREF | UART_CLEAR_NEF | UART_CLEAR_PEF | UART_CLEAR_FEF);
0000ba  6821              LDR      r1,[r4,#0]
0000bc  200f              MOVS     r0,#0xf
0000be  6208              STR      r0,[r1,#0x20]
;;;1793   
;;;1794   #if defined(USART_CR1_FIFOEN)
;;;1795     /* Flush the whole TX FIFO (if needed) */
;;;1796     if (huart->FifoMode == UART_FIFOMODE_ENABLE)
;;;1797     {
;;;1798       __HAL_UART_SEND_REQ(huart, UART_TXDATA_FLUSH_REQUEST);
;;;1799     }
;;;1800   #endif /* USART_CR1_FIFOEN */
;;;1801   
;;;1802     /* Discard the received data */
;;;1803     __HAL_UART_SEND_REQ(huart, UART_RXDATA_FLUSH_REQUEST);
0000c0  6820              LDR      r0,[r4,#0]
0000c2  8b01              LDRH     r1,[r0,#0x18]
0000c4  f0410108          ORR      r1,r1,#8
0000c8  8301              STRH     r1,[r0,#0x18]
;;;1804   
;;;1805     /* Restore huart->gState and huart->RxState to Ready */
;;;1806     huart->gState  = HAL_UART_STATE_READY;
0000ca  2020              MOVS     r0,#0x20
0000cc  67a0              STR      r0,[r4,#0x78]
;;;1807     huart->RxState = HAL_UART_STATE_READY;
0000ce  67e0              STR      r0,[r4,#0x7c]
;;;1808     huart->ReceptionType = HAL_UART_RECEPTION_STANDARD;
0000d0  6625              STR      r5,[r4,#0x60]
;;;1809   
;;;1810     huart->ErrorCode = HAL_UART_ERROR_NONE;
0000d2  f8c45080          STR      r5,[r4,#0x80]
;;;1811   
;;;1812     return HAL_OK;
0000d6  2000              MOVS     r0,#0
;;;1813   }
0000d8  bd70              POP      {r4-r6,pc}
                  |L11.218|
0000da  f8c46080          STR      r6,[r4,#0x80]         ;1779
0000de  2003              MOVS     r0,#3                 ;1781
0000e0  bd70              POP      {r4-r6,pc}
;;;1814   
                          ENDP


                          AREA ||i.HAL_UART_AbortCpltCallback||, CODE, READONLY, ALIGN=1

                  HAL_UART_AbortCpltCallback PROC
;;;2753     */
;;;2754   __weak void HAL_UART_AbortCpltCallback(UART_HandleTypeDef *huart)
000000  4770              BX       lr
;;;2755   {
;;;2756     /* Prevent unused argument(s) compilation warning */
;;;2757     UNUSED(huart);
;;;2758   
;;;2759     /* NOTE : This function should not be modified, when the callback is needed,
;;;2760               the HAL_UART_AbortCpltCallback can be implemented in the user file.
;;;2761      */
;;;2762   }
;;;2763   
                          ENDP


                          AREA ||i.HAL_UART_AbortReceive||, CODE, READONLY, ALIGN=1

                  HAL_UART_AbortReceive PROC
;;;1892     */
;;;1893   HAL_StatusTypeDef HAL_UART_AbortReceive(UART_HandleTypeDef *huart)
000000  b570              PUSH     {r4-r6,lr}
;;;1894   {
000002  4604              MOV      r4,r0
                  |L13.4|
;;;1895   #if defined(USART_CR1_FIFOEN)
;;;1896     /* Disable PEIE, EIE, RXNEIE and RXFTIE interrupts */
;;;1897     ATOMIC_CLEAR_BIT(huart->Instance->CR1, (USART_CR1_PEIE | USART_CR1_RXNEIE_RXFNEIE));
;;;1898     ATOMIC_CLEAR_BIT(huart->Instance->CR3, USART_CR3_EIE | USART_CR3_RXFTIE);
;;;1899   #else
;;;1900     /* Disable RXNE, PE and ERR (Frame error, noise error, overrun error) interrupts */
;;;1901     ATOMIC_CLEAR_BIT(huart->Instance->CR1, (USART_CR1_RXNEIE | USART_CR1_PEIE));
000004  6821              LDR      r1,[r4,#0]
000006  e8510f00          LDREX    r0,[r1,#0]
00000a  f4207090          BIC      r0,r0,#0x120
00000e  e8410200          STREX    r2,r0,[r1,#0]
000012  2a00              CMP      r2,#0
000014  d1f6              BNE      |L13.4|
                  |L13.22|
;;;1902     ATOMIC_CLEAR_BIT(huart->Instance->CR3, USART_CR3_EIE);
000016  6820              LDR      r0,[r4,#0]
000018  3008              ADDS     r0,r0,#8
00001a  e8501f00          LDREX    r1,[r0,#0]
00001e  f0210101          BIC      r1,r1,#1
000022  e8401200          STREX    r2,r1,[r0,#0]
000026  2a00              CMP      r2,#0
000028  d1f5              BNE      |L13.22|
;;;1903   #endif /* USART_CR1_FIFOEN */
;;;1904   
;;;1905     /* If Reception till IDLE event was ongoing, disable IDLEIE interrupt */
;;;1906     if (huart->ReceptionType == HAL_UART_RECEPTION_TOIDLE)
00002a  6e20              LDR      r0,[r4,#0x60]
00002c  2801              CMP      r0,#1
00002e  d108              BNE      |L13.66|
                  |L13.48|
;;;1907     {
;;;1908       ATOMIC_CLEAR_BIT(huart->Instance->CR1, (USART_CR1_IDLEIE));
000030  6821              LDR      r1,[r4,#0]
000032  e8510f00          LDREX    r0,[r1,#0]
000036  f0200010          BIC      r0,r0,#0x10
00003a  e8410200          STREX    r2,r0,[r1,#0]
00003e  2a00              CMP      r2,#0
000040  d1f6              BNE      |L13.48|
                  |L13.66|
;;;1909     }
;;;1910   
;;;1911     /* Abort the UART DMA Rx channel if enabled */
;;;1912     if (HAL_IS_BIT_SET(huart->Instance->CR3, USART_CR3_DMAR))
000042  6820              LDR      r0,[r4,#0]
000044  6880              LDR      r0,[r0,#8]
000046  f04f0500          MOV      r5,#0
00004a  0640              LSLS     r0,r0,#25
00004c  d515              BPL      |L13.122|
                  |L13.78|
;;;1913     {
;;;1914       /* Disable the UART DMA Rx request if enabled */
;;;1915       ATOMIC_CLEAR_BIT(huart->Instance->CR3, USART_CR3_DMAR);
00004e  6820              LDR      r0,[r4,#0]
000050  3008              ADDS     r0,r0,#8
000052  e8501f00          LDREX    r1,[r0,#0]
000056  f0210140          BIC      r1,r1,#0x40
00005a  e8401200          STREX    r2,r1,[r0,#0]
00005e  2a00              CMP      r2,#0
000060  d1f5              BNE      |L13.78|
;;;1916   
;;;1917       /* Abort the UART DMA Rx channel : use blocking DMA Abort API (no callback) */
;;;1918       if (huart->hdmarx != NULL)
000062  6f20              LDR      r0,[r4,#0x70]
000064  b148              CBZ      r0,|L13.122|
;;;1919       {
;;;1920         /* Set the UART DMA Abort callback to Null.
;;;1921            No call back execution at end of DMA abort procedure */
;;;1922         huart->hdmarx->XferAbortCallback = NULL;
;;;1923   
;;;1924         if (HAL_DMA_Abort(huart->hdmarx) != HAL_OK)
000066  6385              STR      r5,[r0,#0x38]
000068  6f20              LDR      r0,[r4,#0x70]
00006a  f7fffffe          BL       HAL_DMA_Abort
00006e  b120              CBZ      r0,|L13.122|
;;;1925         {
;;;1926           if (HAL_DMA_GetError(huart->hdmarx) == HAL_DMA_ERROR_TIMEOUT)
000070  6f20              LDR      r0,[r4,#0x70]
000072  f7fffffe          BL       HAL_DMA_GetError
000076  2820              CMP      r0,#0x20
000078  d00e              BEQ      |L13.152|
                  |L13.122|
;;;1927           {
;;;1928             /* Set error code to DMA */
;;;1929             huart->ErrorCode = HAL_UART_ERROR_DMA;
;;;1930   
;;;1931             return HAL_TIMEOUT;
;;;1932           }
;;;1933         }
;;;1934       }
;;;1935     }
;;;1936   
;;;1937     /* Reset Rx transfer counter */
;;;1938     huart->RxXferCount = 0U;
00007a  f8a4505a          STRH     r5,[r4,#0x5a]
;;;1939   
;;;1940     /* Clear the Error flags in the ICR register */
;;;1941     __HAL_UART_CLEAR_FLAG(huart, UART_CLEAR_OREF | UART_CLEAR_NEF | UART_CLEAR_PEF | UART_CLEAR_FEF);
00007e  6821              LDR      r1,[r4,#0]
000080  200f              MOVS     r0,#0xf
000082  6208              STR      r0,[r1,#0x20]
;;;1942   
;;;1943     /* Discard the received data */
;;;1944     __HAL_UART_SEND_REQ(huart, UART_RXDATA_FLUSH_REQUEST);
000084  6820              LDR      r0,[r4,#0]
000086  8b01              LDRH     r1,[r0,#0x18]
000088  f0410108          ORR      r1,r1,#8
00008c  8301              STRH     r1,[r0,#0x18]
;;;1945   
;;;1946     /* Restore huart->RxState to Ready */
;;;1947     huart->RxState = HAL_UART_STATE_READY;
00008e  2020              MOVS     r0,#0x20
000090  67e0              STR      r0,[r4,#0x7c]
;;;1948     huart->ReceptionType = HAL_UART_RECEPTION_STANDARD;
000092  6625              STR      r5,[r4,#0x60]
;;;1949   
;;;1950     return HAL_OK;
000094  2000              MOVS     r0,#0
;;;1951   }
000096  bd70              POP      {r4-r6,pc}
                  |L13.152|
000098  2010              MOVS     r0,#0x10              ;1929
00009a  f8c40080          STR      r0,[r4,#0x80]         ;1929
00009e  2003              MOVS     r0,#3                 ;1931
0000a0  bd70              POP      {r4-r6,pc}
;;;1952   
                          ENDP


                          AREA ||i.HAL_UART_AbortReceiveCpltCallback||, CODE, READONLY, ALIGN=1

                  HAL_UART_AbortReceiveCpltCallback PROC
;;;2783     */
;;;2784   __weak void HAL_UART_AbortReceiveCpltCallback(UART_HandleTypeDef *huart)
000000  4770              BX       lr
;;;2785   {
;;;2786     /* Prevent unused argument(s) compilation warning */
;;;2787     UNUSED(huart);
;;;2788   
;;;2789     /* NOTE : This function should not be modified, when the callback is needed,
;;;2790               the HAL_UART_AbortReceiveCpltCallback can be implemented in the user file.
;;;2791      */
;;;2792   }
;;;2793   
                          ENDP


                          AREA ||i.HAL_UART_AbortReceive_IT||, CODE, READONLY, ALIGN=2

                  HAL_UART_AbortReceive_IT PROC
;;;2223     */
;;;2224   HAL_StatusTypeDef HAL_UART_AbortReceive_IT(UART_HandleTypeDef *huart)
000000  b570              PUSH     {r4-r6,lr}
;;;2225   {
000002  4604              MOV      r4,r0
                  |L15.4|
;;;2226     /* Disable RXNE, PE and ERR (Frame error, noise error, overrun error) interrupts */
;;;2227   #if defined(USART_CR1_FIFOEN)
;;;2228     ATOMIC_CLEAR_BIT(huart->Instance->CR1, (USART_CR1_PEIE | USART_CR1_RXNEIE_RXFNEIE));
;;;2229     ATOMIC_CLEAR_BIT(huart->Instance->CR3, (USART_CR3_EIE | USART_CR3_RXFTIE));
;;;2230   #else
;;;2231     ATOMIC_CLEAR_BIT(huart->Instance->CR1, (USART_CR1_RXNEIE | USART_CR1_PEIE));
000004  6821              LDR      r1,[r4,#0]
000006  e8510f00          LDREX    r0,[r1,#0]
00000a  f4207090          BIC      r0,r0,#0x120
00000e  e8410200          STREX    r2,r0,[r1,#0]
000012  2a00              CMP      r2,#0
000014  d1f6              BNE      |L15.4|
                  |L15.22|
;;;2232     ATOMIC_CLEAR_BIT(huart->Instance->CR3, USART_CR3_EIE);
000016  6820              LDR      r0,[r4,#0]
000018  3008              ADDS     r0,r0,#8
00001a  e8501f00          LDREX    r1,[r0,#0]
00001e  f0210101          BIC      r1,r1,#1
000022  e8401200          STREX    r2,r1,[r0,#0]
000026  2a00              CMP      r2,#0
000028  d1f5              BNE      |L15.22|
;;;2233   #endif /* USART_CR1_FIFOEN */
;;;2234   
;;;2235     /* If Reception till IDLE event was ongoing, disable IDLEIE interrupt */
;;;2236     if (huart->ReceptionType == HAL_UART_RECEPTION_TOIDLE)
00002a  6e20              LDR      r0,[r4,#0x60]
00002c  2801              CMP      r0,#1
00002e  d108              BNE      |L15.66|
                  |L15.48|
;;;2237     {
;;;2238       ATOMIC_CLEAR_BIT(huart->Instance->CR1, (USART_CR1_IDLEIE));
000030  6820              LDR      r0,[r4,#0]
000032  e8501f00          LDREX    r1,[r0,#0]
000036  f0210110          BIC      r1,r1,#0x10
00003a  e8401200          STREX    r2,r1,[r0,#0]
00003e  2a00              CMP      r2,#0
000040  d1f6              BNE      |L15.48|
                  |L15.66|
;;;2239     }
;;;2240   
;;;2241     /* Abort the UART DMA Rx channel if enabled */
;;;2242     if (HAL_IS_BIT_SET(huart->Instance->CR3, USART_CR3_DMAR))
000042  6821              LDR      r1,[r4,#0]
000044  6888              LDR      r0,[r1,#8]
;;;2243     {
;;;2244       /* Disable the UART DMA Rx request if enabled */
;;;2245       ATOMIC_CLEAR_BIT(huart->Instance->CR3, USART_CR3_DMAR);
;;;2246   
;;;2247       /* Abort the UART DMA Rx channel : use non blocking DMA Abort API (callback) */
;;;2248       if (huart->hdmarx != NULL)
;;;2249       {
;;;2250         /* Set the UART DMA Abort callback :
;;;2251            will lead to call HAL_UART_AbortCpltCallback() at end of DMA abort procedure */
;;;2252         huart->hdmarx->XferAbortCallback = UART_DMARxOnlyAbortCallback;
;;;2253   
;;;2254         /* Abort DMA RX */
;;;2255         if (HAL_DMA_Abort_IT(huart->hdmarx) != HAL_OK)
;;;2256         {
;;;2257           /* Call Directly huart->hdmarx->XferAbortCallback function in case of error */
;;;2258           huart->hdmarx->XferAbortCallback(huart->hdmarx);
;;;2259         }
;;;2260       }
;;;2261       else
;;;2262       {
;;;2263         /* Reset Rx transfer counter */
;;;2264         huart->RxXferCount = 0U;
;;;2265   
;;;2266         /* Clear RxISR function pointer */
;;;2267         huart->pRxBuffPtr = NULL;
;;;2268   
;;;2269         /* Clear the Error flags in the ICR register */
;;;2270         __HAL_UART_CLEAR_FLAG(huart, UART_CLEAR_OREF | UART_CLEAR_NEF | UART_CLEAR_PEF | UART_CLEAR_FEF);
000046  f04f020f          MOV      r2,#0xf
00004a  0645              LSLS     r5,r0,#25             ;2242
00004c  f04f0000          MOV      r0,#0                 ;2242
;;;2271   
;;;2272         /* Discard the received data */
;;;2273         __HAL_UART_SEND_REQ(huart, UART_RXDATA_FLUSH_REQUEST);
;;;2274   
;;;2275         /* Restore huart->RxState to Ready */
;;;2276         huart->RxState = HAL_UART_STATE_READY;
000050  f04f0320          MOV      r3,#0x20
000054  d526              BPL      |L15.164|
                  |L15.86|
000056  6821              LDR      r1,[r4,#0]            ;2245
000058  3108              ADDS     r1,r1,#8              ;2245
00005a  e8515f00          LDREX    r5,[r1,#0]            ;2245
00005e  f0250540          BIC      r5,r5,#0x40           ;2245
000062  e8415600          STREX    r6,r5,[r1,#0]         ;2245
000066  2e00              CMP      r6,#0                 ;2245
000068  d1f5              BNE      |L15.86|
00006a  6f21              LDR      r1,[r4,#0x70]         ;2248
00006c  b149              CBZ      r1,|L15.130|
00006e  4810              LDR      r0,|L15.176|
000070  6388              STR      r0,[r1,#0x38]         ;2255
000072  6f20              LDR      r0,[r4,#0x70]         ;2255
000074  f7fffffe          BL       HAL_DMA_Abort_IT
000078  b190              CBZ      r0,|L15.160|
00007a  6f20              LDR      r0,[r4,#0x70]         ;2258
00007c  6b81              LDR      r1,[r0,#0x38]         ;2258
00007e  4788              BLX      r1                    ;2258
000080  e00e              B        |L15.160|
                  |L15.130|
000082  f8a4005a          STRH     r0,[r4,#0x5a]         ;2264
000086  6560              STR      r0,[r4,#0x54]         ;2270
000088  6821              LDR      r1,[r4,#0]            ;2270
00008a  620a              STR      r2,[r1,#0x20]         ;2270
00008c  6821              LDR      r1,[r4,#0]            ;2273
00008e  8b0a              LDRH     r2,[r1,#0x18]         ;2273
000090  f0420208          ORR      r2,r2,#8              ;2273
000094  830a              STRH     r2,[r1,#0x18]         ;2273
                  |L15.150|
000096  67e3              STR      r3,[r4,#0x7c]
;;;2277         huart->ReceptionType = HAL_UART_RECEPTION_STANDARD;
000098  6620              STR      r0,[r4,#0x60]
;;;2278   
;;;2279         /* As no DMA to be aborted, call directly user Abort complete callback */
;;;2280   #if (USE_HAL_UART_REGISTER_CALLBACKS == 1)
;;;2281         /* Call registered Abort Receive Complete Callback */
;;;2282         huart->AbortReceiveCpltCallback(huart);
;;;2283   #else
;;;2284         /* Call legacy weak Abort Receive Complete Callback */
;;;2285         HAL_UART_AbortReceiveCpltCallback(huart);
00009a  4620              MOV      r0,r4
00009c  f7fffffe          BL       HAL_UART_AbortReceiveCpltCallback
                  |L15.160|
;;;2286   #endif /* USE_HAL_UART_REGISTER_CALLBACKS */
;;;2287       }
;;;2288     }
;;;2289     else
;;;2290     {
;;;2291       /* Reset Rx transfer counter */
;;;2292       huart->RxXferCount = 0U;
;;;2293   
;;;2294       /* Clear RxISR function pointer */
;;;2295       huart->pRxBuffPtr = NULL;
;;;2296   
;;;2297       /* Clear the Error flags in the ICR register */
;;;2298       __HAL_UART_CLEAR_FLAG(huart, UART_CLEAR_OREF | UART_CLEAR_NEF | UART_CLEAR_PEF | UART_CLEAR_FEF);
;;;2299   
;;;2300       /* Restore huart->RxState to Ready */
;;;2301       huart->RxState = HAL_UART_STATE_READY;
;;;2302       huart->ReceptionType = HAL_UART_RECEPTION_STANDARD;
;;;2303   
;;;2304       /* As no DMA to be aborted, call directly user Abort complete callback */
;;;2305   #if (USE_HAL_UART_REGISTER_CALLBACKS == 1)
;;;2306       /* Call registered Abort Receive Complete Callback */
;;;2307       huart->AbortReceiveCpltCallback(huart);
;;;2308   #else
;;;2309       /* Call legacy weak Abort Receive Complete Callback */
;;;2310       HAL_UART_AbortReceiveCpltCallback(huart);
;;;2311   #endif /* USE_HAL_UART_REGISTER_CALLBACKS */
;;;2312     }
;;;2313   
;;;2314     return HAL_OK;
0000a0  2000              MOVS     r0,#0
;;;2315   }
0000a2  bd70              POP      {r4-r6,pc}
                  |L15.164|
0000a4  f8a4005a          STRH     r0,[r4,#0x5a]         ;2292
0000a8  6560              STR      r0,[r4,#0x54]         ;2298
0000aa  620a              STR      r2,[r1,#0x20]         ;2298
0000ac  e7f3              B        |L15.150|
;;;2316   
                          ENDP

0000ae  0000              DCW      0x0000
                  |L15.176|
                          DCD      UART_DMARxOnlyAbortCallback

                          AREA ||i.HAL_UART_AbortTransmit||, CODE, READONLY, ALIGN=1

                  HAL_UART_AbortTransmit PROC
;;;1826     */
;;;1827   HAL_StatusTypeDef HAL_UART_AbortTransmit(UART_HandleTypeDef *huart)
000000  b570              PUSH     {r4-r6,lr}
;;;1828   {
000002  4604              MOV      r4,r0
                  |L16.4|
;;;1829   #if defined(USART_CR1_FIFOEN)
;;;1830     /* Disable TCIE, TXEIE and TXFTIE interrupts */
;;;1831     ATOMIC_CLEAR_BIT(huart->Instance->CR1, (USART_CR1_TCIE | USART_CR1_TXEIE_TXFNFIE));
;;;1832     ATOMIC_CLEAR_BIT(huart->Instance->CR3, USART_CR3_TXFTIE);
;;;1833   #else
;;;1834     /* Disable TXEIE and TCIE interrupts */
;;;1835     ATOMIC_CLEAR_BIT(huart->Instance->CR1, (USART_CR1_TXEIE | USART_CR1_TCIE));
000004  6821              LDR      r1,[r4,#0]
000006  e8510f00          LDREX    r0,[r1,#0]
00000a  f02000c0          BIC      r0,r0,#0xc0
00000e  e8410200          STREX    r2,r0,[r1,#0]
000012  2a00              CMP      r2,#0
000014  d1f6              BNE      |L16.4|
;;;1836   #endif /* USART_CR1_FIFOEN */
;;;1837   
;;;1838     /* Abort the UART DMA Tx channel if enabled */
;;;1839     if (HAL_IS_BIT_SET(huart->Instance->CR3, USART_CR3_DMAT))
000016  6820              LDR      r0,[r4,#0]
000018  6880              LDR      r0,[r0,#8]
00001a  4615              MOV      r5,r2
00001c  0600              LSLS     r0,r0,#24
00001e  d515              BPL      |L16.76|
                  |L16.32|
;;;1840     {
;;;1841       /* Disable the UART DMA Tx request if enabled */
;;;1842       ATOMIC_CLEAR_BIT(huart->Instance->CR3, USART_CR3_DMAT);
000020  6820              LDR      r0,[r4,#0]
000022  3008              ADDS     r0,r0,#8
000024  e8501f00          LDREX    r1,[r0,#0]
000028  f0210180          BIC      r1,r1,#0x80
00002c  e8401200          STREX    r2,r1,[r0,#0]
000030  2a00              CMP      r2,#0
000032  d1f5              BNE      |L16.32|
;;;1843   
;;;1844       /* Abort the UART DMA Tx channel : use blocking DMA Abort API (no callback) */
;;;1845       if (huart->hdmatx != NULL)
000034  6ee0              LDR      r0,[r4,#0x6c]
000036  b148              CBZ      r0,|L16.76|
;;;1846       {
;;;1847         /* Set the UART DMA Abort callback to Null.
;;;1848            No call back execution at end of DMA abort procedure */
;;;1849         huart->hdmatx->XferAbortCallback = NULL;
;;;1850   
;;;1851         if (HAL_DMA_Abort(huart->hdmatx) != HAL_OK)
000038  6385              STR      r5,[r0,#0x38]
00003a  6ee0              LDR      r0,[r4,#0x6c]
00003c  f7fffffe          BL       HAL_DMA_Abort
000040  b120              CBZ      r0,|L16.76|
;;;1852         {
;;;1853           if (HAL_DMA_GetError(huart->hdmatx) == HAL_DMA_ERROR_TIMEOUT)
000042  6ee0              LDR      r0,[r4,#0x6c]
000044  f7fffffe          BL       HAL_DMA_GetError
000048  2820              CMP      r0,#0x20
00004a  d005              BEQ      |L16.88|
                  |L16.76|
;;;1854           {
;;;1855             /* Set error code to DMA */
;;;1856             huart->ErrorCode = HAL_UART_ERROR_DMA;
;;;1857   
;;;1858             return HAL_TIMEOUT;
;;;1859           }
;;;1860         }
;;;1861       }
;;;1862     }
;;;1863   
;;;1864     /* Reset Tx transfer counter */
;;;1865     huart->TxXferCount = 0U;
00004c  f8a45052          STRH     r5,[r4,#0x52]
;;;1866   
;;;1867   #if defined(USART_CR1_FIFOEN)
;;;1868     /* Flush the whole TX FIFO (if needed) */
;;;1869     if (huart->FifoMode == UART_FIFOMODE_ENABLE)
;;;1870     {
;;;1871       __HAL_UART_SEND_REQ(huart, UART_TXDATA_FLUSH_REQUEST);
;;;1872     }
;;;1873   #endif /* USART_CR1_FIFOEN */
;;;1874   
;;;1875     /* Restore huart->gState to Ready */
;;;1876     huart->gState = HAL_UART_STATE_READY;
000050  2020              MOVS     r0,#0x20
000052  67a0              STR      r0,[r4,#0x78]
;;;1877   
;;;1878     return HAL_OK;
000054  2000              MOVS     r0,#0
;;;1879   }
000056  bd70              POP      {r4-r6,pc}
                  |L16.88|
000058  2010              MOVS     r0,#0x10              ;1856
00005a  f8c40080          STR      r0,[r4,#0x80]         ;1856
00005e  2003              MOVS     r0,#3                 ;1858
000060  bd70              POP      {r4-r6,pc}
;;;1880   
                          ENDP


                          AREA ||i.HAL_UART_AbortTransmitCpltCallback||, CODE, READONLY, ALIGN=1

                  HAL_UART_AbortTransmitCpltCallback PROC
;;;2768     */
;;;2769   __weak void HAL_UART_AbortTransmitCpltCallback(UART_HandleTypeDef *huart)
000000  4770              BX       lr
;;;2770   {
;;;2771     /* Prevent unused argument(s) compilation warning */
;;;2772     UNUSED(huart);
;;;2773   
;;;2774     /* NOTE : This function should not be modified, when the callback is needed,
;;;2775               the HAL_UART_AbortTransmitCpltCallback can be implemented in the user file.
;;;2776      */
;;;2777   }
;;;2778   
                          ENDP


                          AREA ||i.HAL_UART_AbortTransmit_IT||, CODE, READONLY, ALIGN=2

                  HAL_UART_AbortTransmit_IT PROC
;;;2126     */
;;;2127   HAL_StatusTypeDef HAL_UART_AbortTransmit_IT(UART_HandleTypeDef *huart)
000000  b570              PUSH     {r4-r6,lr}
;;;2128   {
000002  4604              MOV      r4,r0
                  |L18.4|
;;;2129     /* Disable interrupts */
;;;2130   #if defined(USART_CR1_FIFOEN)
;;;2131     ATOMIC_CLEAR_BIT(huart->Instance->CR1, (USART_CR1_TCIE | USART_CR1_TXEIE_TXFNFIE));
;;;2132     ATOMIC_CLEAR_BIT(huart->Instance->CR3, USART_CR3_TXFTIE);
;;;2133   #else
;;;2134     ATOMIC_CLEAR_BIT(huart->Instance->CR1, (USART_CR1_TXEIE | USART_CR1_TCIE));
000004  6821              LDR      r1,[r4,#0]
000006  e8510f00          LDREX    r0,[r1,#0]
00000a  f02000c0          BIC      r0,r0,#0xc0
00000e  e8410200          STREX    r2,r0,[r1,#0]
000012  2a00              CMP      r2,#0
000014  d1f6              BNE      |L18.4|
;;;2135   #endif /* USART_CR1_FIFOEN */
;;;2136   
;;;2137     /* Abort the UART DMA Tx channel if enabled */
;;;2138     if (HAL_IS_BIT_SET(huart->Instance->CR3, USART_CR3_DMAT))
000016  6820              LDR      r0,[r4,#0]
000018  6880              LDR      r0,[r0,#8]
00001a  0601              LSLS     r1,r0,#24
00001c  4610              MOV      r0,r2
;;;2139     {
;;;2140       /* Disable the UART DMA Tx request if enabled */
;;;2141       ATOMIC_CLEAR_BIT(huart->Instance->CR3, USART_CR3_DMAT);
;;;2142   
;;;2143       /* Abort the UART DMA Tx channel : use non blocking DMA Abort API (callback) */
;;;2144       if (huart->hdmatx != NULL)
;;;2145       {
;;;2146         /* Set the UART DMA Abort callback :
;;;2147            will lead to call HAL_UART_AbortCpltCallback() at end of DMA abort procedure */
;;;2148         huart->hdmatx->XferAbortCallback = UART_DMATxOnlyAbortCallback;
;;;2149   
;;;2150         /* Abort DMA TX */
;;;2151         if (HAL_DMA_Abort_IT(huart->hdmatx) != HAL_OK)
;;;2152         {
;;;2153           /* Call Directly huart->hdmatx->XferAbortCallback function in case of error */
;;;2154           huart->hdmatx->XferAbortCallback(huart->hdmatx);
;;;2155         }
;;;2156       }
;;;2157       else
;;;2158       {
;;;2159         /* Reset Tx transfer counter */
;;;2160         huart->TxXferCount = 0U;
;;;2161   
;;;2162         /* Clear TxISR function pointers */
;;;2163         huart->TxISR = NULL;
;;;2164   
;;;2165         /* Restore huart->gState to Ready */
;;;2166         huart->gState = HAL_UART_STATE_READY;
00001e  f04f0220          MOV      r2,#0x20
000022  d515              BPL      |L18.80|
                  |L18.36|
000024  6821              LDR      r1,[r4,#0]            ;2141
000026  3108              ADDS     r1,r1,#8              ;2141
000028  e8513f00          LDREX    r3,[r1,#0]            ;2141
00002c  f0230380          BIC      r3,r3,#0x80           ;2141
000030  e8413500          STREX    r5,r3,[r1,#0]         ;2141
000034  2d00              CMP      r5,#0                 ;2141
000036  d1f5              BNE      |L18.36|
000038  6ee1              LDR      r1,[r4,#0x6c]         ;2144
00003a  b149              CBZ      r1,|L18.80|
00003c  4809              LDR      r0,|L18.100|
00003e  6388              STR      r0,[r1,#0x38]         ;2151
000040  6ee0              LDR      r0,[r4,#0x6c]         ;2151
000042  f7fffffe          BL       HAL_DMA_Abort_IT
000046  b150              CBZ      r0,|L18.94|
000048  6ee0              LDR      r0,[r4,#0x6c]         ;2154
00004a  6b81              LDR      r1,[r0,#0x38]         ;2154
00004c  4788              BLX      r1                    ;2154
00004e  e006              B        |L18.94|
                  |L18.80|
000050  f8a40052          STRH     r0,[r4,#0x52]         ;2160
000054  67a2              STR      r2,[r4,#0x78]
000056  66a0              STR      r0,[r4,#0x68]
;;;2167   
;;;2168         /* As no DMA to be aborted, call directly user Abort complete callback */
;;;2169   #if (USE_HAL_UART_REGISTER_CALLBACKS == 1)
;;;2170         /* Call registered Abort Transmit Complete Callback */
;;;2171         huart->AbortTransmitCpltCallback(huart);
;;;2172   #else
;;;2173         /* Call legacy weak Abort Transmit Complete Callback */
;;;2174         HAL_UART_AbortTransmitCpltCallback(huart);
000058  4620              MOV      r0,r4
00005a  f7fffffe          BL       HAL_UART_AbortTransmitCpltCallback
                  |L18.94|
;;;2175   #endif /* USE_HAL_UART_REGISTER_CALLBACKS */
;;;2176       }
;;;2177     }
;;;2178     else
;;;2179     {
;;;2180       /* Reset Tx transfer counter */
;;;2181       huart->TxXferCount = 0U;
;;;2182   
;;;2183       /* Clear TxISR function pointers */
;;;2184       huart->TxISR = NULL;
;;;2185   
;;;2186   #if defined(USART_CR1_FIFOEN)
;;;2187       /* Flush the whole TX FIFO (if needed) */
;;;2188       if (huart->FifoMode == UART_FIFOMODE_ENABLE)
;;;2189       {
;;;2190         __HAL_UART_SEND_REQ(huart, UART_TXDATA_FLUSH_REQUEST);
;;;2191       }
;;;2192   #endif /* USART_CR1_FIFOEN */
;;;2193   
;;;2194       /* Restore huart->gState to Ready */
;;;2195       huart->gState = HAL_UART_STATE_READY;
;;;2196   
;;;2197       /* As no DMA to be aborted, call directly user Abort complete callback */
;;;2198   #if (USE_HAL_UART_REGISTER_CALLBACKS == 1)
;;;2199       /* Call registered Abort Transmit Complete Callback */
;;;2200       huart->AbortTransmitCpltCallback(huart);
;;;2201   #else
;;;2202       /* Call legacy weak Abort Transmit Complete Callback */
;;;2203       HAL_UART_AbortTransmitCpltCallback(huart);
;;;2204   #endif /* USE_HAL_UART_REGISTER_CALLBACKS */
;;;2205     }
;;;2206   
;;;2207     return HAL_OK;
00005e  2000              MOVS     r0,#0
;;;2208   }
000060  bd70              POP      {r4-r6,pc}
;;;2209   
                          ENDP

000062  0000              DCW      0x0000
                  |L18.100|
                          DCD      UART_DMATxOnlyAbortCallback

                          AREA ||i.HAL_UART_Abort_IT||, CODE, READONLY, ALIGN=2

                  HAL_UART_Abort_IT PROC
;;;1966     */
;;;1967   HAL_StatusTypeDef HAL_UART_Abort_IT(UART_HandleTypeDef *huart)
000000  b570              PUSH     {r4-r6,lr}
;;;1968   {
000002  4604              MOV      r4,r0
;;;1969     uint32_t abortcplt = 1U;
000004  2601              MOVS     r6,#1
                  |L19.6|
;;;1970   
;;;1971     /* Disable interrupts */
;;;1972   #if defined(USART_CR1_FIFOEN)
;;;1973     ATOMIC_CLEAR_BIT(huart->Instance->CR1, (USART_CR1_PEIE | USART_CR1_TCIE | USART_CR1_RXNEIE_RXFNEIE |
;;;1974                                             USART_CR1_TXEIE_TXFNFIE));
;;;1975     ATOMIC_CLEAR_BIT(huart->Instance->CR3, (USART_CR3_EIE | USART_CR3_RXFTIE | USART_CR3_TXFTIE));
;;;1976   #else
;;;1977     ATOMIC_CLEAR_BIT(huart->Instance->CR1, (USART_CR1_RXNEIE | USART_CR1_PEIE | USART_CR1_TXEIE | USART_CR1_TCIE));
000006  6820              LDR      r0,[r4,#0]
000008  e8501f00          LDREX    r1,[r0,#0]
00000c  f42171f0          BIC      r1,r1,#0x1e0
000010  e8401200          STREX    r2,r1,[r0,#0]
000014  2a00              CMP      r2,#0
000016  d1f6              BNE      |L19.6|
                  |L19.24|
;;;1978     ATOMIC_CLEAR_BIT(huart->Instance->CR3, USART_CR3_EIE);
000018  6820              LDR      r0,[r4,#0]
00001a  3008              ADDS     r0,r0,#8
00001c  e8501f00          LDREX    r1,[r0,#0]
000020  f0210101          BIC      r1,r1,#1
000024  e8401200          STREX    r2,r1,[r0,#0]
000028  2a00              CMP      r2,#0
00002a  d1f5              BNE      |L19.24|
;;;1979   #endif /* USART_CR1_FIFOEN */
;;;1980   
;;;1981     /* If Reception till IDLE event was ongoing, disable IDLEIE interrupt */
;;;1982     if (huart->ReceptionType == HAL_UART_RECEPTION_TOIDLE)
00002c  6e20              LDR      r0,[r4,#0x60]
00002e  2801              CMP      r0,#1
000030  d108              BNE      |L19.68|
                  |L19.50|
;;;1983     {
;;;1984       ATOMIC_CLEAR_BIT(huart->Instance->CR1, (USART_CR1_IDLEIE));
000032  6821              LDR      r1,[r4,#0]
000034  e8510f00          LDREX    r0,[r1,#0]
000038  f0200010          BIC      r0,r0,#0x10
00003c  e8410200          STREX    r2,r0,[r1,#0]
000040  2a00              CMP      r2,#0
000042  d1f6              BNE      |L19.50|
                  |L19.68|
;;;1985     }
;;;1986   
;;;1987     /* If DMA Tx and/or DMA Rx Handles are associated to UART Handle, DMA Abort complete callbacks should be initialised
;;;1988        before any call to DMA Abort functions */
;;;1989     /* DMA Tx Handle is valid */
;;;1990     if (huart->hdmatx != NULL)
000044  6ee0              LDR      r0,[r4,#0x6c]
000046  2500              MOVS     r5,#0
000048  b138              CBZ      r0,|L19.90|
;;;1991     {
;;;1992       /* Set DMA Abort Complete callback if UART DMA Tx request if enabled.
;;;1993          Otherwise, set it to NULL */
;;;1994       if (HAL_IS_BIT_SET(huart->Instance->CR3, USART_CR3_DMAT))
00004a  6821              LDR      r1,[r4,#0]
00004c  6889              LDR      r1,[r1,#8]
00004e  0609              LSLS     r1,r1,#24
000050  d502              BPL      |L19.88|
;;;1995       {
;;;1996         huart->hdmatx->XferAbortCallback = UART_DMATxAbortCallback;
000052  492a              LDR      r1,|L19.252|
000054  6381              STR      r1,[r0,#0x38]
000056  e000              B        |L19.90|
                  |L19.88|
;;;1997       }
;;;1998       else
;;;1999       {
;;;2000         huart->hdmatx->XferAbortCallback = NULL;
000058  6385              STR      r5,[r0,#0x38]
                  |L19.90|
;;;2001       }
;;;2002     }
;;;2003     /* DMA Rx Handle is valid */
;;;2004     if (huart->hdmarx != NULL)
00005a  6f20              LDR      r0,[r4,#0x70]
00005c  b138              CBZ      r0,|L19.110|
;;;2005     {
;;;2006       /* Set DMA Abort Complete callback if UART DMA Rx request if enabled.
;;;2007          Otherwise, set it to NULL */
;;;2008       if (HAL_IS_BIT_SET(huart->Instance->CR3, USART_CR3_DMAR))
00005e  6821              LDR      r1,[r4,#0]
000060  6889              LDR      r1,[r1,#8]
000062  0649              LSLS     r1,r1,#25
000064  d502              BPL      |L19.108|
;;;2009       {
;;;2010         huart->hdmarx->XferAbortCallback = UART_DMARxAbortCallback;
000066  4926              LDR      r1,|L19.256|
000068  6381              STR      r1,[r0,#0x38]
00006a  e000              B        |L19.110|
                  |L19.108|
;;;2011       }
;;;2012       else
;;;2013       {
;;;2014         huart->hdmarx->XferAbortCallback = NULL;
00006c  6385              STR      r5,[r0,#0x38]
                  |L19.110|
;;;2015       }
;;;2016     }
;;;2017   
;;;2018     /* Abort the UART DMA Tx channel if enabled */
;;;2019     if (HAL_IS_BIT_SET(huart->Instance->CR3, USART_CR3_DMAT))
00006e  6820              LDR      r0,[r4,#0]
000070  6880              LDR      r0,[r0,#8]
000072  0600              LSLS     r0,r0,#24
000074  d512              BPL      |L19.156|
                  |L19.118|
;;;2020     {
;;;2021       /* Disable DMA Tx at UART level */
;;;2022       ATOMIC_CLEAR_BIT(huart->Instance->CR3, USART_CR3_DMAT);
000076  6820              LDR      r0,[r4,#0]
000078  3008              ADDS     r0,r0,#8
00007a  e8501f00          LDREX    r1,[r0,#0]
00007e  f0210180          BIC      r1,r1,#0x80
000082  e8401200          STREX    r2,r1,[r0,#0]
000086  2a00              CMP      r2,#0
000088  d1f5              BNE      |L19.118|
;;;2023   
;;;2024       /* Abort the UART DMA Tx channel : use non blocking DMA Abort API (callback) */
;;;2025       if (huart->hdmatx != NULL)
00008a  6ee0              LDR      r0,[r4,#0x6c]
00008c  b130              CBZ      r0,|L19.156|
;;;2026       {
;;;2027         /* UART Tx DMA Abort callback has already been initialised :
;;;2028            will lead to call HAL_UART_AbortCpltCallback() at end of DMA abort procedure */
;;;2029   
;;;2030         /* Abort DMA TX */
;;;2031         if (HAL_DMA_Abort_IT(huart->hdmatx) != HAL_OK)
00008e  f7fffffe          BL       HAL_DMA_Abort_IT
000092  b110              CBZ      r0,|L19.154|
;;;2032         {
;;;2033           huart->hdmatx->XferAbortCallback = NULL;
000094  6ee0              LDR      r0,[r4,#0x6c]
000096  6385              STR      r5,[r0,#0x38]
000098  e000              B        |L19.156|
                  |L19.154|
;;;2034         }
;;;2035         else
;;;2036         {
;;;2037           abortcplt = 0U;
00009a  2600              MOVS     r6,#0
                  |L19.156|
;;;2038         }
;;;2039       }
;;;2040     }
;;;2041   
;;;2042     /* Abort the UART DMA Rx channel if enabled */
;;;2043     if (HAL_IS_BIT_SET(huart->Instance->CR3, USART_CR3_DMAR))
00009c  6820              LDR      r0,[r4,#0]
00009e  6880              LDR      r0,[r0,#8]
0000a0  0640              LSLS     r0,r0,#25
0000a2  d511              BPL      |L19.200|
                  |L19.164|
;;;2044     {
;;;2045       /* Disable the UART DMA Rx request if enabled */
;;;2046       ATOMIC_CLEAR_BIT(huart->Instance->CR3, USART_CR3_DMAR);
0000a4  6820              LDR      r0,[r4,#0]
0000a6  3008              ADDS     r0,r0,#8
0000a8  e8501f00          LDREX    r1,[r0,#0]
0000ac  f0210140          BIC      r1,r1,#0x40
0000b0  e8401200          STREX    r2,r1,[r0,#0]
0000b4  2a00              CMP      r2,#0
0000b6  d1f5              BNE      |L19.164|
;;;2047   
;;;2048       /* Abort the UART DMA Rx channel : use non blocking DMA Abort API (callback) */
;;;2049       if (huart->hdmarx != NULL)
0000b8  6f20              LDR      r0,[r4,#0x70]
0000ba  b128              CBZ      r0,|L19.200|
;;;2050       {
;;;2051         /* UART Rx DMA Abort callback has already been initialised :
;;;2052            will lead to call HAL_UART_AbortCpltCallback() at end of DMA abort procedure */
;;;2053   
;;;2054         /* Abort DMA RX */
;;;2055         if (HAL_DMA_Abort_IT(huart->hdmarx) != HAL_OK)
0000bc  f7fffffe          BL       HAL_DMA_Abort_IT
0000c0  b1d0              CBZ      r0,|L19.248|
;;;2056         {
;;;2057           huart->hdmarx->XferAbortCallback = NULL;
0000c2  6f20              LDR      r0,[r4,#0x70]
;;;2058           abortcplt = 1U;
0000c4  6385              STR      r5,[r0,#0x38]
0000c6  e000              B        |L19.202|
                  |L19.200|
;;;2059         }
;;;2060         else
;;;2061         {
;;;2062           abortcplt = 0U;
;;;2063         }
;;;2064       }
;;;2065     }
;;;2066   
;;;2067     /* if no DMA abort complete callback execution is required => call user Abort Complete callback */
;;;2068     if (abortcplt == 1U)
0000c8  b1b6              CBZ      r6,|L19.248|
                  |L19.202|
;;;2069     {
;;;2070       /* Reset Tx and Rx transfer counters */
;;;2071       huart->TxXferCount = 0U;
0000ca  f8a45052          STRH     r5,[r4,#0x52]
;;;2072       huart->RxXferCount = 0U;
0000ce  f8a4505a          STRH     r5,[r4,#0x5a]
;;;2073   
;;;2074       /* Clear ISR function pointers */
;;;2075       huart->RxISR = NULL;
;;;2076       huart->TxISR = NULL;
0000d2  6665              STR      r5,[r4,#0x64]
;;;2077   
;;;2078       /* Reset errorCode */
;;;2079       huart->ErrorCode = HAL_UART_ERROR_NONE;
0000d4  66a5              STR      r5,[r4,#0x68]
0000d6  f8c45080          STR      r5,[r4,#0x80]
;;;2080   
;;;2081       /* Clear the Error flags in the ICR register */
;;;2082       __HAL_UART_CLEAR_FLAG(huart, UART_CLEAR_OREF | UART_CLEAR_NEF | UART_CLEAR_PEF | UART_CLEAR_FEF);
0000da  6821              LDR      r1,[r4,#0]
0000dc  200f              MOVS     r0,#0xf
0000de  6208              STR      r0,[r1,#0x20]
;;;2083   
;;;2084   #if defined(USART_CR1_FIFOEN)
;;;2085       /* Flush the whole TX FIFO (if needed) */
;;;2086       if (huart->FifoMode == UART_FIFOMODE_ENABLE)
;;;2087       {
;;;2088         __HAL_UART_SEND_REQ(huart, UART_TXDATA_FLUSH_REQUEST);
;;;2089       }
;;;2090   #endif /* USART_CR1_FIFOEN */
;;;2091   
;;;2092       /* Discard the received data */
;;;2093       __HAL_UART_SEND_REQ(huart, UART_RXDATA_FLUSH_REQUEST);
0000e0  6820              LDR      r0,[r4,#0]
0000e2  8b01              LDRH     r1,[r0,#0x18]
0000e4  f0410108          ORR      r1,r1,#8
0000e8  8301              STRH     r1,[r0,#0x18]
;;;2094   
;;;2095       /* Restore huart->gState and huart->RxState to Ready */
;;;2096       huart->gState  = HAL_UART_STATE_READY;
0000ea  2020              MOVS     r0,#0x20
0000ec  67a0              STR      r0,[r4,#0x78]
;;;2097       huart->RxState = HAL_UART_STATE_READY;
0000ee  67e0              STR      r0,[r4,#0x7c]
;;;2098       huart->ReceptionType = HAL_UART_RECEPTION_STANDARD;
0000f0  6625              STR      r5,[r4,#0x60]
;;;2099   
;;;2100       /* As no DMA to be aborted, call directly user Abort complete callback */
;;;2101   #if (USE_HAL_UART_REGISTER_CALLBACKS == 1)
;;;2102       /* Call registered Abort complete callback */
;;;2103       huart->AbortCpltCallback(huart);
;;;2104   #else
;;;2105       /* Call legacy weak Abort complete callback */
;;;2106       HAL_UART_AbortCpltCallback(huart);
0000f2  4620              MOV      r0,r4
0000f4  f7fffffe          BL       HAL_UART_AbortCpltCallback
                  |L19.248|
;;;2107   #endif /* USE_HAL_UART_REGISTER_CALLBACKS */
;;;2108     }
;;;2109   
;;;2110     return HAL_OK;
0000f8  2000              MOVS     r0,#0
;;;2111   }
0000fa  bd70              POP      {r4-r6,pc}
;;;2112   
                          ENDP

                  |L19.252|
                          DCD      UART_DMATxAbortCallback
                  |L19.256|
                          DCD      UART_DMARxAbortCallback

                          AREA ||i.HAL_UART_DMAPause||, CODE, READONLY, ALIGN=1

                  HAL_UART_DMAPause PROC
;;;1571     */
;;;1572   HAL_StatusTypeDef HAL_UART_DMAPause(UART_HandleTypeDef *huart)
000000  b510              PUSH     {r4,lr}
;;;1573   {
;;;1574     const HAL_UART_StateTypeDef gstate = huart->gState;
000002  6f81              LDR      r1,[r0,#0x78]
;;;1575     const HAL_UART_StateTypeDef rxstate = huart->RxState;
000004  6fc2              LDR      r2,[r0,#0x7c]
;;;1576   
;;;1577     __HAL_LOCK(huart);
000006  f8903074          LDRB     r3,[r0,#0x74]
00000a  2b01              CMP      r3,#1
00000c  d009              BEQ      |L20.34|
00000e  2301              MOVS     r3,#1
000010  f8803074          STRB     r3,[r0,#0x74]
;;;1578   
;;;1579     if ((HAL_IS_BIT_SET(huart->Instance->CR3, USART_CR3_DMAT)) &&
000014  6803              LDR      r3,[r0,#0]
000016  689b              LDR      r3,[r3,#8]
000018  061b              LSLS     r3,r3,#24
00001a  d50e              BPL      |L20.58|
;;;1580         (gstate == HAL_UART_STATE_BUSY_TX))
00001c  2921              CMP      r1,#0x21
00001e  d002              BEQ      |L20.38|
000020  e00b              B        |L20.58|
                  |L20.34|
000022  2002              MOVS     r0,#2                 ;1577
;;;1581     {
;;;1582       /* Disable the UART DMA Tx request */
;;;1583       ATOMIC_CLEAR_BIT(huart->Instance->CR3, USART_CR3_DMAT);
;;;1584     }
;;;1585     if ((HAL_IS_BIT_SET(huart->Instance->CR3, USART_CR3_DMAR)) &&
;;;1586         (rxstate == HAL_UART_STATE_BUSY_RX))
;;;1587     {
;;;1588       /* Disable PE and ERR (Frame error, noise error, overrun error) interrupts */
;;;1589       ATOMIC_CLEAR_BIT(huart->Instance->CR1, USART_CR1_PEIE);
;;;1590       ATOMIC_CLEAR_BIT(huart->Instance->CR3, USART_CR3_EIE);
;;;1591   
;;;1592       /* Disable the UART DMA Rx request */
;;;1593       ATOMIC_CLEAR_BIT(huart->Instance->CR3, USART_CR3_DMAR);
;;;1594     }
;;;1595   
;;;1596     __HAL_UNLOCK(huart);
;;;1597   
;;;1598     return HAL_OK;
;;;1599   }
000024  bd10              POP      {r4,pc}
                  |L20.38|
000026  6801              LDR      r1,[r0,#0]            ;1583
000028  3108              ADDS     r1,r1,#8              ;1583
00002a  e8513f00          LDREX    r3,[r1,#0]            ;1583
00002e  f0230380          BIC      r3,r3,#0x80           ;1583
000032  e8413400          STREX    r4,r3,[r1,#0]         ;1583
000036  2c00              CMP      r4,#0                 ;1583
000038  d1f5              BNE      |L20.38|
                  |L20.58|
00003a  6801              LDR      r1,[r0,#0]            ;1585
00003c  6889              LDR      r1,[r1,#8]            ;1585
00003e  0649              LSLS     r1,r1,#25             ;1585
000040  d51e              BPL      |L20.128|
000042  2a22              CMP      r2,#0x22              ;1586
000044  d11c              BNE      |L20.128|
                  |L20.70|
000046  6802              LDR      r2,[r0,#0]            ;1589
000048  e8521f00          LDREX    r1,[r2,#0]            ;1589
00004c  f4217180          BIC      r1,r1,#0x100          ;1589
000050  e8421300          STREX    r3,r1,[r2,#0]         ;1589
000054  2b00              CMP      r3,#0                 ;1589
000056  d1f6              BNE      |L20.70|
                  |L20.88|
000058  6801              LDR      r1,[r0,#0]            ;1590
00005a  3108              ADDS     r1,r1,#8              ;1590
00005c  e8512f00          LDREX    r2,[r1,#0]            ;1590
000060  f0220201          BIC      r2,r2,#1              ;1590
000064  e8412300          STREX    r3,r2,[r1,#0]         ;1590
000068  2b00              CMP      r3,#0                 ;1590
00006a  d1f5              BNE      |L20.88|
                  |L20.108|
00006c  6801              LDR      r1,[r0,#0]            ;1593
00006e  3108              ADDS     r1,r1,#8              ;1593
000070  e8512f00          LDREX    r2,[r1,#0]            ;1593
000074  f0220240          BIC      r2,r2,#0x40           ;1593
000078  e8412300          STREX    r3,r2,[r1,#0]         ;1593
00007c  2b00              CMP      r3,#0                 ;1593
00007e  d1f5              BNE      |L20.108|
                  |L20.128|
000080  2100              MOVS     r1,#0                 ;1596
000082  f8801074          STRB     r1,[r0,#0x74]         ;1596
000086  4608              MOV      r0,r1                 ;1598
000088  bd10              POP      {r4,pc}
;;;1600   
                          ENDP


                          AREA ||i.HAL_UART_DMAResume||, CODE, READONLY, ALIGN=1

                  HAL_UART_DMAResume PROC
;;;1605     */
;;;1606   HAL_StatusTypeDef HAL_UART_DMAResume(UART_HandleTypeDef *huart)
000000  f8901074          LDRB     r1,[r0,#0x74]
;;;1607   {
;;;1608     __HAL_LOCK(huart);
000004  2901              CMP      r1,#1
000006  d006              BEQ      |L21.22|
000008  2101              MOVS     r1,#1
00000a  f8801074          STRB     r1,[r0,#0x74]
;;;1609   
;;;1610     if (huart->gState == HAL_UART_STATE_BUSY_TX)
00000e  6f81              LDR      r1,[r0,#0x78]
000010  2921              CMP      r1,#0x21
000012  d002              BEQ      |L21.26|
000014  e00b              B        |L21.46|
                  |L21.22|
000016  2002              MOVS     r0,#2                 ;1608
;;;1611     {
;;;1612       /* Enable the UART DMA Tx request */
;;;1613       ATOMIC_SET_BIT(huart->Instance->CR3, USART_CR3_DMAT);
;;;1614     }
;;;1615     if (huart->RxState == HAL_UART_STATE_BUSY_RX)
;;;1616     {
;;;1617       /* Clear the Overrun flag before resuming the Rx transfer */
;;;1618       __HAL_UART_CLEAR_FLAG(huart, UART_CLEAR_OREF);
;;;1619   
;;;1620       /* Re-enable PE and ERR (Frame error, noise error, overrun error) interrupts */
;;;1621       if (huart->Init.Parity != UART_PARITY_NONE)
;;;1622       {
;;;1623         ATOMIC_SET_BIT(huart->Instance->CR1, USART_CR1_PEIE);
;;;1624       }
;;;1625       ATOMIC_SET_BIT(huart->Instance->CR3, USART_CR3_EIE);
;;;1626   
;;;1627       /* Enable the UART DMA Rx request */
;;;1628       ATOMIC_SET_BIT(huart->Instance->CR3, USART_CR3_DMAR);
;;;1629     }
;;;1630   
;;;1631     __HAL_UNLOCK(huart);
;;;1632   
;;;1633     return HAL_OK;
;;;1634   }
000018  4770              BX       lr
                  |L21.26|
00001a  6801              LDR      r1,[r0,#0]            ;1613
00001c  3108              ADDS     r1,r1,#8              ;1613
00001e  e8512f00          LDREX    r2,[r1,#0]            ;1613
000022  f0420280          ORR      r2,r2,#0x80           ;1613
000026  e8412300          STREX    r3,r2,[r1,#0]         ;1613
00002a  2b00              CMP      r3,#0                 ;1613
00002c  d1f5              BNE      |L21.26|
                  |L21.46|
00002e  6fc1              LDR      r1,[r0,#0x7c]         ;1615
000030  2922              CMP      r1,#0x22              ;1615
000032  d121              BNE      |L21.120|
000034  6802              LDR      r2,[r0,#0]            ;1618
000036  2108              MOVS     r1,#8                 ;1618
000038  6211              STR      r1,[r2,#0x20]         ;1618
00003a  6901              LDR      r1,[r0,#0x10]         ;1621
00003c  b141              CBZ      r1,|L21.80|
                  |L21.62|
00003e  6801              LDR      r1,[r0,#0]            ;1623
000040  e8512f00          LDREX    r2,[r1,#0]            ;1623
000044  f4427280          ORR      r2,r2,#0x100          ;1623
000048  e8412300          STREX    r3,r2,[r1,#0]         ;1623
00004c  2b00              CMP      r3,#0                 ;1623
00004e  d1f6              BNE      |L21.62|
                  |L21.80|
000050  6801              LDR      r1,[r0,#0]            ;1625
000052  3108              ADDS     r1,r1,#8              ;1625
000054  e8512f00          LDREX    r2,[r1,#0]            ;1625
000058  f0420201          ORR      r2,r2,#1              ;1625
00005c  e8412300          STREX    r3,r2,[r1,#0]         ;1625
000060  2b00              CMP      r3,#0                 ;1625
000062  d1f5              BNE      |L21.80|
                  |L21.100|
000064  6801              LDR      r1,[r0,#0]            ;1628
000066  3108              ADDS     r1,r1,#8              ;1628
000068  e8512f00          LDREX    r2,[r1,#0]            ;1628
00006c  f0420240          ORR      r2,r2,#0x40           ;1628
000070  e8412300          STREX    r3,r2,[r1,#0]         ;1628
000074  2b00              CMP      r3,#0                 ;1628
000076  d1f5              BNE      |L21.100|
                  |L21.120|
000078  2100              MOVS     r1,#0                 ;1631
00007a  f8801074          STRB     r1,[r0,#0x74]         ;1631
00007e  4608              MOV      r0,r1                 ;1633
000080  4770              BX       lr
;;;1635   
                          ENDP


                          AREA ||i.HAL_UART_DMAStop||, CODE, READONLY, ALIGN=1

                  HAL_UART_DMAStop PROC
;;;1640     */
;;;1641   HAL_StatusTypeDef HAL_UART_DMAStop(UART_HandleTypeDef *huart)
000000  b570              PUSH     {r4-r6,lr}
;;;1642   {
000002  4604              MOV      r4,r0
;;;1643     /* The Lock is not implemented on this API to allow the user application
;;;1644        to call the HAL UART API under callbacks HAL_UART_TxCpltCallback() / HAL_UART_RxCpltCallback() /
;;;1645        HAL_UART_TxHalfCpltCallback / HAL_UART_RxHalfCpltCallback:
;;;1646        indeed, when HAL_DMA_Abort() API is called, the DMA TX/RX Transfer or Half Transfer complete
;;;1647        interrupt is generated if the DMA transfer interruption occurs at the middle or at the end of
;;;1648        the stream and the corresponding call back is executed. */
;;;1649   
;;;1650     const HAL_UART_StateTypeDef gstate = huart->gState;
000004  6f80              LDR      r0,[r0,#0x78]
;;;1651     const HAL_UART_StateTypeDef rxstate = huart->RxState;
000006  6fe6              LDR      r6,[r4,#0x7c]
;;;1652   
;;;1653     /* Stop UART DMA Tx request if ongoing */
;;;1654     if ((HAL_IS_BIT_SET(huart->Instance->CR3, USART_CR3_DMAT)) &&
000008  6821              LDR      r1,[r4,#0]
00000a  6889              LDR      r1,[r1,#8]
;;;1655         (gstate == HAL_UART_STATE_BUSY_TX))
;;;1656     {
;;;1657       ATOMIC_CLEAR_BIT(huart->Instance->CR3, USART_CR3_DMAT);
;;;1658   
;;;1659       /* Abort the UART DMA Tx channel */
;;;1660       if (huart->hdmatx != NULL)
;;;1661       {
;;;1662         if (HAL_DMA_Abort(huart->hdmatx) != HAL_OK)
;;;1663         {
;;;1664           if (HAL_DMA_GetError(huart->hdmatx) == HAL_DMA_ERROR_TIMEOUT)
;;;1665           {
;;;1666             /* Set error code to DMA */
;;;1667             huart->ErrorCode = HAL_UART_ERROR_DMA;
00000c  f04f0510          MOV      r5,#0x10
000010  0609              LSLS     r1,r1,#24             ;1654
000012  d518              BPL      |L22.70|
000014  2821              CMP      r0,#0x21              ;1655
000016  d116              BNE      |L22.70|
                  |L22.24|
000018  6820              LDR      r0,[r4,#0]            ;1657
00001a  3008              ADDS     r0,r0,#8              ;1657
00001c  e8501f00          LDREX    r1,[r0,#0]            ;1657
000020  f0210180          BIC      r1,r1,#0x80           ;1657
000024  e8401200          STREX    r2,r1,[r0,#0]         ;1657
000028  2a00              CMP      r2,#0                 ;1657
00002a  d1f5              BNE      |L22.24|
00002c  6ee0              LDR      r0,[r4,#0x6c]         ;1660
00002e  b138              CBZ      r0,|L22.64|
000030  f7fffffe          BL       HAL_DMA_Abort
000034  b120              CBZ      r0,|L22.64|
000036  6ee0              LDR      r0,[r4,#0x6c]         ;1664
000038  f7fffffe          BL       HAL_DMA_GetError
00003c  2820              CMP      r0,#0x20              ;1664
00003e  d021              BEQ      |L22.132|
                  |L22.64|
;;;1668   
;;;1669             return HAL_TIMEOUT;
;;;1670           }
;;;1671         }
;;;1672       }
;;;1673   
;;;1674       UART_EndTxTransfer(huart);
000040  4620              MOV      r0,r4
000042  f7fffffe          BL       UART_EndTxTransfer
                  |L22.70|
;;;1675     }
;;;1676   
;;;1677     /* Stop UART DMA Rx request if ongoing */
;;;1678     if ((HAL_IS_BIT_SET(huart->Instance->CR3, USART_CR3_DMAR)) &&
000046  6820              LDR      r0,[r4,#0]
000048  6880              LDR      r0,[r0,#8]
00004a  0640              LSLS     r0,r0,#25
00004c  d518              BPL      |L22.128|
;;;1679         (rxstate == HAL_UART_STATE_BUSY_RX))
00004e  2e22              CMP      r6,#0x22
000050  d116              BNE      |L22.128|
                  |L22.82|
;;;1680     {
;;;1681       ATOMIC_CLEAR_BIT(huart->Instance->CR3, USART_CR3_DMAR);
000052  6820              LDR      r0,[r4,#0]
000054  3008              ADDS     r0,r0,#8
000056  e8501f00          LDREX    r1,[r0,#0]
00005a  f0210140          BIC      r1,r1,#0x40
00005e  e8401200          STREX    r2,r1,[r0,#0]
000062  2a00              CMP      r2,#0
000064  d1f5              BNE      |L22.82|
;;;1682   
;;;1683       /* Abort the UART DMA Rx channel */
;;;1684       if (huart->hdmarx != NULL)
000066  6f20              LDR      r0,[r4,#0x70]
000068  b138              CBZ      r0,|L22.122|
;;;1685       {
;;;1686         if (HAL_DMA_Abort(huart->hdmarx) != HAL_OK)
00006a  f7fffffe          BL       HAL_DMA_Abort
00006e  b120              CBZ      r0,|L22.122|
;;;1687         {
;;;1688           if (HAL_DMA_GetError(huart->hdmarx) == HAL_DMA_ERROR_TIMEOUT)
000070  6f20              LDR      r0,[r4,#0x70]
000072  f7fffffe          BL       HAL_DMA_GetError
000076  2820              CMP      r0,#0x20
000078  d004              BEQ      |L22.132|
                  |L22.122|
;;;1689           {
;;;1690             /* Set error code to DMA */
;;;1691             huart->ErrorCode = HAL_UART_ERROR_DMA;
;;;1692   
;;;1693             return HAL_TIMEOUT;
;;;1694           }
;;;1695         }
;;;1696       }
;;;1697   
;;;1698       UART_EndRxTransfer(huart);
00007a  4620              MOV      r0,r4
00007c  f7fffffe          BL       UART_EndRxTransfer
                  |L22.128|
;;;1699     }
;;;1700   
;;;1701     return HAL_OK;
000080  2000              MOVS     r0,#0
;;;1702   }
000082  bd70              POP      {r4-r6,pc}
                  |L22.132|
000084  f8c45080          STR      r5,[r4,#0x80]         ;1691
000088  2003              MOVS     r0,#3                 ;1693
00008a  bd70              POP      {r4-r6,pc}
;;;1703   
                          ENDP


                          AREA ||i.HAL_UART_DeInit||, CODE, READONLY, ALIGN=1

                  HAL_UART_DeInit PROC
;;;643      */
;;;644    HAL_StatusTypeDef HAL_UART_DeInit(UART_HandleTypeDef *huart)
000000  b570              PUSH     {r4-r6,lr}
;;;645    {
000002  0004              MOVS     r4,r0
000004  d019              BEQ      |L23.58|
;;;646      /* Check the UART handle allocation */
;;;647      if (huart == NULL)
;;;648      {
;;;649        return HAL_ERROR;
;;;650      }
;;;651    
;;;652      /* Check the parameters */
;;;653      assert_param((IS_UART_INSTANCE(huart->Instance)) || (IS_LPUART_INSTANCE(huart->Instance)));
;;;654    
;;;655      huart->gState = HAL_UART_STATE_BUSY;
000006  2024              MOVS     r0,#0x24
000008  67a0              STR      r0,[r4,#0x78]
;;;656    
;;;657      __HAL_UART_DISABLE(huart);
00000a  6820              LDR      r0,[r4,#0]
00000c  6801              LDR      r1,[r0,#0]
00000e  f0210101          BIC      r1,r1,#1
000012  6001              STR      r1,[r0,#0]
;;;658    
;;;659      huart->Instance->CR1 = 0x0U;
000014  6820              LDR      r0,[r4,#0]
000016  2500              MOVS     r5,#0
000018  6005              STR      r5,[r0,#0]
;;;660      huart->Instance->CR2 = 0x0U;
00001a  6820              LDR      r0,[r4,#0]
00001c  6045              STR      r5,[r0,#4]
;;;661      huart->Instance->CR3 = 0x0U;
00001e  6820              LDR      r0,[r4,#0]
000020  6085              STR      r5,[r0,#8]
;;;662    
;;;663    #if (USE_HAL_UART_REGISTER_CALLBACKS == 1)
;;;664      if (huart->MspDeInitCallback == NULL)
;;;665      {
;;;666        huart->MspDeInitCallback = HAL_UART_MspDeInit;
;;;667      }
;;;668      /* DeInit the low level hardware */
;;;669      huart->MspDeInitCallback(huart);
;;;670    #else
;;;671      /* DeInit the low level hardware */
;;;672      HAL_UART_MspDeInit(huart);
000022  4620              MOV      r0,r4
000024  f7fffffe          BL       HAL_UART_MspDeInit
;;;673    #endif /* (USE_HAL_UART_REGISTER_CALLBACKS) */
;;;674    
;;;675      huart->ErrorCode = HAL_UART_ERROR_NONE;
000028  f8c45080          STR      r5,[r4,#0x80]
;;;676      huart->gState = HAL_UART_STATE_RESET;
00002c  67a5              STR      r5,[r4,#0x78]
;;;677      huart->RxState = HAL_UART_STATE_RESET;
00002e  67e5              STR      r5,[r4,#0x7c]
;;;678      huart->ReceptionType = HAL_UART_RECEPTION_STANDARD;
000030  f8445f60          STR      r5,[r4,#0x60]!
;;;679    
;;;680      __HAL_UNLOCK(huart);
;;;681    
;;;682      return HAL_OK;
000034  2000              MOVS     r0,#0
000036  7525              STRB     r5,[r4,#0x14]         ;680
;;;683    }
000038  bd70              POP      {r4-r6,pc}
                  |L23.58|
00003a  2001              MOVS     r0,#1                 ;649
00003c  bd70              POP      {r4-r6,pc}
;;;684    
                          ENDP


                          AREA ||i.HAL_UART_DisableReceiverTimeout||, CODE, READONLY, ALIGN=2

                  HAL_UART_DisableReceiverTimeout PROC
;;;2901     */
;;;2902   HAL_StatusTypeDef HAL_UART_DisableReceiverTimeout(UART_HandleTypeDef *huart)
000000  4a0e              LDR      r2,|L24.60|
;;;2903   {
;;;2904     if (!(IS_LPUART_INSTANCE(huart->Instance)))
000002  6801              LDR      r1,[r0,#0]
000004  4291              CMP      r1,r2
000006  d017              BEQ      |L24.56|
;;;2905     {
;;;2906       if (huart->gState == HAL_UART_STATE_READY)
000008  6f82              LDR      r2,[r0,#0x78]
00000a  2a20              CMP      r2,#0x20
00000c  d112              BNE      |L24.52|
;;;2907       {
;;;2908         /* Process Locked */
;;;2909         __HAL_LOCK(huart);
00000e  f8902074          LDRB     r2,[r0,#0x74]
000012  2a01              CMP      r2,#1
000014  d00e              BEQ      |L24.52|
000016  2201              MOVS     r2,#1
000018  f8002f74          STRB     r2,[r0,#0x74]!
;;;2910   
;;;2911         huart->gState = HAL_UART_STATE_BUSY;
00001c  2224              MOVS     r2,#0x24
00001e  6042              STR      r2,[r0,#4]
;;;2912   
;;;2913         /* Clear the USART RTOEN bit */
;;;2914         CLEAR_BIT(huart->Instance->CR2, USART_CR2_RTOEN);
000020  684a              LDR      r2,[r1,#4]
000022  f4220200          BIC      r2,r2,#0x800000
000026  604a              STR      r2,[r1,#4]
;;;2915   
;;;2916         huart->gState = HAL_UART_STATE_READY;
000028  2120              MOVS     r1,#0x20
00002a  6041              STR      r1,[r0,#4]
;;;2917   
;;;2918         /* Process Unlocked */
;;;2919         __HAL_UNLOCK(huart);
00002c  2100              MOVS     r1,#0
00002e  7001              STRB     r1,[r0,#0]
;;;2920   
;;;2921         return HAL_OK;
000030  4608              MOV      r0,r1
;;;2922       }
;;;2923       else
;;;2924       {
;;;2925         return HAL_BUSY;
;;;2926       }
;;;2927     }
;;;2928     else
;;;2929     {
;;;2930       return HAL_ERROR;
;;;2931     }
;;;2932   }
000032  4770              BX       lr
                  |L24.52|
000034  2002              MOVS     r0,#2                 ;2925
000036  4770              BX       lr
                  |L24.56|
000038  2001              MOVS     r0,#1                 ;2930
00003a  4770              BX       lr
;;;2933   
                          ENDP

                  |L24.60|
                          DCD      0x40008000

                          AREA ||i.HAL_UART_EnableReceiverTimeout||, CODE, READONLY, ALIGN=2

                  HAL_UART_EnableReceiverTimeout PROC
;;;2863     */
;;;2864   HAL_StatusTypeDef HAL_UART_EnableReceiverTimeout(UART_HandleTypeDef *huart)
000000  4a0e              LDR      r2,|L25.60|
;;;2865   {
;;;2866     if (!(IS_LPUART_INSTANCE(huart->Instance)))
000002  6801              LDR      r1,[r0,#0]
000004  4291              CMP      r1,r2
000006  d017              BEQ      |L25.56|
;;;2867     {
;;;2868       if (huart->gState == HAL_UART_STATE_READY)
000008  6f82              LDR      r2,[r0,#0x78]
00000a  2a20              CMP      r2,#0x20
00000c  d112              BNE      |L25.52|
;;;2869       {
;;;2870         /* Process Locked */
;;;2871         __HAL_LOCK(huart);
00000e  f8902074          LDRB     r2,[r0,#0x74]
000012  2a01              CMP      r2,#1
000014  d00e              BEQ      |L25.52|
000016  2201              MOVS     r2,#1
000018  f8002f74          STRB     r2,[r0,#0x74]!
;;;2872   
;;;2873         huart->gState = HAL_UART_STATE_BUSY;
00001c  2224              MOVS     r2,#0x24
00001e  6042              STR      r2,[r0,#4]
;;;2874   
;;;2875         /* Set the USART RTOEN bit */
;;;2876         SET_BIT(huart->Instance->CR2, USART_CR2_RTOEN);
000020  684a              LDR      r2,[r1,#4]
000022  f4420200          ORR      r2,r2,#0x800000
000026  604a              STR      r2,[r1,#4]
;;;2877   
;;;2878         huart->gState = HAL_UART_STATE_READY;
000028  2120              MOVS     r1,#0x20
00002a  6041              STR      r1,[r0,#4]
;;;2879   
;;;2880         /* Process Unlocked */
;;;2881         __HAL_UNLOCK(huart);
00002c  2100              MOVS     r1,#0
00002e  7001              STRB     r1,[r0,#0]
;;;2882   
;;;2883         return HAL_OK;
000030  4608              MOV      r0,r1
;;;2884       }
;;;2885       else
;;;2886       {
;;;2887         return HAL_BUSY;
;;;2888       }
;;;2889     }
;;;2890     else
;;;2891     {
;;;2892       return HAL_ERROR;
;;;2893     }
;;;2894   }
000032  4770              BX       lr
                  |L25.52|
000034  2002              MOVS     r0,#2                 ;2887
000036  4770              BX       lr
                  |L25.56|
000038  2001              MOVS     r0,#1                 ;2892
00003a  4770              BX       lr
;;;2895   
                          ENDP

                  |L25.60|
                          DCD      0x40008000

                          AREA ||i.HAL_UART_ErrorCallback||, CODE, READONLY, ALIGN=1

                  HAL_UART_ErrorCallback PROC
;;;2738     */
;;;2739   __weak void HAL_UART_ErrorCallback(UART_HandleTypeDef *huart)
000000  4770              BX       lr
;;;2740   {
;;;2741     /* Prevent unused argument(s) compilation warning */
;;;2742     UNUSED(huart);
;;;2743   
;;;2744     /* NOTE : This function should not be modified, when the callback is needed,
;;;2745               the HAL_UART_ErrorCallback can be implemented in the user file.
;;;2746      */
;;;2747   }
;;;2748   
                          ENDP


                          AREA ||i.HAL_UART_GetError||, CODE, READONLY, ALIGN=1

                  HAL_UART_GetError PROC
;;;3097     */
;;;3098   uint32_t HAL_UART_GetError(const UART_HandleTypeDef *huart)
000000  f8d00080          LDR      r0,[r0,#0x80]
;;;3099   {
;;;3100     return huart->ErrorCode;
;;;3101   }
000004  4770              BX       lr
;;;3102   /**
                          ENDP


                          AREA ||i.HAL_UART_GetState||, CODE, READONLY, ALIGN=1

                  HAL_UART_GetState PROC
;;;3081     */
;;;3082   HAL_UART_StateTypeDef HAL_UART_GetState(const UART_HandleTypeDef *huart)
000000  4601              MOV      r1,r0
;;;3083   {
;;;3084     uint32_t temp1;
;;;3085     uint32_t temp2;
;;;3086     temp1 = huart->gState;
000002  6f80              LDR      r0,[r0,#0x78]
;;;3087     temp2 = huart->RxState;
000004  6fc9              LDR      r1,[r1,#0x7c]
;;;3088   
;;;3089     return (HAL_UART_StateTypeDef)(temp1 | temp2);
000006  4308              ORRS     r0,r0,r1
;;;3090   }
000008  4770              BX       lr
;;;3091   
                          ENDP


                          AREA ||i.HAL_UART_IRQHandler||, CODE, READONLY, ALIGN=2

                  HAL_UART_IRQHandler PROC
;;;2321     */
;;;2322   void HAL_UART_IRQHandler(UART_HandleTypeDef *huart)
000000  e92d41f0          PUSH     {r4-r8,lr}
;;;2323   {
;;;2324     uint32_t isrflags   = READ_REG(huart->Instance->ISR);
000004  6802              LDR      r2,[r0,#0]
000006  4604              MOV      r4,r0                 ;2323
000008  69d0              LDR      r0,[r2,#0x1c]
;;;2325     uint32_t cr1its     = READ_REG(huart->Instance->CR1);
00000a  6811              LDR      r1,[r2,#0]
;;;2326     uint32_t cr3its     = READ_REG(huart->Instance->CR3);
00000c  6893              LDR      r3,[r2,#8]
;;;2327   
;;;2328     uint32_t errorflags;
;;;2329     uint32_t errorcode;
;;;2330   
;;;2331     /* If no error occurs */
;;;2332     errorflags = (isrflags & (uint32_t)(USART_ISR_PE | USART_ISR_FE | USART_ISR_ORE | USART_ISR_NE | USART_ISR_RTOF));
00000e  f640050f          MOV      r5,#0x80f
000012  4228              TST      r0,r5
000014  f04f0500          MOV      r5,#0
000018  d105              BNE      |L29.38|
;;;2333     if (errorflags == 0U)
;;;2334     {
;;;2335       /* UART in mode Receiver ---------------------------------------------------*/
;;;2336   #if defined(USART_CR1_FIFOEN)
;;;2337       if (((isrflags & USART_ISR_RXNE_RXFNE) != 0U)
;;;2338           && (((cr1its & USART_CR1_RXNEIE_RXFNEIE) != 0U)
;;;2339               || ((cr3its & USART_CR3_RXFTIE) != 0U)))
;;;2340   #else
;;;2341       if (((isrflags & USART_ISR_RXNE) != 0U)
00001a  0686              LSLS     r6,r0,#26
00001c  d57e              BPL      |L29.284|
;;;2342           && ((cr1its & USART_CR1_RXNEIE) != 0U))
00001e  068e              LSLS     r6,r1,#26
000020  d57c              BPL      |L29.284|
;;;2343   #endif /* USART_CR1_FIFOEN */
;;;2344       {
;;;2345         if (huart->RxISR != NULL)
000022  6e61              LDR      r1,[r4,#0x64]
000024  e11b              B        |L29.606|
                  |L29.38|
;;;2346         {
;;;2347           huart->RxISR(huart);
;;;2348         }
;;;2349         return;
;;;2350       }
;;;2351     }
;;;2352   
;;;2353     /* If some errors occur */
;;;2354   #if defined(USART_CR1_FIFOEN)
;;;2355     if ((errorflags != 0U)
;;;2356         && ((((cr3its & (USART_CR3_RXFTIE | USART_CR3_EIE)) != 0U)
;;;2357              || ((cr1its & (USART_CR1_RXNEIE_RXFNEIE | USART_CR1_PEIE | USART_CR1_RTOIE)) != 0U))))
;;;2358   #else
;;;2359     if ((errorflags != 0U)
;;;2360         && (((cr3its & USART_CR3_EIE) != 0U)
000026  4f99              LDR      r7,|L29.652|
000028  f0030601          AND      r6,r3,#1
00002c  400f              ANDS     r7,r7,r1
00002e  4337              ORRS     r7,r7,r6
000030  d074              BEQ      |L29.284|
;;;2361             || ((cr1its & (USART_CR1_RXNEIE | USART_CR1_PEIE | USART_CR1_RTOIE)) != 0U)))
;;;2362   #endif /* USART_CR1_FIFOEN */
;;;2363     {
;;;2364       /* UART parity error interrupt occurred -------------------------------------*/
;;;2365       if (((isrflags & USART_ISR_PE) != 0U) && ((cr1its & USART_CR1_PEIE) != 0U))
000032  07c7              LSLS     r7,r0,#31
000034  d009              BEQ      |L29.74|
000036  05cf              LSLS     r7,r1,#23
000038  d507              BPL      |L29.74|
;;;2366       {
;;;2367         __HAL_UART_CLEAR_FLAG(huart, UART_CLEAR_PEF);
00003a  2701              MOVS     r7,#1
00003c  6217              STR      r7,[r2,#0x20]
;;;2368   
;;;2369         huart->ErrorCode |= HAL_UART_ERROR_PE;
00003e  f8d42080          LDR      r2,[r4,#0x80]
000042  f0420201          ORR      r2,r2,#1
000046  f8c42080          STR      r2,[r4,#0x80]
                  |L29.74|
;;;2370       }
;;;2371   
;;;2372       /* UART frame error interrupt occurred --------------------------------------*/
;;;2373       if (((isrflags & USART_ISR_FE) != 0U) && ((cr3its & USART_CR3_EIE) != 0U))
00004a  0782              LSLS     r2,r0,#30
00004c  d50a              BPL      |L29.100|
00004e  07da              LSLS     r2,r3,#31
000050  d008              BEQ      |L29.100|
;;;2374       {
;;;2375         __HAL_UART_CLEAR_FLAG(huart, UART_CLEAR_FEF);
000052  6827              LDR      r7,[r4,#0]
000054  2202              MOVS     r2,#2
000056  623a              STR      r2,[r7,#0x20]
;;;2376   
;;;2377         huart->ErrorCode |= HAL_UART_ERROR_FE;
000058  f8d42080          LDR      r2,[r4,#0x80]
00005c  f0420204          ORR      r2,r2,#4
000060  f8c42080          STR      r2,[r4,#0x80]
                  |L29.100|
;;;2378       }
;;;2379   
;;;2380       /* UART noise error interrupt occurred --------------------------------------*/
;;;2381       if (((isrflags & USART_ISR_NE) != 0U) && ((cr3its & USART_CR3_EIE) != 0U))
000064  0742              LSLS     r2,r0,#29
000066  d50a              BPL      |L29.126|
000068  07da              LSLS     r2,r3,#31
00006a  d008              BEQ      |L29.126|
;;;2382       {
;;;2383         __HAL_UART_CLEAR_FLAG(huart, UART_CLEAR_NEF);
00006c  6823              LDR      r3,[r4,#0]
00006e  2204              MOVS     r2,#4
000070  621a              STR      r2,[r3,#0x20]
;;;2384   
;;;2385         huart->ErrorCode |= HAL_UART_ERROR_NE;
000072  f8d42080          LDR      r2,[r4,#0x80]
000076  f0420202          ORR      r2,r2,#2
00007a  f8c42080          STR      r2,[r4,#0x80]
                  |L29.126|
;;;2386       }
;;;2387   
;;;2388       /* UART Over-Run interrupt occurred -----------------------------------------*/
;;;2389   #if defined(USART_CR1_FIFOEN)
;;;2390       if (((isrflags & USART_ISR_ORE) != 0U)
;;;2391           && (((cr1its & USART_CR1_RXNEIE_RXFNEIE) != 0U) ||
;;;2392               ((cr3its & (USART_CR3_RXFTIE | USART_CR3_EIE)) != 0U)))
;;;2393   #else
;;;2394       if (((isrflags & USART_ISR_ORE) != 0U)
00007e  0702              LSLS     r2,r0,#28
000080  d50c              BPL      |L29.156|
;;;2395           && (((cr1its & USART_CR1_RXNEIE) != 0U) ||
000082  f0010220          AND      r2,r1,#0x20
000086  4332              ORRS     r2,r2,r6
000088  d008              BEQ      |L29.156|
;;;2396               ((cr3its & USART_CR3_EIE) != 0U)))
;;;2397   #endif /* USART_CR1_FIFOEN */
;;;2398       {
;;;2399         __HAL_UART_CLEAR_FLAG(huart, UART_CLEAR_OREF);
00008a  6823              LDR      r3,[r4,#0]
00008c  2208              MOVS     r2,#8
00008e  621a              STR      r2,[r3,#0x20]
;;;2400   
;;;2401         huart->ErrorCode |= HAL_UART_ERROR_ORE;
000090  f8d42080          LDR      r2,[r4,#0x80]
000094  f0420208          ORR      r2,r2,#8
000098  f8c42080          STR      r2,[r4,#0x80]
                  |L29.156|
;;;2402       }
;;;2403   
;;;2404       /* UART Receiver Timeout interrupt occurred ---------------------------------*/
;;;2405       if (((isrflags & USART_ISR_RTOF) != 0U) && ((cr1its & USART_CR1_RTOIE) != 0U))
00009c  0502              LSLS     r2,r0,#20
00009e  d50b              BPL      |L29.184|
0000a0  014a              LSLS     r2,r1,#5
0000a2  d509              BPL      |L29.184|
;;;2406       {
;;;2407         __HAL_UART_CLEAR_FLAG(huart, UART_CLEAR_RTOF);
0000a4  6823              LDR      r3,[r4,#0]
0000a6  f44f6200          MOV      r2,#0x800
0000aa  621a              STR      r2,[r3,#0x20]
;;;2408   
;;;2409         huart->ErrorCode |= HAL_UART_ERROR_RTO;
0000ac  f8d42080          LDR      r2,[r4,#0x80]
0000b0  f0420220          ORR      r2,r2,#0x20
0000b4  f8c42080          STR      r2,[r4,#0x80]
                  |L29.184|
;;;2410       }
;;;2411   
;;;2412       /* Call UART Error Call back function if need be ----------------------------*/
;;;2413       if (huart->ErrorCode != HAL_UART_ERROR_NONE)
0000b8  f8d42080          LDR      r2,[r4,#0x80]
0000bc  2a00              CMP      r2,#0
0000be  d035              BEQ      |L29.300|
;;;2414       {
;;;2415         /* UART in mode Receiver --------------------------------------------------*/
;;;2416   #if defined(USART_CR1_FIFOEN)
;;;2417         if (((isrflags & USART_ISR_RXNE_RXFNE) != 0U)
;;;2418             && (((cr1its & USART_CR1_RXNEIE_RXFNEIE) != 0U)
;;;2419                 || ((cr3its & USART_CR3_RXFTIE) != 0U)))
;;;2420   #else
;;;2421         if (((isrflags & USART_ISR_RXNE) != 0U)
0000c0  0680              LSLS     r0,r0,#26
0000c2  d505              BPL      |L29.208|
;;;2422             && ((cr1its & USART_CR1_RXNEIE) != 0U))
0000c4  0688              LSLS     r0,r1,#26
0000c6  d503              BPL      |L29.208|
;;;2423   #endif /* USART_CR1_FIFOEN */
;;;2424         {
;;;2425           if (huart->RxISR != NULL)
0000c8  6e61              LDR      r1,[r4,#0x64]
0000ca  b109              CBZ      r1,|L29.208|
;;;2426           {
;;;2427             huart->RxISR(huart);
0000cc  4620              MOV      r0,r4
0000ce  4788              BLX      r1
                  |L29.208|
;;;2428           }
;;;2429         }
;;;2430   
;;;2431         /* If Error is to be considered as blocking :
;;;2432             - Receiver Timeout error in Reception
;;;2433             - Overrun error in Reception
;;;2434             - any error occurs in DMA mode reception
;;;2435         */
;;;2436         errorcode = huart->ErrorCode;
0000d0  f8d40080          LDR      r0,[r4,#0x80]
;;;2437         if ((HAL_IS_BIT_SET(huart->Instance->CR3, USART_CR3_DMAR)) ||
0000d4  6821              LDR      r1,[r4,#0]
0000d6  6889              LDR      r1,[r1,#8]
0000d8  0649              LSLS     r1,r1,#25
0000da  d402              BMI      |L29.226|
;;;2438             ((errorcode & (HAL_UART_ERROR_RTO | HAL_UART_ERROR_ORE)) != 0U))
0000dc  f0100f28          TST      r0,#0x28
0000e0  d026              BEQ      |L29.304|
                  |L29.226|
;;;2439         {
;;;2440           /* Blocking error : transfer is aborted
;;;2441              Set the UART state ready to be able to start again the process,
;;;2442              Disable Rx Interrupts, and disable Rx DMA request, if ongoing */
;;;2443           UART_EndRxTransfer(huart);
0000e2  4620              MOV      r0,r4
0000e4  f7fffffe          BL       UART_EndRxTransfer
;;;2444   
;;;2445           /* Abort the UART DMA Rx channel if enabled */
;;;2446           if (HAL_IS_BIT_SET(huart->Instance->CR3, USART_CR3_DMAR))
0000e8  6820              LDR      r0,[r4,#0]
0000ea  6880              LDR      r0,[r0,#8]
0000ec  0640              LSLS     r0,r0,#25
0000ee  d51a              BPL      |L29.294|
                  |L29.240|
;;;2447           {
;;;2448             /* Disable the UART DMA Rx request if enabled */
;;;2449             ATOMIC_CLEAR_BIT(huart->Instance->CR3, USART_CR3_DMAR);
0000f0  6820              LDR      r0,[r4,#0]
0000f2  3008              ADDS     r0,r0,#8
0000f4  e8501f00          LDREX    r1,[r0,#0]
0000f8  f0210140          BIC      r1,r1,#0x40
0000fc  e8401200          STREX    r2,r1,[r0,#0]
000100  2a00              CMP      r2,#0
000102  d1f5              BNE      |L29.240|
;;;2450   
;;;2451             /* Abort the UART DMA Rx channel */
;;;2452             if (huart->hdmarx != NULL)
000104  6f20              LDR      r0,[r4,#0x70]
000106  b170              CBZ      r0,|L29.294|
;;;2453             {
;;;2454               /* Set the UART DMA Abort callback :
;;;2455                  will lead to call HAL_UART_ErrorCallback() at end of DMA abort procedure */
;;;2456               huart->hdmarx->XferAbortCallback = UART_DMAAbortOnError;
000108  4961              LDR      r1,|L29.656|
;;;2457   
;;;2458               /* Abort DMA RX */
;;;2459               if (HAL_DMA_Abort_IT(huart->hdmarx) != HAL_OK)
00010a  6381              STR      r1,[r0,#0x38]
00010c  6f20              LDR      r0,[r4,#0x70]
00010e  f7fffffe          BL       HAL_DMA_Abort_IT
000112  2800              CMP      r0,#0
000114  d00a              BEQ      |L29.300|
;;;2460               {
;;;2461                 /* Call Directly huart->hdmarx->XferAbortCallback function in case of error */
;;;2462                 huart->hdmarx->XferAbortCallback(huart->hdmarx);
000116  6f20              LDR      r0,[r4,#0x70]
000118  6b81              LDR      r1,[r0,#0x38]
00011a  e001              B        |L29.288|
                  |L29.284|
00011c  e00e              B        |L29.316|
                  |L29.286|
00011e  4620              MOV      r0,r4                 ;2347
                  |L29.288|
;;;2463               }
;;;2464             }
;;;2465             else
;;;2466             {
;;;2467               /* Call user error callback */
;;;2468   #if (USE_HAL_UART_REGISTER_CALLBACKS == 1)
;;;2469               /*Call registered error callback*/
;;;2470               huart->ErrorCallback(huart);
;;;2471   #else
;;;2472               /*Call legacy weak error callback*/
;;;2473               HAL_UART_ErrorCallback(huart);
;;;2474   #endif /* USE_HAL_UART_REGISTER_CALLBACKS */
;;;2475   
;;;2476             }
;;;2477           }
;;;2478           else
;;;2479           {
;;;2480             /* Call user error callback */
;;;2481   #if (USE_HAL_UART_REGISTER_CALLBACKS == 1)
;;;2482             /*Call registered error callback*/
;;;2483             huart->ErrorCallback(huart);
;;;2484   #else
;;;2485             /*Call legacy weak error callback*/
;;;2486             HAL_UART_ErrorCallback(huart);
;;;2487   #endif /* USE_HAL_UART_REGISTER_CALLBACKS */
;;;2488           }
;;;2489         }
;;;2490         else
;;;2491         {
;;;2492           /* Non Blocking error : transfer could go on.
;;;2493              Error is notified to user through user error callback */
;;;2494   #if (USE_HAL_UART_REGISTER_CALLBACKS == 1)
;;;2495           /*Call registered error callback*/
;;;2496           huart->ErrorCallback(huart);
;;;2497   #else
;;;2498           /*Call legacy weak error callback*/
;;;2499           HAL_UART_ErrorCallback(huart);
;;;2500   #endif /* USE_HAL_UART_REGISTER_CALLBACKS */
;;;2501           huart->ErrorCode = HAL_UART_ERROR_NONE;
;;;2502         }
;;;2503       }
;;;2504       return;
;;;2505   
;;;2506     } /* End if some error occurs */
;;;2507   
;;;2508     /* Check current reception Mode :
;;;2509        If Reception till IDLE event has been selected : */
;;;2510     if ((huart->ReceptionType == HAL_UART_RECEPTION_TOIDLE)
;;;2511         && ((isrflags & USART_ISR_IDLE) != 0U)
;;;2512         && ((cr1its & USART_ISR_IDLE) != 0U))
;;;2513     {
;;;2514       __HAL_UART_CLEAR_FLAG(huart, UART_CLEAR_IDLEF);
;;;2515   
;;;2516       /* Check if DMA mode is enabled in UART */
;;;2517       if (HAL_IS_BIT_SET(huart->Instance->CR3, USART_CR3_DMAR))
;;;2518       {
;;;2519         /* DMA mode enabled */
;;;2520         /* Check received length : If all expected data are received, do nothing,
;;;2521            (DMA cplt callback will be called).
;;;2522            Otherwise, if at least one data has already been received, IDLE event is to be notified to user */
;;;2523         uint16_t nb_remaining_rx_data = (uint16_t) __HAL_DMA_GET_COUNTER(huart->hdmarx);
;;;2524         if ((nb_remaining_rx_data > 0U)
;;;2525             && (nb_remaining_rx_data < huart->RxXferSize))
;;;2526         {
;;;2527           /* Reception is not complete */
;;;2528           huart->RxXferCount = nb_remaining_rx_data;
;;;2529   
;;;2530           /* In Normal mode, end DMA xfer and HAL UART Rx process*/
;;;2531           if (HAL_IS_BIT_CLR(huart->hdmarx->Instance->CCR, DMA_CCR_CIRC))
;;;2532           {
;;;2533             /* Disable PE and ERR (Frame error, noise error, overrun error) interrupts */
;;;2534             ATOMIC_CLEAR_BIT(huart->Instance->CR1, USART_CR1_PEIE);
;;;2535             ATOMIC_CLEAR_BIT(huart->Instance->CR3, USART_CR3_EIE);
;;;2536   
;;;2537             /* Disable the DMA transfer for the receiver request by resetting the DMAR bit
;;;2538                in the UART CR3 register */
;;;2539             ATOMIC_CLEAR_BIT(huart->Instance->CR3, USART_CR3_DMAR);
;;;2540   
;;;2541             /* At end of Rx process, restore huart->RxState to Ready */
;;;2542             huart->RxState = HAL_UART_STATE_READY;
;;;2543             huart->ReceptionType = HAL_UART_RECEPTION_STANDARD;
;;;2544   
;;;2545             ATOMIC_CLEAR_BIT(huart->Instance->CR1, USART_CR1_IDLEIE);
;;;2546   
;;;2547             /* Last bytes received, so no need as the abort is immediate */
;;;2548             (void)HAL_DMA_Abort(huart->hdmarx);
;;;2549           }
;;;2550   #if (USE_HAL_UART_REGISTER_CALLBACKS == 1)
;;;2551           /*Call registered Rx Event callback*/
;;;2552           huart->RxEventCallback(huart, (huart->RxXferSize - huart->RxXferCount));
;;;2553   #else
;;;2554           /*Call legacy weak Rx Event callback*/
;;;2555           HAL_UARTEx_RxEventCallback(huart, (huart->RxXferSize - huart->RxXferCount));
;;;2556   #endif /* (USE_HAL_UART_REGISTER_CALLBACKS) */
;;;2557         }
;;;2558         return;
;;;2559       }
;;;2560       else
;;;2561       {
;;;2562         /* DMA mode not enabled */
;;;2563         /* Check received length : If all expected data are received, do nothing.
;;;2564            Otherwise, if at least one data has already been received, IDLE event is to be notified to user */
;;;2565         uint16_t nb_rx_data = huart->RxXferSize - huart->RxXferCount;
;;;2566         if ((huart->RxXferCount > 0U)
;;;2567             && (nb_rx_data > 0U))
;;;2568         {
;;;2569   #if defined(USART_CR1_FIFOEN)
;;;2570           /* Disable the UART Parity Error Interrupt and RXNE interrupts */
;;;2571           ATOMIC_CLEAR_BIT(huart->Instance->CR1, (USART_CR1_RXNEIE_RXFNEIE | USART_CR1_PEIE));
;;;2572   
;;;2573           /* Disable the UART Error Interrupt:(Frame error, noise error, overrun error) and RX FIFO Threshold interrupt */
;;;2574           ATOMIC_CLEAR_BIT(huart->Instance->CR3, (USART_CR3_EIE | USART_CR3_RXFTIE));
;;;2575   #else
;;;2576           /* Disable the UART Parity Error Interrupt and RXNE interrupts */
;;;2577           ATOMIC_CLEAR_BIT(huart->Instance->CR1, (USART_CR1_RXNEIE | USART_CR1_PEIE));
;;;2578   
;;;2579           /* Disable the UART Error Interrupt: (Frame error, noise error, overrun error) */
;;;2580           ATOMIC_CLEAR_BIT(huart->Instance->CR3, USART_CR3_EIE);
;;;2581   #endif /* USART_CR1_FIFOEN */
;;;2582   
;;;2583           /* Rx process is completed, restore huart->RxState to Ready */
;;;2584           huart->RxState = HAL_UART_STATE_READY;
;;;2585           huart->ReceptionType = HAL_UART_RECEPTION_STANDARD;
;;;2586   
;;;2587           /* Clear RxISR function pointer */
;;;2588           huart->RxISR = NULL;
;;;2589   
;;;2590           ATOMIC_CLEAR_BIT(huart->Instance->CR1, USART_CR1_IDLEIE);
;;;2591   #if (USE_HAL_UART_REGISTER_CALLBACKS == 1)
;;;2592           /*Call registered Rx complete callback*/
;;;2593           huart->RxEventCallback(huart, nb_rx_data);
;;;2594   #else
;;;2595           /*Call legacy weak Rx Event callback*/
;;;2596           HAL_UARTEx_RxEventCallback(huart, nb_rx_data);
;;;2597   #endif /* (USE_HAL_UART_REGISTER_CALLBACKS) */
;;;2598         }
;;;2599         return;
;;;2600       }
;;;2601     }
;;;2602   
;;;2603     /* UART wakeup from Stop mode interrupt occurred ---------------------------*/
;;;2604     if (((isrflags & USART_ISR_WUF) != 0U) && ((cr3its & USART_CR3_WUFIE) != 0U))
;;;2605     {
;;;2606       __HAL_UART_CLEAR_FLAG(huart, UART_CLEAR_WUF);
;;;2607   
;;;2608       /* UART Rx state is not reset as a reception process might be ongoing.
;;;2609          If UART handle state fields need to be reset to READY, this could be done in Wakeup callback */
;;;2610   
;;;2611   #if (USE_HAL_UART_REGISTER_CALLBACKS == 1)
;;;2612       /* Call registered Wakeup Callback */
;;;2613       huart->WakeupCallback(huart);
;;;2614   #else
;;;2615       /* Call legacy weak Wakeup Callback */
;;;2616       HAL_UARTEx_WakeupCallback(huart);
;;;2617   #endif /* USE_HAL_UART_REGISTER_CALLBACKS */
;;;2618       return;
;;;2619     }
;;;2620   
;;;2621     /* UART in mode Transmitter ------------------------------------------------*/
;;;2622   #if defined(USART_CR1_FIFOEN)
;;;2623     if (((isrflags & USART_ISR_TXE_TXFNF) != 0U)
;;;2624         && (((cr1its & USART_CR1_TXEIE_TXFNFIE) != 0U)
;;;2625             || ((cr3its & USART_CR3_TXFTIE) != 0U)))
;;;2626   #else
;;;2627     if (((isrflags & USART_ISR_TXE) != 0U)
;;;2628         && ((cr1its & USART_CR1_TXEIE) != 0U))
;;;2629   #endif /* USART_CR1_FIFOEN */
;;;2630     {
;;;2631       if (huart->TxISR != NULL)
;;;2632       {
;;;2633         huart->TxISR(huart);
000120  e8bd41f0          POP      {r4-r8,lr}
000124  4708              BX       r1
                  |L29.294|
000126  4620              MOV      r0,r4                 ;2486
000128  f7fffffe          BL       HAL_UART_ErrorCallback
                  |L29.300|
;;;2634       }
;;;2635       return;
;;;2636     }
;;;2637   
;;;2638     /* UART in mode Transmitter (transmission end) -----------------------------*/
;;;2639     if (((isrflags & USART_ISR_TC) != 0U) && ((cr1its & USART_CR1_TCIE) != 0U))
;;;2640     {
;;;2641       UART_EndTransmit_IT(huart);
;;;2642       return;
;;;2643     }
;;;2644   
;;;2645   #if defined(USART_CR1_FIFOEN)
;;;2646     /* UART TX Fifo Empty occurred ----------------------------------------------*/
;;;2647     if (((isrflags & USART_ISR_TXFE) != 0U) && ((cr1its & USART_CR1_TXFEIE) != 0U))
;;;2648     {
;;;2649   #if (USE_HAL_UART_REGISTER_CALLBACKS == 1)
;;;2650       /* Call registered Tx Fifo Empty Callback */
;;;2651       huart->TxFifoEmptyCallback(huart);
;;;2652   #else
;;;2653       /* Call legacy weak Tx Fifo Empty Callback */
;;;2654       HAL_UARTEx_TxFifoEmptyCallback(huart);
;;;2655   #endif /* USE_HAL_UART_REGISTER_CALLBACKS */
;;;2656       return;
;;;2657     }
;;;2658   
;;;2659     /* UART RX Fifo Full occurred ----------------------------------------------*/
;;;2660     if (((isrflags & USART_ISR_RXFF) != 0U) && ((cr1its & USART_CR1_RXFFIE) != 0U))
;;;2661     {
;;;2662   #if (USE_HAL_UART_REGISTER_CALLBACKS == 1)
;;;2663       /* Call registered Rx Fifo Full Callback */
;;;2664       huart->RxFifoFullCallback(huart);
;;;2665   #else
;;;2666       /* Call legacy weak Rx Fifo Full Callback */
;;;2667       HAL_UARTEx_RxFifoFullCallback(huart);
;;;2668   #endif /* USE_HAL_UART_REGISTER_CALLBACKS */
;;;2669       return;
;;;2670     }
;;;2671   #endif /* USART_CR1_FIFOEN */
;;;2672   }
00012c  e8bd81f0          POP      {r4-r8,pc}
                  |L29.304|
000130  4620              MOV      r0,r4                 ;2499
000132  f7fffffe          BL       HAL_UART_ErrorCallback
000136  f8c45080          STR      r5,[r4,#0x80]         ;2501
00013a  e7f7              B        |L29.300|
                  |L29.316|
00013c  6e27              LDR      r7,[r4,#0x60]         ;2510
00013e  2620              MOVS     r6,#0x20              ;2542
000140  2f01              CMP      r7,#1                 ;2510
000142  d17b              BNE      |L29.572|
000144  06c7              LSLS     r7,r0,#27             ;2511
000146  d579              BPL      |L29.572|
000148  06cf              LSLS     r7,r1,#27             ;2512
00014a  d577              BPL      |L29.572|
00014c  2010              MOVS     r0,#0x10              ;2514
00014e  6210              STR      r0,[r2,#0x20]         ;2514
000150  6820              LDR      r0,[r4,#0]            ;2517
000152  6880              LDR      r0,[r0,#8]            ;2517
000154  0640              LSLS     r0,r0,#25             ;2517
000156  d541              BPL      |L29.476|
000158  6f21              LDR      r1,[r4,#0x70]         ;2523
00015a  6808              LDR      r0,[r1,#0]            ;2523
00015c  6840              LDR      r0,[r0,#4]            ;2523
00015e  0400              LSLS     r0,r0,#16             ;2523
000160  0c00              LSRS     r0,r0,#16             ;2523
000162  d0e3              BEQ      |L29.300|
000164  f8b42058          LDRH     r2,[r4,#0x58]         ;2525
000168  4282              CMP      r2,r0                 ;2525
00016a  d9df              BLS      |L29.300|
00016c  f8a4005a          STRH     r0,[r4,#0x5a]         ;2528
000170  6808              LDR      r0,[r1,#0]            ;2531
000172  6800              LDR      r0,[r0,#0]            ;2531
000174  0680              LSLS     r0,r0,#26             ;2531
000176  d42a              BMI      |L29.462|
                  |L29.376|
000178  6820              LDR      r0,[r4,#0]            ;2534
00017a  e8501f00          LDREX    r1,[r0,#0]            ;2534
00017e  f4217180          BIC      r1,r1,#0x100          ;2534
000182  e8401200          STREX    r2,r1,[r0,#0]         ;2534
000186  2a00              CMP      r2,#0                 ;2534
000188  d1f6              BNE      |L29.376|
                  |L29.394|
00018a  6820              LDR      r0,[r4,#0]            ;2535
00018c  3008              ADDS     r0,r0,#8              ;2535
00018e  e8501f00          LDREX    r1,[r0,#0]            ;2535
000192  f0210101          BIC      r1,r1,#1              ;2535
000196  e8401200          STREX    r2,r1,[r0,#0]         ;2535
00019a  2a00              CMP      r2,#0                 ;2535
00019c  d1f5              BNE      |L29.394|
                  |L29.414|
00019e  6820              LDR      r0,[r4,#0]            ;2539
0001a0  3008              ADDS     r0,r0,#8              ;2539
0001a2  e8501f00          LDREX    r1,[r0,#0]            ;2539
0001a6  f0210140          BIC      r1,r1,#0x40           ;2539
0001aa  e8401200          STREX    r2,r1,[r0,#0]         ;2539
0001ae  2a00              CMP      r2,#0                 ;2539
0001b0  d1f5              BNE      |L29.414|
0001b2  67e6              STR      r6,[r4,#0x7c]         ;2542
0001b4  6625              STR      r5,[r4,#0x60]         ;2543
                  |L29.438|
0001b6  6821              LDR      r1,[r4,#0]            ;2545
0001b8  e8510f00          LDREX    r0,[r1,#0]            ;2545
0001bc  f0200010          BIC      r0,r0,#0x10           ;2545
0001c0  e8410200          STREX    r2,r0,[r1,#0]         ;2545
0001c4  2a00              CMP      r2,#0                 ;2545
0001c6  d1f6              BNE      |L29.438|
0001c8  6f20              LDR      r0,[r4,#0x70]         ;2548
0001ca  f7fffffe          BL       HAL_DMA_Abort
                  |L29.462|
0001ce  f8b40058          LDRH     r0,[r4,#0x58]         ;2555
0001d2  f8b4105a          LDRH     r1,[r4,#0x5a]         ;2555
0001d6  1a40              SUBS     r0,r0,r1              ;2555
0001d8  b281              UXTH     r1,r0                 ;2555
0001da  e02a              B        |L29.562|
                  |L29.476|
0001dc  f8b40058          LDRH     r0,[r4,#0x58]         ;2565
0001e0  f8b4105a          LDRH     r1,[r4,#0x5a]         ;2565
0001e4  1a40              SUBS     r0,r0,r1              ;2565
0001e6  b281              UXTH     r1,r0                 ;2565
0001e8  f8b4005a          LDRH     r0,[r4,#0x5a]         ;2566
0001ec  2800              CMP      r0,#0                 ;2566
0001ee  d09d              BEQ      |L29.300|
0001f0  2900              CMP      r1,#0                 ;2567
0001f2  d09b              BEQ      |L29.300|
                  |L29.500|
0001f4  6822              LDR      r2,[r4,#0]            ;2577
0001f6  e8520f00          LDREX    r0,[r2,#0]            ;2577
0001fa  f4207090          BIC      r0,r0,#0x120          ;2577
0001fe  e8420300          STREX    r3,r0,[r2,#0]         ;2577
000202  2b00              CMP      r3,#0                 ;2577
000204  d1f6              BNE      |L29.500|
                  |L29.518|
000206  6820              LDR      r0,[r4,#0]            ;2580
000208  3008              ADDS     r0,r0,#8              ;2580
00020a  e8502f00          LDREX    r2,[r0,#0]            ;2580
00020e  f0220201          BIC      r2,r2,#1              ;2580
000212  e8402300          STREX    r3,r2,[r0,#0]         ;2580
000216  2b00              CMP      r3,#0                 ;2580
000218  d1f5              BNE      |L29.518|
00021a  67e6              STR      r6,[r4,#0x7c]         ;2584
00021c  6625              STR      r5,[r4,#0x60]         ;2585
00021e  6665              STR      r5,[r4,#0x64]         ;2588
                  |L29.544|
000220  6822              LDR      r2,[r4,#0]            ;2590
000222  e8520f00          LDREX    r0,[r2,#0]            ;2590
000226  f0200010          BIC      r0,r0,#0x10           ;2590
00022a  e8420300          STREX    r3,r0,[r2,#0]         ;2590
00022e  2b00              CMP      r3,#0                 ;2590
000230  d1f6              BNE      |L29.544|
                  |L29.562|
000232  4620              MOV      r0,r4                 ;2596
000234  f7fffffe          BL       HAL_UARTEx_RxEventCallback
                  |L29.568|
000238  e778              B        |L29.300|
00023a  e7ff              B        |L29.572|
                  |L29.572|
00023c  02c7              LSLS     r7,r0,#11             ;2604
00023e  d509              BPL      |L29.596|
000240  025b              LSLS     r3,r3,#9              ;2604
000242  d507              BPL      |L29.596|
000244  f44f1080          MOV      r0,#0x100000          ;2606
000248  6210              STR      r0,[r2,#0x20]         ;2606
00024a  4620              MOV      r0,r4                 ;2616
00024c  e8bd41f0          POP      {r4-r8,lr}            ;2616
000250  f7ffbffe          B.W      HAL_UARTEx_WakeupCallback
                  |L29.596|
000254  0602              LSLS     r2,r0,#24             ;2627
000256  d506              BPL      |L29.614|
000258  060a              LSLS     r2,r1,#24             ;2628
00025a  d504              BPL      |L29.614|
00025c  6ea1              LDR      r1,[r4,#0x68]         ;2631
                  |L29.606|
00025e  2900              CMP      r1,#0                 ;2631
000260  f47faf5d          BNE      |L29.286|
000264  e762              B        |L29.300|
                  |L29.614|
000266  0640              LSLS     r0,r0,#25             ;2639
000268  d5e6              BPL      |L29.568|
00026a  0648              LSLS     r0,r1,#25             ;2639
00026c  d5e4              BPL      |L29.568|
00026e  4620              MOV      r0,r4                 ;2641
                  |L29.624|
000270  6802              LDR      r2,[r0,#0]            ;2641
000272  e8521f00          LDREX    r1,[r2,#0]            ;2641
000276  f0210140          BIC      r1,r1,#0x40           ;2641
00027a  e8421300          STREX    r3,r1,[r2,#0]         ;2641
00027e  2b00              CMP      r3,#0                 ;2641
000280  d1f6              BNE      |L29.624|
000282  6786              STR      r6,[r0,#0x78]         ;2641
000284  6685              STR      r5,[r0,#0x68]         ;2641
000286  f7fffffe          BL       HAL_UART_TxCpltCallback
00028a  e74f              B        |L29.300|
;;;2673   
                          ENDP

                  |L29.652|
                          DCD      0x04000120
                  |L29.656|
                          DCD      UART_DMAAbortOnError

                          AREA ||i.HAL_UART_Init||, CODE, READONLY, ALIGN=1

                  HAL_UART_Init PROC
;;;326      */
;;;327    HAL_StatusTypeDef HAL_UART_Init(UART_HandleTypeDef *huart)
000000  b510              PUSH     {r4,lr}
;;;328    {
000002  0004              MOVS     r4,r0
000004  d002              BEQ      |L30.12|
;;;329      /* Check the UART handle allocation */
;;;330      if (huart == NULL)
;;;331      {
;;;332        return HAL_ERROR;
;;;333      }
;;;334    
;;;335      if (huart->Init.HwFlowCtl != UART_HWCONTROL_NONE)
;;;336      {
;;;337        /* Check the parameters */
;;;338        assert_param(IS_UART_HWFLOW_INSTANCE(huart->Instance));
;;;339      }
;;;340      else
;;;341      {
;;;342        /* Check the parameters */
;;;343        assert_param((IS_UART_INSTANCE(huart->Instance)) || (IS_LPUART_INSTANCE(huart->Instance)));
;;;344      }
;;;345    
;;;346      if (huart->gState == HAL_UART_STATE_RESET)
000006  6fa0              LDR      r0,[r4,#0x78]
000008  b110              CBZ      r0,|L30.16|
00000a  e007              B        |L30.28|
                  |L30.12|
00000c  2001              MOVS     r0,#1                 ;332
                  |L30.14|
;;;347      {
;;;348        /* Allocate lock resource and initialize it */
;;;349        huart->Lock = HAL_UNLOCKED;
;;;350    
;;;351    #if (USE_HAL_UART_REGISTER_CALLBACKS == 1)
;;;352        UART_InitCallbacksToDefault(huart);
;;;353    
;;;354        if (huart->MspInitCallback == NULL)
;;;355        {
;;;356          huart->MspInitCallback = HAL_UART_MspInit;
;;;357        }
;;;358    
;;;359        /* Init the low level hardware */
;;;360        huart->MspInitCallback(huart);
;;;361    #else
;;;362        /* Init the low level hardware : GPIO, CLOCK */
;;;363        HAL_UART_MspInit(huart);
;;;364    #endif /* (USE_HAL_UART_REGISTER_CALLBACKS) */
;;;365      }
;;;366    
;;;367      huart->gState = HAL_UART_STATE_BUSY;
;;;368    
;;;369      __HAL_UART_DISABLE(huart);
;;;370    
;;;371      /* Set the UART Communication parameters */
;;;372      if (UART_SetConfig(huart) == HAL_ERROR)
;;;373      {
;;;374        return HAL_ERROR;
;;;375      }
;;;376    
;;;377      if (huart->AdvancedInit.AdvFeatureInit != UART_ADVFEATURE_NO_INIT)
;;;378      {
;;;379        UART_AdvFeatureConfig(huart);
;;;380      }
;;;381    
;;;382      /* In asynchronous mode, the following bits must be kept cleared:
;;;383      - LINEN and CLKEN bits in the USART_CR2 register,
;;;384      - SCEN, HDSEL and IREN  bits in the USART_CR3 register.*/
;;;385      CLEAR_BIT(huart->Instance->CR2, (USART_CR2_LINEN | USART_CR2_CLKEN));
;;;386      CLEAR_BIT(huart->Instance->CR3, (USART_CR3_SCEN | USART_CR3_HDSEL | USART_CR3_IREN));
;;;387    
;;;388      __HAL_UART_ENABLE(huart);
;;;389    
;;;390      /* TEACK and/or REACK to check before moving huart->gState and huart->RxState to Ready */
;;;391      return (UART_CheckIdleState(huart));
;;;392    }
00000e  bd10              POP      {r4,pc}
                  |L30.16|
000010  2000              MOVS     r0,#0                 ;349
000012  f8840074          STRB     r0,[r4,#0x74]         ;349
000016  4620              MOV      r0,r4                 ;363
000018  f7fffffe          BL       HAL_UART_MspInit
                  |L30.28|
00001c  2024              MOVS     r0,#0x24              ;367
00001e  67a0              STR      r0,[r4,#0x78]         ;367
000020  6820              LDR      r0,[r4,#0]            ;369
000022  6801              LDR      r1,[r0,#0]            ;369
000024  f0210101          BIC      r1,r1,#1              ;369
000028  6001              STR      r1,[r0,#0]            ;369
00002a  4620              MOV      r0,r4                 ;372
00002c  f7fffffe          BL       UART_SetConfig
000030  2801              CMP      r0,#1                 ;372
000032  d0ec              BEQ      |L30.14|
000034  6a60              LDR      r0,[r4,#0x24]         ;377
000036  b110              CBZ      r0,|L30.62|
000038  4620              MOV      r0,r4                 ;379
00003a  f7fffffe          BL       UART_AdvFeatureConfig
                  |L30.62|
00003e  6820              LDR      r0,[r4,#0]            ;385
000040  6841              LDR      r1,[r0,#4]            ;385
000042  f4214190          BIC      r1,r1,#0x4800         ;385
000046  6041              STR      r1,[r0,#4]            ;385
000048  6820              LDR      r0,[r4,#0]            ;386
00004a  6881              LDR      r1,[r0,#8]            ;386
00004c  f021012a          BIC      r1,r1,#0x2a           ;386
000050  6081              STR      r1,[r0,#8]            ;386
000052  6820              LDR      r0,[r4,#0]            ;388
000054  6801              LDR      r1,[r0,#0]            ;388
000056  f0410101          ORR      r1,r1,#1              ;388
00005a  6001              STR      r1,[r0,#0]            ;388
00005c  4620              MOV      r0,r4                 ;391
00005e  e8bd4010          POP      {r4,lr}               ;391
000062  f7ffbffe          B.W      UART_CheckIdleState
;;;393    
                          ENDP


                          AREA ||i.HAL_UART_MspDeInit||, CODE, READONLY, ALIGN=1

                  HAL_UART_MspDeInit PROC
;;;704      */
;;;705    __weak void HAL_UART_MspDeInit(UART_HandleTypeDef *huart)
000000  4770              BX       lr
;;;706    {
;;;707      /* Prevent unused argument(s) compilation warning */
;;;708      UNUSED(huart);
;;;709    
;;;710      /* NOTE : This function should not be modified, when the callback is needed,
;;;711                the HAL_UART_MspDeInit can be implemented in the user file
;;;712       */
;;;713    }
;;;714    
                          ENDP


                          AREA ||i.HAL_UART_MspInit||, CODE, READONLY, ALIGN=1

                  HAL_UART_MspInit PROC
;;;689      */
;;;690    __weak void HAL_UART_MspInit(UART_HandleTypeDef *huart)
000000  4770              BX       lr
;;;691    {
;;;692      /* Prevent unused argument(s) compilation warning */
;;;693      UNUSED(huart);
;;;694    
;;;695      /* NOTE : This function should not be modified, when the callback is needed,
;;;696                the HAL_UART_MspInit can be implemented in the user file
;;;697       */
;;;698    }
;;;699    
                          ENDP


                          AREA ||i.HAL_UART_Receive||, CODE, READONLY, ALIGN=2

                  HAL_UART_Receive PROC
;;;1237     */
;;;1238   HAL_StatusTypeDef HAL_UART_Receive(UART_HandleTypeDef *huart, uint8_t *pData, uint16_t Size, uint32_t Timeout)
000000  e92d4ff8          PUSH     {r3-r11,lr}
;;;1239   {
000004  4604              MOV      r4,r0
;;;1240     uint8_t  *pdata8bits;
;;;1241     uint16_t *pdata16bits;
;;;1242     uint16_t uhMask;
;;;1243     uint32_t tickstart;
;;;1244   
;;;1245     /* Check that a Rx process is not already ongoing */
;;;1246     if (huart->RxState == HAL_UART_STATE_READY)
000006  6fc0              LDR      r0,[r0,#0x7c]
000008  469a              MOV      r10,r3                ;1239
00000a  4616              MOV      r6,r2                 ;1239
00000c  460d              MOV      r5,r1                 ;1239
00000e  2820              CMP      r0,#0x20
000010  d170              BNE      |L33.244|
;;;1247     {
;;;1248       if ((pData == NULL) || (Size == 0U))
000012  b30d              CBZ      r5,|L33.88|
000014  b306              CBZ      r6,|L33.88|
;;;1249       {
;;;1250         return  HAL_ERROR;
;;;1251       }
;;;1252   
;;;1253       __HAL_LOCK(huart);
000016  f8940074          LDRB     r0,[r4,#0x74]
00001a  2801              CMP      r0,#1
00001c  d06a              BEQ      |L33.244|
00001e  2001              MOVS     r0,#1
000020  f8840074          STRB     r0,[r4,#0x74]
;;;1254   
;;;1255       huart->ErrorCode = HAL_UART_ERROR_NONE;
000024  f04f0800          MOV      r8,#0
000028  f8c48080          STR      r8,[r4,#0x80]
;;;1256       huart->RxState = HAL_UART_STATE_BUSY_RX;
00002c  2122              MOVS     r1,#0x22
00002e  67e1              STR      r1,[r4,#0x7c]
;;;1257       huart->ReceptionType = HAL_UART_RECEPTION_STANDARD;
000030  f8c48060          STR      r8,[r4,#0x60]
000034  3458              ADDS     r4,r4,#0x58
;;;1258   
;;;1259       /* Init tickstart for timeout management */
;;;1260       tickstart = HAL_GetTick();
000036  f7fffffe          BL       HAL_GetTick
;;;1261   
;;;1262       huart->RxXferSize  = Size;
00003a  f8246b02          STRH     r6,[r4],#2
00003e  4681              MOV      r9,r0                 ;1260
;;;1263       huart->RxXferCount = Size;
000040  f8246952          STRH     r6,[r4],#-0x52
;;;1264   
;;;1265       /* Computation of UART mask to apply to RDR register */
;;;1266       UART_MASK_COMPUTATION(huart);
000044  f44f5380          MOV      r3,#0x1000
000048  f8540908          LDR      r0,[r4],#-8
00004c  21ff              MOVS     r1,#0xff
00004e  4298              CMP      r0,r3
000050  d108              BNE      |L33.100|
000052  6922              LDR      r2,[r4,#0x10]
000054  b11a              CBZ      r2,|L33.94|
000056  e01c              B        |L33.146|
                  |L33.88|
000058  2001              MOVS     r0,#1                 ;1250
                  |L33.90|
;;;1267       uhMask = huart->Mask;
;;;1268   
;;;1269       /* In case of 9bits/No Parity transfer, pRxData needs to be handled as a uint16_t pointer */
;;;1270       if ((huart->Init.WordLength == UART_WORDLENGTH_9B) && (huart->Init.Parity == UART_PARITY_NONE))
;;;1271       {
;;;1272         pdata8bits  = NULL;
;;;1273         pdata16bits = (uint16_t *) pData;
;;;1274       }
;;;1275       else
;;;1276       {
;;;1277         pdata8bits  = pData;
;;;1278         pdata16bits = NULL;
;;;1279       }
;;;1280   
;;;1281       __HAL_UNLOCK(huart);
;;;1282   
;;;1283       /* as long as data have to be received */
;;;1284       while (huart->RxXferCount > 0U)
;;;1285       {
;;;1286         if (UART_WaitOnFlagUntilTimeout(huart, UART_FLAG_RXNE, RESET, tickstart, Timeout) != HAL_OK)
;;;1287         {
;;;1288           return HAL_TIMEOUT;
;;;1289         }
;;;1290         if (pdata8bits == NULL)
;;;1291         {
;;;1292           *pdata16bits = (uint16_t)(huart->Instance->RDR & uhMask);
;;;1293           pdata16bits++;
;;;1294         }
;;;1295         else
;;;1296         {
;;;1297           *pdata8bits = (uint8_t)(huart->Instance->RDR & (uint8_t)uhMask);
;;;1298           pdata8bits++;
;;;1299         }
;;;1300         huart->RxXferCount--;
;;;1301       }
;;;1302   
;;;1303       /* At end of Rx process, restore huart->RxState to Ready */
;;;1304       huart->RxState = HAL_UART_STATE_READY;
;;;1305   
;;;1306       return HAL_OK;
;;;1307     }
;;;1308     else
;;;1309     {
;;;1310       return HAL_BUSY;
;;;1311     }
;;;1312   }
00005a  e8bd8ff8          POP      {r3-r11,pc}
                  |L33.94|
00005e  f24011ff          MOV      r1,#0x1ff             ;1266
000062  e016              B        |L33.146|
                  |L33.100|
000064  227f              MOVS     r2,#0x7f              ;1266
000066  b190              CBZ      r0,|L33.142|
000068  f1b05f80          CMP      r0,#0x10000000        ;1266
00006c  d014              BEQ      |L33.152|
00006e  f8a4805c          STRH     r8,[r4,#0x5c]         ;1266
000072  bf00              NOP                            ;1267
                  |L33.116|
000074  f8b4705c          LDRH     r7,[r4,#0x5c]         ;1267
000078  4298              CMP      r0,r3                 ;1270
00007a  d101              BNE      |L33.128|
00007c  6920              LDR      r0,[r4,#0x10]         ;1270
00007e  b190              CBZ      r0,|L33.166|
                  |L33.128|
000080  462e              MOV      r6,r5                 ;1277
000082  2500              MOVS     r5,#0                 ;1278
                  |L33.132|
000084  f8848074          STRB     r8,[r4,#0x74]         ;1281
000088  f00708ff          AND      r8,r7,#0xff           ;1297
00008c  e025              B        |L33.218|
                  |L33.142|
00008e  6926              LDR      r6,[r4,#0x10]         ;1266
000090  b936              CBNZ     r6,|L33.160|
                  |L33.146|
000092  f8a4105c          STRH     r1,[r4,#0x5c]         ;1266
000096  e7ed              B        |L33.116|
                  |L33.152|
000098  6921              LDR      r1,[r4,#0x10]         ;1266
00009a  b109              CBZ      r1,|L33.160|
00009c  213f              MOVS     r1,#0x3f              ;1266
00009e  e7f8              B        |L33.146|
                  |L33.160|
0000a0  f8a4205c          STRH     r2,[r4,#0x5c]         ;1266
0000a4  e7e6              B        |L33.116|
                  |L33.166|
0000a6  2600              MOVS     r6,#0                 ;1272
0000a8  e7ec              B        |L33.132|
                  |L33.170|
0000aa  464b              MOV      r3,r9                 ;1286
0000ac  2200              MOVS     r2,#0                 ;1286
0000ae  2120              MOVS     r1,#0x20              ;1286
0000b0  4620              MOV      r0,r4                 ;1286
0000b2  f8cda000          STR      r10,[sp,#0]           ;1286
0000b6  f7fffffe          BL       UART_WaitOnFlagUntilTimeout
0000ba  b108              CBZ      r0,|L33.192|
0000bc  2003              MOVS     r0,#3                 ;1288
0000be  e7cc              B        |L33.90|
                  |L33.192|
0000c0  6820              LDR      r0,[r4,#0]            ;1297
0000c2  8c80              LDRH     r0,[r0,#0x24]         ;1297
0000c4  b18e              CBZ      r6,|L33.234|
0000c6  ea000008          AND      r0,r0,r8              ;1297
0000ca  f8060b01          STRB     r0,[r6],#1            ;1297
0000ce  bf00              NOP                            ;1300
                  |L33.208|
0000d0  f8b4005a          LDRH     r0,[r4,#0x5a]         ;1300
0000d4  1e40              SUBS     r0,r0,#1              ;1300
0000d6  f8a4005a          STRH     r0,[r4,#0x5a]         ;1300
                  |L33.218|
0000da  f8b4005a          LDRH     r0,[r4,#0x5a]         ;1284
0000de  2800              CMP      r0,#0                 ;1284
0000e0  d1e3              BNE      |L33.170|
0000e2  2020              MOVS     r0,#0x20              ;1304
0000e4  67e0              STR      r0,[r4,#0x7c]         ;1304
0000e6  2000              MOVS     r0,#0                 ;1306
0000e8  e7b7              B        |L33.90|
                  |L33.234|
0000ea  4038              ANDS     r0,r0,r7              ;1292
0000ec  f8250b02          STRH     r0,[r5],#2            ;1292
0000f0  e7ee              B        |L33.208|
0000f2  e7ff              B        |L33.244|
                  |L33.244|
0000f4  2002              MOVS     r0,#2                 ;1310
0000f6  e7b0              B        |L33.90|
;;;1313   
                          ENDP


                          AREA ||i.HAL_UART_Receive_DMA||, CODE, READONLY, ALIGN=2

                  HAL_UART_Receive_DMA PROC
;;;1533     */
;;;1534   HAL_StatusTypeDef HAL_UART_Receive_DMA(UART_HandleTypeDef *huart, uint8_t *pData, uint16_t Size)
000000  b430              PUSH     {r4,r5}
;;;1535   {
;;;1536     /* Check that a Rx process is not already ongoing */
;;;1537     if (huart->RxState == HAL_UART_STATE_READY)
000002  6fc3              LDR      r3,[r0,#0x7c]
000004  2b20              CMP      r3,#0x20
000006  d120              BNE      |L34.74|
;;;1538     {
;;;1539       if ((pData == NULL) || (Size == 0U))
000008  b1e1              CBZ      r1,|L34.68|
00000a  b1da              CBZ      r2,|L34.68|
;;;1540       {
;;;1541         return HAL_ERROR;
;;;1542       }
;;;1543   
;;;1544       __HAL_LOCK(huart);
00000c  f8903074          LDRB     r3,[r0,#0x74]
000010  2b01              CMP      r3,#1
000012  d01a              BEQ      |L34.74|
000014  2301              MOVS     r3,#1
000016  f8803074          STRB     r3,[r0,#0x74]
;;;1545   
;;;1546       /* Set Reception type to Standard reception */
;;;1547       huart->ReceptionType = HAL_UART_RECEPTION_STANDARD;
00001a  2300              MOVS     r3,#0
00001c  6603              STR      r3,[r0,#0x60]
;;;1548   
;;;1549       if (!(IS_LPUART_INSTANCE(huart->Instance)))
00001e  4c0c              LDR      r4,|L34.80|
000020  6803              LDR      r3,[r0,#0]
000022  42a3              CMP      r3,r4
000024  d00b              BEQ      |L34.62|
;;;1550       {
;;;1551         /* Check that USART RTOEN bit is set */
;;;1552         if (READ_BIT(huart->Instance->CR2, USART_CR2_RTOEN) != 0U)
000026  685b              LDR      r3,[r3,#4]
000028  021b              LSLS     r3,r3,#8
00002a  d508              BPL      |L34.62|
                  |L34.44|
;;;1553         {
;;;1554           /* Enable the UART Receiver Timeout Interrupt */
;;;1555           ATOMIC_SET_BIT(huart->Instance->CR1, USART_CR1_RTOIE);
00002c  6804              LDR      r4,[r0,#0]
00002e  e8543f00          LDREX    r3,[r4,#0]
000032  f0436380          ORR      r3,r3,#0x4000000
000036  e8443500          STREX    r5,r3,[r4,#0]
00003a  2d00              CMP      r5,#0
00003c  d1f6              BNE      |L34.44|
                  |L34.62|
;;;1556         }
;;;1557       }
;;;1558   
;;;1559       return (UART_Start_Receive_DMA(huart, pData, Size));
00003e  bc30              POP      {r4,r5}
000040  f7ffbffe          B.W      UART_Start_Receive_DMA
                  |L34.68|
000044  2001              MOVS     r0,#1                 ;1541
                  |L34.70|
;;;1560     }
;;;1561     else
;;;1562     {
;;;1563       return HAL_BUSY;
;;;1564     }
;;;1565   }
000046  bc30              POP      {r4,r5}
000048  4770              BX       lr
                  |L34.74|
00004a  2002              MOVS     r0,#2                 ;1563
00004c  e7fb              B        |L34.70|
;;;1566   
                          ENDP

00004e  0000              DCW      0x0000
                  |L34.80|
                          DCD      0x40008000

                          AREA ||i.HAL_UART_Receive_IT||, CODE, READONLY, ALIGN=2

                  HAL_UART_Receive_IT PROC
;;;1414     */
;;;1415   HAL_StatusTypeDef HAL_UART_Receive_IT(UART_HandleTypeDef *huart, uint8_t *pData, uint16_t Size)
000000  b430              PUSH     {r4,r5}
;;;1416   {
;;;1417     /* Check that a Rx process is not already ongoing */
;;;1418     if (huart->RxState == HAL_UART_STATE_READY)
000002  6fc3              LDR      r3,[r0,#0x7c]
000004  2b20              CMP      r3,#0x20
000006  d120              BNE      |L35.74|
;;;1419     {
;;;1420       if ((pData == NULL) || (Size == 0U))
000008  b1e1              CBZ      r1,|L35.68|
00000a  b1da              CBZ      r2,|L35.68|
;;;1421       {
;;;1422         return HAL_ERROR;
;;;1423       }
;;;1424   
;;;1425       __HAL_LOCK(huart);
00000c  f8903074          LDRB     r3,[r0,#0x74]
000010  2b01              CMP      r3,#1
000012  d01a              BEQ      |L35.74|
000014  2301              MOVS     r3,#1
000016  f8803074          STRB     r3,[r0,#0x74]
;;;1426   
;;;1427       /* Set Reception type to Standard reception */
;;;1428       huart->ReceptionType = HAL_UART_RECEPTION_STANDARD;
00001a  2300              MOVS     r3,#0
00001c  6603              STR      r3,[r0,#0x60]
;;;1429   
;;;1430       if (!(IS_LPUART_INSTANCE(huart->Instance)))
00001e  4c0c              LDR      r4,|L35.80|
000020  6803              LDR      r3,[r0,#0]
000022  42a3              CMP      r3,r4
000024  d00b              BEQ      |L35.62|
;;;1431       {
;;;1432         /* Check that USART RTOEN bit is set */
;;;1433         if (READ_BIT(huart->Instance->CR2, USART_CR2_RTOEN) != 0U)
000026  685b              LDR      r3,[r3,#4]
000028  021b              LSLS     r3,r3,#8
00002a  d508              BPL      |L35.62|
                  |L35.44|
;;;1434         {
;;;1435           /* Enable the UART Receiver Timeout Interrupt */
;;;1436           ATOMIC_SET_BIT(huart->Instance->CR1, USART_CR1_RTOIE);
00002c  6804              LDR      r4,[r0,#0]
00002e  e8543f00          LDREX    r3,[r4,#0]
000032  f0436380          ORR      r3,r3,#0x4000000
000036  e8443500          STREX    r5,r3,[r4,#0]
00003a  2d00              CMP      r5,#0
00003c  d1f6              BNE      |L35.44|
                  |L35.62|
;;;1437         }
;;;1438       }
;;;1439   
;;;1440       return (UART_Start_Receive_IT(huart, pData, Size));
00003e  bc30              POP      {r4,r5}
000040  f7ffbffe          B.W      UART_Start_Receive_IT
                  |L35.68|
000044  2001              MOVS     r0,#1                 ;1422
                  |L35.70|
;;;1441     }
;;;1442     else
;;;1443     {
;;;1444       return HAL_BUSY;
;;;1445     }
;;;1446   }
000046  bc30              POP      {r4,r5}
000048  4770              BX       lr
                  |L35.74|
00004a  2002              MOVS     r0,#2                 ;1444
00004c  e7fb              B        |L35.70|
;;;1447   
                          ENDP

00004e  0000              DCW      0x0000
                  |L35.80|
                          DCD      0x40008000

                          AREA ||i.HAL_UART_ReceiverTimeout_Config||, CODE, READONLY, ALIGN=2

                  HAL_UART_ReceiverTimeout_Config PROC
;;;2848     */
;;;2849   void HAL_UART_ReceiverTimeout_Config(UART_HandleTypeDef *huart, uint32_t TimeoutValue)
000000  6800              LDR      r0,[r0,#0]
;;;2850   {
;;;2851     if (!(IS_LPUART_INSTANCE(huart->Instance)))
000002  4a04              LDR      r2,|L36.20|
000004  4290              CMP      r0,r2
000006  d004              BEQ      |L36.18|
;;;2852     {
;;;2853       assert_param(IS_UART_RECEIVER_TIMEOUT_VALUE(TimeoutValue));
;;;2854       MODIFY_REG(huart->Instance->RTOR, USART_RTOR_RTO, TimeoutValue);
000008  6942              LDR      r2,[r0,#0x14]
00000a  f002427f          AND      r2,r2,#0xff000000
00000e  430a              ORRS     r2,r2,r1
000010  6142              STR      r2,[r0,#0x14]
                  |L36.18|
;;;2855     }
;;;2856   }
000012  4770              BX       lr
;;;2857   
                          ENDP

                  |L36.20|
                          DCD      0x40008000

                          AREA ||i.HAL_UART_RxCpltCallback||, CODE, READONLY, ALIGN=1

                  HAL_UART_RxCpltCallback PROC
;;;2708     */
;;;2709   __weak void HAL_UART_RxCpltCallback(UART_HandleTypeDef *huart)
000000  4770              BX       lr
;;;2710   {
;;;2711     /* Prevent unused argument(s) compilation warning */
;;;2712     UNUSED(huart);
;;;2713   
;;;2714     /* NOTE : This function should not be modified, when the callback is needed,
;;;2715               the HAL_UART_RxCpltCallback can be implemented in the user file.
;;;2716      */
;;;2717   }
;;;2718   
                          ENDP


                          AREA ||i.HAL_UART_RxHalfCpltCallback||, CODE, READONLY, ALIGN=1

                  HAL_UART_RxHalfCpltCallback PROC
;;;2723     */
;;;2724   __weak void HAL_UART_RxHalfCpltCallback(UART_HandleTypeDef *huart)
000000  4770              BX       lr
;;;2725   {
;;;2726     /* Prevent unused argument(s) compilation warning */
;;;2727     UNUSED(huart);
;;;2728   
;;;2729     /* NOTE: This function should not be modified, when the callback is needed,
;;;2730              the HAL_UART_RxHalfCpltCallback can be implemented in the user file.
;;;2731      */
;;;2732   }
;;;2733   
                          ENDP


                          AREA ||i.HAL_UART_Transmit||, CODE, READONLY, ALIGN=2

                  HAL_UART_Transmit PROC
;;;1148     */
;;;1149   HAL_StatusTypeDef HAL_UART_Transmit(UART_HandleTypeDef *huart, const uint8_t *pData, uint16_t Size, uint32_t Timeout)
000000  e92d43f8          PUSH     {r3-r9,lr}
;;;1150   {
000004  4604              MOV      r4,r0
;;;1151     const uint8_t  *pdata8bits;
;;;1152     const uint16_t *pdata16bits;
;;;1153     uint32_t tickstart;
;;;1154   
;;;1155     /* Check that a Tx process is not already ongoing */
;;;1156     if (huart->gState == HAL_UART_STATE_READY)
000006  6f80              LDR      r0,[r0,#0x78]
000008  461f              MOV      r7,r3                 ;1150
00000a  4616              MOV      r6,r2                 ;1150
00000c  460d              MOV      r5,r1                 ;1150
00000e  2820              CMP      r0,#0x20
000010  d14f              BNE      |L39.178|
;;;1157     {
;;;1158       if ((pData == NULL) || (Size == 0U))
000012  b1cd              CBZ      r5,|L39.72|
000014  b1c6              CBZ      r6,|L39.72|
;;;1159       {
;;;1160         return  HAL_ERROR;
;;;1161       }
;;;1162   
;;;1163       __HAL_LOCK(huart);
000016  f8940074          LDRB     r0,[r4,#0x74]
00001a  2801              CMP      r0,#1
00001c  d049              BEQ      |L39.178|
00001e  2001              MOVS     r0,#1
000020  f8840074          STRB     r0,[r4,#0x74]
;;;1164   
;;;1165       huart->ErrorCode = HAL_UART_ERROR_NONE;
000024  f04f0800          MOV      r8,#0
000028  f8c48080          STR      r8,[r4,#0x80]
;;;1166       huart->gState = HAL_UART_STATE_BUSY_TX;
00002c  2021              MOVS     r0,#0x21
00002e  67a0              STR      r0,[r4,#0x78]
;;;1167   
;;;1168       /* Init tickstart for timeout management */
;;;1169       tickstart = HAL_GetTick();
000030  f7fffffe          BL       HAL_GetTick
;;;1170   
;;;1171       huart->TxXferSize  = Size;
000034  f8a46050          STRH     r6,[r4,#0x50]
000038  4681              MOV      r9,r0                 ;1169
;;;1172       huart->TxXferCount = Size;
00003a  f8a46052          STRH     r6,[r4,#0x52]
;;;1173   
;;;1174       /* In case of 9bits/No Parity transfer, pData needs to be handled as a uint16_t pointer */
;;;1175       if ((huart->Init.WordLength == UART_WORDLENGTH_9B) && (huart->Init.Parity == UART_PARITY_NONE))
00003e  68a0              LDR      r0,[r4,#8]
000040  f5b05f80          CMP      r0,#0x1000
000044  d003              BEQ      |L39.78|
000046  e004              B        |L39.82|
                  |L39.72|
000048  2001              MOVS     r0,#1                 ;1160
                  |L39.74|
;;;1176       {
;;;1177         pdata8bits  = NULL;
;;;1178         pdata16bits = (const uint16_t *) pData;
;;;1179       }
;;;1180       else
;;;1181       {
;;;1182         pdata8bits  = pData;
;;;1183         pdata16bits = NULL;
;;;1184       }
;;;1185   
;;;1186       __HAL_UNLOCK(huart);
;;;1187   
;;;1188       while (huart->TxXferCount > 0U)
;;;1189       {
;;;1190         if (UART_WaitOnFlagUntilTimeout(huart, UART_FLAG_TXE, RESET, tickstart, Timeout) != HAL_OK)
;;;1191         {
;;;1192           return HAL_TIMEOUT;
;;;1193         }
;;;1194         if (pdata8bits == NULL)
;;;1195         {
;;;1196           huart->Instance->TDR = (uint16_t)(*pdata16bits & 0x01FFU);
;;;1197           pdata16bits++;
;;;1198         }
;;;1199         else
;;;1200         {
;;;1201           huart->Instance->TDR = (uint8_t)(*pdata8bits & 0xFFU);
;;;1202           pdata8bits++;
;;;1203         }
;;;1204         huart->TxXferCount--;
;;;1205       }
;;;1206   
;;;1207       if (UART_WaitOnFlagUntilTimeout(huart, UART_FLAG_TC, RESET, tickstart, Timeout) != HAL_OK)
;;;1208       {
;;;1209         return HAL_TIMEOUT;
;;;1210       }
;;;1211   
;;;1212       /* At end of Tx process, restore huart->gState to Ready */
;;;1213       huart->gState = HAL_UART_STATE_READY;
;;;1214   
;;;1215       return HAL_OK;
;;;1216     }
;;;1217     else
;;;1218     {
;;;1219       return HAL_BUSY;
;;;1220     }
;;;1221   }
00004a  e8bd83f8          POP      {r3-r9,pc}
                  |L39.78|
00004e  6920              LDR      r0,[r4,#0x10]         ;1175
000050  b128              CBZ      r0,|L39.94|
                  |L39.82|
000052  462e              MOV      r6,r5                 ;1182
000054  f05f0500          MOVS.W   r5,#0                 ;1183
                  |L39.88|
000058  f8848074          STRB     r8,[r4,#0x74]         ;1186
00005c  e010              B        |L39.128|
                  |L39.94|
00005e  2600              MOVS     r6,#0                 ;1177
000060  e7fa              B        |L39.88|
                  |L39.98|
000062  2180              MOVS     r1,#0x80              ;1190
000064  4620              MOV      r0,r4                 ;1190
000066  f7fffffe          BL       UART_WaitOnFlagUntilTimeout
00006a  b9b8              CBNZ     r0,|L39.156|
00006c  b1c6              CBZ      r6,|L39.160|
00006e  f8160b01          LDRB     r0,[r6],#1            ;1201
                  |L39.114|
000072  6821              LDR      r1,[r4,#0]            ;1201
000074  8508              STRH     r0,[r1,#0x28]         ;1201
000076  f8b40052          LDRH     r0,[r4,#0x52]         ;1204
00007a  1e40              SUBS     r0,r0,#1              ;1204
00007c  f8a40052          STRH     r0,[r4,#0x52]         ;1204
                  |L39.128|
000080  f8b40052          LDRH     r0,[r4,#0x52]         ;1188
000084  464b              MOV      r3,r9                 ;1207
000086  f04f0200          MOV      r2,#0                 ;1207
00008a  9700              STR      r7,[sp,#0]            ;1188
00008c  2800              CMP      r0,#0                 ;1188
00008e  d1e8              BNE      |L39.98|
000090  f04f0140          MOV      r1,#0x40              ;1207
000094  4620              MOV      r0,r4                 ;1207
000096  f7fffffe          BL       UART_WaitOnFlagUntilTimeout
00009a  b130              CBZ      r0,|L39.170|
                  |L39.156|
00009c  2003              MOVS     r0,#3                 ;1209
00009e  e7d4              B        |L39.74|
                  |L39.160|
0000a0  f8350b02          LDRH     r0,[r5],#2            ;1196
0000a4  f3c00008          UBFX     r0,r0,#0,#9           ;1196
0000a8  e7e3              B        |L39.114|
                  |L39.170|
0000aa  2020              MOVS     r0,#0x20              ;1213
0000ac  67a0              STR      r0,[r4,#0x78]         ;1213
0000ae  2000              MOVS     r0,#0                 ;1215
0000b0  e7cb              B        |L39.74|
                  |L39.178|
0000b2  2002              MOVS     r0,#2                 ;1219
0000b4  e7c9              B        |L39.74|
;;;1222   
                          ENDP


                          AREA ||i.HAL_UART_Transmit_DMA||, CODE, READONLY, ALIGN=2

                  HAL_UART_Transmit_DMA PROC
;;;1457     */
;;;1458   HAL_StatusTypeDef HAL_UART_Transmit_DMA(UART_HandleTypeDef *huart, const uint8_t *pData, uint16_t Size)
000000  b570              PUSH     {r4-r6,lr}
;;;1459   {
000002  4604              MOV      r4,r0
;;;1460     /* Check that a Tx process is not already ongoing */
;;;1461     if (huart->gState == HAL_UART_STATE_READY)
000004  6f80              LDR      r0,[r0,#0x78]
000006  2820              CMP      r0,#0x20
000008  d141              BNE      |L40.142|
;;;1462     {
;;;1463       if ((pData == NULL) || (Size == 0U))
00000a  b369              CBZ      r1,|L40.104|
00000c  b362              CBZ      r2,|L40.104|
;;;1464       {
;;;1465         return HAL_ERROR;
;;;1466       }
;;;1467   
;;;1468       __HAL_LOCK(huart);
00000e  f8940074          LDRB     r0,[r4,#0x74]
000012  2801              CMP      r0,#1
000014  d03b              BEQ      |L40.142|
000016  2001              MOVS     r0,#1
000018  f8840074          STRB     r0,[r4,#0x74]
;;;1469   
;;;1470       huart->pTxBuffPtr  = pData;
;;;1471       huart->TxXferSize  = Size;
00001c  64e1              STR      r1,[r4,#0x4c]
00001e  f8a42050          STRH     r2,[r4,#0x50]
;;;1472       huart->TxXferCount = Size;
000022  f8a42052          STRH     r2,[r4,#0x52]
;;;1473   
;;;1474       huart->ErrorCode = HAL_UART_ERROR_NONE;
000026  2500              MOVS     r5,#0
000028  f8c45080          STR      r5,[r4,#0x80]
;;;1475       huart->gState = HAL_UART_STATE_BUSY_TX;
00002c  2021              MOVS     r0,#0x21
00002e  67a0              STR      r0,[r4,#0x78]
000030  6ee0              LDR      r0,[r4,#0x6c]         ;1468
000032  b1d8              CBZ      r0,|L40.108|
;;;1476   
;;;1477       if (huart->hdmatx != NULL)
;;;1478       {
;;;1479         /* Set the UART DMA transfer complete callback */
;;;1480         huart->hdmatx->XferCpltCallback = UART_DMATransmitCplt;
000034  4917              LDR      r1,|L40.148|
;;;1481   
;;;1482         /* Set the UART DMA Half transfer complete callback */
;;;1483         huart->hdmatx->XferHalfCpltCallback = UART_DMATxHalfCplt;
000036  62c1              STR      r1,[r0,#0x2c]
000038  6ee1              LDR      r1,[r4,#0x6c]
00003a  4817              LDR      r0,|L40.152|
;;;1484   
;;;1485         /* Set the DMA error callback */
;;;1486         huart->hdmatx->XferErrorCallback = UART_DMAError;
;;;1487   
;;;1488         /* Set the DMA abort callback */
;;;1489         huart->hdmatx->XferAbortCallback = NULL;
;;;1490   
;;;1491         /* Enable the UART transmit DMA channel */
;;;1492         if (HAL_DMA_Start_IT(huart->hdmatx, (uint32_t)huart->pTxBuffPtr, (uint32_t)&huart->Instance->TDR, Size) != HAL_OK)
00003c  4613              MOV      r3,r2
00003e  6308              STR      r0,[r1,#0x30]         ;1486
000040  6ee1              LDR      r1,[r4,#0x6c]         ;1486
000042  4816              LDR      r0,|L40.156|
000044  6348              STR      r0,[r1,#0x34]         ;1489
000046  6ee0              LDR      r0,[r4,#0x6c]         ;1489
000048  6385              STR      r5,[r0,#0x38]
00004a  6826              LDR      r6,[r4,#0]
00004c  6ce1              LDR      r1,[r4,#0x4c]
00004e  f1060228          ADD      r2,r6,#0x28
000052  6ee0              LDR      r0,[r4,#0x6c]
000054  f7fffffe          BL       HAL_DMA_Start_IT
000058  b140              CBZ      r0,|L40.108|
;;;1493         {
;;;1494           /* Set error code to DMA */
;;;1495           huart->ErrorCode = HAL_UART_ERROR_DMA;
00005a  2010              MOVS     r0,#0x10
00005c  f8c40080          STR      r0,[r4,#0x80]
;;;1496   
;;;1497           __HAL_UNLOCK(huart);
000060  f8045f74          STRB     r5,[r4,#0x74]!
;;;1498   
;;;1499           /* Restore huart->gState to ready */
;;;1500           huart->gState = HAL_UART_STATE_READY;
000064  2020              MOVS     r0,#0x20
000066  6060              STR      r0,[r4,#4]
                  |L40.104|
000068  2001              MOVS     r0,#1                 ;1465
;;;1501   
;;;1502           return HAL_ERROR;
;;;1503         }
;;;1504       }
;;;1505       /* Clear the TC flag in the ICR register */
;;;1506       __HAL_UART_CLEAR_FLAG(huart, UART_CLEAR_TCF);
;;;1507   
;;;1508       __HAL_UNLOCK(huart);
;;;1509   
;;;1510       /* Enable the DMA transfer for transmit request by setting the DMAT bit
;;;1511       in the UART CR3 register */
;;;1512       ATOMIC_SET_BIT(huart->Instance->CR3, USART_CR3_DMAT);
;;;1513   
;;;1514       return HAL_OK;
;;;1515     }
;;;1516     else
;;;1517     {
;;;1518       return HAL_BUSY;
;;;1519     }
;;;1520   }
00006a  bd70              POP      {r4-r6,pc}
                  |L40.108|
00006c  6821              LDR      r1,[r4,#0]            ;1506
00006e  2040              MOVS     r0,#0x40              ;1506
000070  6208              STR      r0,[r1,#0x20]         ;1506
000072  f8845074          STRB     r5,[r4,#0x74]         ;1508
                  |L40.118|
000076  6820              LDR      r0,[r4,#0]            ;1512
000078  3008              ADDS     r0,r0,#8              ;1512
00007a  e8501f00          LDREX    r1,[r0,#0]            ;1512
00007e  f0410180          ORR      r1,r1,#0x80           ;1512
000082  e8401200          STREX    r2,r1,[r0,#0]         ;1512
000086  2a00              CMP      r2,#0                 ;1512
000088  d1f5              BNE      |L40.118|
00008a  2000              MOVS     r0,#0                 ;1514
00008c  bd70              POP      {r4-r6,pc}
                  |L40.142|
00008e  2002              MOVS     r0,#2                 ;1518
000090  bd70              POP      {r4-r6,pc}
;;;1521   
                          ENDP

000092  0000              DCW      0x0000
                  |L40.148|
                          DCD      UART_DMATransmitCplt
                  |L40.152|
                          DCD      UART_DMATxHalfCplt
                  |L40.156|
                          DCD      UART_DMAError

                          AREA ||i.HAL_UART_Transmit_IT||, CODE, READONLY, ALIGN=2

                  HAL_UART_Transmit_IT PROC
;;;1323     */
;;;1324   HAL_StatusTypeDef HAL_UART_Transmit_IT(UART_HandleTypeDef *huart, const uint8_t *pData, uint16_t Size)
000000  6f83              LDR      r3,[r0,#0x78]
;;;1325   {
;;;1326     /* Check that a Tx process is not already ongoing */
;;;1327     if (huart->gState == HAL_UART_STATE_READY)
000002  2b20              CMP      r3,#0x20
000004  d12d              BNE      |L41.98|
;;;1328     {
;;;1329       if ((pData == NULL) || (Size == 0U))
000006  b1b9              CBZ      r1,|L41.56|
000008  b1b2              CBZ      r2,|L41.56|
;;;1330       {
;;;1331         return HAL_ERROR;
;;;1332       }
;;;1333   
;;;1334       __HAL_LOCK(huart);
00000a  f8903074          LDRB     r3,[r0,#0x74]
00000e  2b01              CMP      r3,#1
000010  d027              BEQ      |L41.98|
000012  2301              MOVS     r3,#1
000014  f8803074          STRB     r3,[r0,#0x74]
;;;1335   
;;;1336       huart->pTxBuffPtr  = pData;
;;;1337       huart->TxXferSize  = Size;
000018  64c1              STR      r1,[r0,#0x4c]
00001a  f8a02050          STRH     r2,[r0,#0x50]
;;;1338       huart->TxXferCount = Size;
00001e  f8a02052          STRH     r2,[r0,#0x52]
;;;1339       huart->TxISR       = NULL;
000022  2100              MOVS     r1,#0
;;;1340   
;;;1341       huart->ErrorCode = HAL_UART_ERROR_NONE;
000024  6681              STR      r1,[r0,#0x68]
000026  f8c01080          STR      r1,[r0,#0x80]
;;;1342       huart->gState = HAL_UART_STATE_BUSY_TX;
00002a  2221              MOVS     r2,#0x21
00002c  6782              STR      r2,[r0,#0x78]
;;;1343   
;;;1344   #if defined(USART_CR1_FIFOEN)
;;;1345       /* Configure Tx interrupt processing */
;;;1346       if (huart->FifoMode == UART_FIFOMODE_ENABLE)
;;;1347       {
;;;1348         /* Set the Tx ISR function pointer according to the data word length */
;;;1349         if ((huart->Init.WordLength == UART_WORDLENGTH_9B) && (huart->Init.Parity == UART_PARITY_NONE))
;;;1350         {
;;;1351           huart->TxISR = UART_TxISR_16BIT_FIFOEN;
;;;1352         }
;;;1353         else
;;;1354         {
;;;1355           huart->TxISR = UART_TxISR_8BIT_FIFOEN;
;;;1356         }
;;;1357   
;;;1358         __HAL_UNLOCK(huart);
;;;1359   
;;;1360         /* Enable the TX FIFO threshold interrupt */
;;;1361         ATOMIC_SET_BIT(huart->Instance->CR3, USART_CR3_TXFTIE);
;;;1362       }
;;;1363       else
;;;1364       {
;;;1365         /* Set the Tx ISR function pointer according to the data word length */
;;;1366         if ((huart->Init.WordLength == UART_WORDLENGTH_9B) && (huart->Init.Parity == UART_PARITY_NONE))
;;;1367         {
;;;1368           huart->TxISR = UART_TxISR_16BIT;
;;;1369         }
;;;1370         else
;;;1371         {
;;;1372           huart->TxISR = UART_TxISR_8BIT;
;;;1373         }
;;;1374   
;;;1375         __HAL_UNLOCK(huart);
;;;1376   
;;;1377         /* Enable the Transmit Data Register Empty interrupt */
;;;1378         ATOMIC_SET_BIT(huart->Instance->CR1, USART_CR1_TXEIE_TXFNFIE);
;;;1379       }
;;;1380   #else
;;;1381       /* Set the Tx ISR function pointer according to the data word length */
;;;1382       if ((huart->Init.WordLength == UART_WORDLENGTH_9B) && (huart->Init.Parity == UART_PARITY_NONE))
00002e  6882              LDR      r2,[r0,#8]
000030  f5b25f80          CMP      r2,#0x1000
000034  d002              BEQ      |L41.60|
000036  e003              B        |L41.64|
                  |L41.56|
000038  2001              MOVS     r0,#1                 ;1331
;;;1383       {
;;;1384         huart->TxISR = UART_TxISR_16BIT;
;;;1385       }
;;;1386       else
;;;1387       {
;;;1388         huart->TxISR = UART_TxISR_8BIT;
;;;1389       }
;;;1390   
;;;1391       __HAL_UNLOCK(huart);
;;;1392   
;;;1393       /* Enable the Transmit Data Register Empty interrupt */
;;;1394       ATOMIC_SET_BIT(huart->Instance->CR1, USART_CR1_TXEIE);
;;;1395   #endif /* USART_CR1_FIFOEN */
;;;1396   
;;;1397       return HAL_OK;
;;;1398     }
;;;1399     else
;;;1400     {
;;;1401       return HAL_BUSY;
;;;1402     }
;;;1403   }
00003a  4770              BX       lr
                  |L41.60|
00003c  6902              LDR      r2,[r0,#0x10]         ;1382
00003e  b172              CBZ      r2,|L41.94|
                  |L41.64|
000040  4a09              LDR      r2,|L41.104|
                  |L41.66|
000042  6682              STR      r2,[r0,#0x68]         ;1391
000044  f8801074          STRB     r1,[r0,#0x74]         ;1391
                  |L41.72|
000048  6802              LDR      r2,[r0,#0]            ;1394
00004a  e8521f00          LDREX    r1,[r2,#0]            ;1394
00004e  f0410180          ORR      r1,r1,#0x80           ;1394
000052  e8421300          STREX    r3,r1,[r2,#0]         ;1394
000056  2b00              CMP      r3,#0                 ;1394
000058  d1f6              BNE      |L41.72|
00005a  2000              MOVS     r0,#0                 ;1397
00005c  4770              BX       lr
                  |L41.94|
00005e  4a03              LDR      r2,|L41.108|
000060  e7ef              B        |L41.66|
                  |L41.98|
000062  2002              MOVS     r0,#2                 ;1401
000064  4770              BX       lr
;;;1404   
                          ENDP

000066  0000              DCW      0x0000
                  |L41.104|
                          DCD      UART_TxISR_8BIT
                  |L41.108|
                          DCD      UART_TxISR_16BIT

                          AREA ||i.HAL_UART_TxCpltCallback||, CODE, READONLY, ALIGN=1

                  HAL_UART_TxCpltCallback PROC
;;;2678     */
;;;2679   __weak void HAL_UART_TxCpltCallback(UART_HandleTypeDef *huart)
000000  4770              BX       lr
;;;2680   {
;;;2681     /* Prevent unused argument(s) compilation warning */
;;;2682     UNUSED(huart);
;;;2683   
;;;2684     /* NOTE : This function should not be modified, when the callback is needed,
;;;2685               the HAL_UART_TxCpltCallback can be implemented in the user file.
;;;2686      */
;;;2687   }
;;;2688   
                          ENDP


                          AREA ||i.HAL_UART_TxHalfCpltCallback||, CODE, READONLY, ALIGN=1

                  HAL_UART_TxHalfCpltCallback PROC
;;;2693     */
;;;2694   __weak void HAL_UART_TxHalfCpltCallback(UART_HandleTypeDef *huart)
000000  4770              BX       lr
;;;2695   {
;;;2696     /* Prevent unused argument(s) compilation warning */
;;;2697     UNUSED(huart);
;;;2698   
;;;2699     /* NOTE: This function should not be modified, when the callback is needed,
;;;2700              the HAL_UART_TxHalfCpltCallback can be implemented in the user file.
;;;2701      */
;;;2702   }
;;;2703   
                          ENDP


                          AREA ||i.UART_AdvFeatureConfig||, CODE, READONLY, ALIGN=1

                  UART_AdvFeatureConfig PROC
;;;3400     */
;;;3401   void UART_AdvFeatureConfig(UART_HandleTypeDef *huart)
000000  f8901024          LDRB     r1,[r0,#0x24]
;;;3402   {
;;;3403     /* Check whether the set of advanced features to configure is properly set */
;;;3404     assert_param(IS_UART_ADVFEATURE_INIT(huart->AdvancedInit.AdvFeatureInit));
;;;3405   
;;;3406     /* if required, configure TX pin active level inversion */
;;;3407     if (HAL_IS_BIT_SET(huart->AdvancedInit.AdvFeatureInit, UART_ADVFEATURE_TXINVERT_INIT))
000004  07c9              LSLS     r1,r1,#31
000006  d006              BEQ      |L44.22|
;;;3408     {
;;;3409       assert_param(IS_UART_ADVFEATURE_TXINV(huart->AdvancedInit.TxPinLevelInvert));
;;;3410       MODIFY_REG(huart->Instance->CR2, USART_CR2_TXINV, huart->AdvancedInit.TxPinLevelInvert);
000008  6801              LDR      r1,[r0,#0]
00000a  684a              LDR      r2,[r1,#4]
00000c  6a83              LDR      r3,[r0,#0x28]
00000e  f4223200          BIC      r2,r2,#0x20000
000012  431a              ORRS     r2,r2,r3
000014  604a              STR      r2,[r1,#4]
                  |L44.22|
;;;3411     }
;;;3412   
;;;3413     /* if required, configure RX pin active level inversion */
;;;3414     if (HAL_IS_BIT_SET(huart->AdvancedInit.AdvFeatureInit, UART_ADVFEATURE_RXINVERT_INIT))
000016  f8901024          LDRB     r1,[r0,#0x24]
00001a  0789              LSLS     r1,r1,#30
00001c  d506              BPL      |L44.44|
;;;3415     {
;;;3416       assert_param(IS_UART_ADVFEATURE_RXINV(huart->AdvancedInit.RxPinLevelInvert));
;;;3417       MODIFY_REG(huart->Instance->CR2, USART_CR2_RXINV, huart->AdvancedInit.RxPinLevelInvert);
00001e  6801              LDR      r1,[r0,#0]
000020  684a              LDR      r2,[r1,#4]
000022  6ac3              LDR      r3,[r0,#0x2c]
000024  f4223280          BIC      r2,r2,#0x10000
000028  431a              ORRS     r2,r2,r3
00002a  604a              STR      r2,[r1,#4]
                  |L44.44|
;;;3418     }
;;;3419   
;;;3420     /* if required, configure data inversion */
;;;3421     if (HAL_IS_BIT_SET(huart->AdvancedInit.AdvFeatureInit, UART_ADVFEATURE_DATAINVERT_INIT))
00002c  f8901024          LDRB     r1,[r0,#0x24]
000030  0749              LSLS     r1,r1,#29
000032  d506              BPL      |L44.66|
;;;3422     {
;;;3423       assert_param(IS_UART_ADVFEATURE_DATAINV(huart->AdvancedInit.DataInvert));
;;;3424       MODIFY_REG(huart->Instance->CR2, USART_CR2_DATAINV, huart->AdvancedInit.DataInvert);
000034  6801              LDR      r1,[r0,#0]
000036  684a              LDR      r2,[r1,#4]
000038  6b03              LDR      r3,[r0,#0x30]
00003a  f4222280          BIC      r2,r2,#0x40000
00003e  431a              ORRS     r2,r2,r3
000040  604a              STR      r2,[r1,#4]
                  |L44.66|
;;;3425     }
;;;3426   
;;;3427     /* if required, configure RX/TX pins swap */
;;;3428     if (HAL_IS_BIT_SET(huart->AdvancedInit.AdvFeatureInit, UART_ADVFEATURE_SWAP_INIT))
000042  f8901024          LDRB     r1,[r0,#0x24]
000046  0709              LSLS     r1,r1,#28
000048  d506              BPL      |L44.88|
;;;3429     {
;;;3430       assert_param(IS_UART_ADVFEATURE_SWAP(huart->AdvancedInit.Swap));
;;;3431       MODIFY_REG(huart->Instance->CR2, USART_CR2_SWAP, huart->AdvancedInit.Swap);
00004a  6801              LDR      r1,[r0,#0]
00004c  684a              LDR      r2,[r1,#4]
00004e  6b43              LDR      r3,[r0,#0x34]
000050  f4224200          BIC      r2,r2,#0x8000
000054  431a              ORRS     r2,r2,r3
000056  604a              STR      r2,[r1,#4]
                  |L44.88|
;;;3432     }
;;;3433   
;;;3434     /* if required, configure RX overrun detection disabling */
;;;3435     if (HAL_IS_BIT_SET(huart->AdvancedInit.AdvFeatureInit, UART_ADVFEATURE_RXOVERRUNDISABLE_INIT))
000058  f8901024          LDRB     r1,[r0,#0x24]
00005c  06c9              LSLS     r1,r1,#27
00005e  d506              BPL      |L44.110|
;;;3436     {
;;;3437       assert_param(IS_UART_OVERRUN(huart->AdvancedInit.OverrunDisable));
;;;3438       MODIFY_REG(huart->Instance->CR3, USART_CR3_OVRDIS, huart->AdvancedInit.OverrunDisable);
000060  6801              LDR      r1,[r0,#0]
000062  688a              LDR      r2,[r1,#8]
000064  6b83              LDR      r3,[r0,#0x38]
000066  f4225280          BIC      r2,r2,#0x1000
00006a  431a              ORRS     r2,r2,r3
00006c  608a              STR      r2,[r1,#8]
                  |L44.110|
;;;3439     }
;;;3440   
;;;3441     /* if required, configure DMA disabling on reception error */
;;;3442     if (HAL_IS_BIT_SET(huart->AdvancedInit.AdvFeatureInit, UART_ADVFEATURE_DMADISABLEONERROR_INIT))
00006e  f8901024          LDRB     r1,[r0,#0x24]
000072  0689              LSLS     r1,r1,#26
000074  d506              BPL      |L44.132|
;;;3443     {
;;;3444       assert_param(IS_UART_ADVFEATURE_DMAONRXERROR(huart->AdvancedInit.DMADisableonRxError));
;;;3445       MODIFY_REG(huart->Instance->CR3, USART_CR3_DDRE, huart->AdvancedInit.DMADisableonRxError);
000076  6801              LDR      r1,[r0,#0]
000078  688a              LDR      r2,[r1,#8]
00007a  6bc3              LDR      r3,[r0,#0x3c]
00007c  f4225200          BIC      r2,r2,#0x2000
000080  431a              ORRS     r2,r2,r3
000082  608a              STR      r2,[r1,#8]
                  |L44.132|
;;;3446     }
;;;3447   
;;;3448     /* if required, configure auto Baud rate detection scheme */
;;;3449     if (HAL_IS_BIT_SET(huart->AdvancedInit.AdvFeatureInit, UART_ADVFEATURE_AUTOBAUDRATE_INIT))
000084  f8901024          LDRB     r1,[r0,#0x24]
000088  0649              LSLS     r1,r1,#25
00008a  d511              BPL      |L44.176|
;;;3450     {
;;;3451       assert_param(IS_USART_AUTOBAUDRATE_DETECTION_INSTANCE(huart->Instance));
;;;3452       assert_param(IS_UART_ADVFEATURE_AUTOBAUDRATE(huart->AdvancedInit.AutoBaudRateEnable));
;;;3453       MODIFY_REG(huart->Instance->CR2, USART_CR2_ABREN, huart->AdvancedInit.AutoBaudRateEnable);
00008c  6801              LDR      r1,[r0,#0]
00008e  684a              LDR      r2,[r1,#4]
000090  6c03              LDR      r3,[r0,#0x40]
000092  f4221280          BIC      r2,r2,#0x100000
000096  431a              ORRS     r2,r2,r3
000098  604a              STR      r2,[r1,#4]
;;;3454       /* set auto Baudrate detection parameters if detection is enabled */
;;;3455       if (huart->AdvancedInit.AutoBaudRateEnable == UART_ADVFEATURE_AUTOBAUDRATE_ENABLE)
00009a  6c01              LDR      r1,[r0,#0x40]
00009c  f5b11f80          CMP      r1,#0x100000
0000a0  d106              BNE      |L44.176|
;;;3456       {
;;;3457         assert_param(IS_UART_ADVFEATURE_AUTOBAUDRATEMODE(huart->AdvancedInit.AutoBaudRateMode));
;;;3458         MODIFY_REG(huart->Instance->CR2, USART_CR2_ABRMODE, huart->AdvancedInit.AutoBaudRateMode);
0000a2  6801              LDR      r1,[r0,#0]
0000a4  684a              LDR      r2,[r1,#4]
0000a6  6c43              LDR      r3,[r0,#0x44]
0000a8  f42202c0          BIC      r2,r2,#0x600000
0000ac  431a              ORRS     r2,r2,r3
0000ae  604a              STR      r2,[r1,#4]
                  |L44.176|
;;;3459       }
;;;3460     }
;;;3461   
;;;3462     /* if required, configure MSB first on communication line */
;;;3463     if (HAL_IS_BIT_SET(huart->AdvancedInit.AdvFeatureInit, UART_ADVFEATURE_MSBFIRST_INIT))
0000b0  f8901024          LDRB     r1,[r0,#0x24]
0000b4  0609              LSLS     r1,r1,#24
0000b6  d506              BPL      |L44.198|
;;;3464     {
;;;3465       assert_param(IS_UART_ADVFEATURE_MSBFIRST(huart->AdvancedInit.MSBFirst));
;;;3466       MODIFY_REG(huart->Instance->CR2, USART_CR2_MSBFIRST, huart->AdvancedInit.MSBFirst);
0000b8  6801              LDR      r1,[r0,#0]
0000ba  684a              LDR      r2,[r1,#4]
0000bc  6c80              LDR      r0,[r0,#0x48]
0000be  f4222200          BIC      r2,r2,#0x80000
0000c2  4302              ORRS     r2,r2,r0
0000c4  604a              STR      r2,[r1,#4]
                  |L44.198|
;;;3467     }
;;;3468   }
0000c6  4770              BX       lr
;;;3469   
                          ENDP


                          AREA ||i.UART_CheckIdleState||, CODE, READONLY, ALIGN=1

                  UART_CheckIdleState PROC
;;;3474     */
;;;3475   HAL_StatusTypeDef UART_CheckIdleState(UART_HandleTypeDef *huart)
000000  b5f8              PUSH     {r3-r7,lr}
;;;3476   {
;;;3477     uint32_t tickstart;
;;;3478   
;;;3479     /* Initialize the UART ErrorCode */
;;;3480     huart->ErrorCode = HAL_UART_ERROR_NONE;
000002  2600              MOVS     r6,#0
000004  4604              MOV      r4,r0                 ;3476
000006  f8c06080          STR      r6,[r0,#0x80]
;;;3481   
;;;3482     /* Init tickstart for timeout management */
;;;3483     tickstart = HAL_GetTick();
00000a  f7fffffe          BL       HAL_GetTick
00000e  4605              MOV      r5,r0
;;;3484   
;;;3485     /* Check if the Transmitter is enabled */
;;;3486     if ((huart->Instance->CR1 & USART_CR1_TE) == USART_CR1_TE)
000010  6820              LDR      r0,[r4,#0]
000012  6800              LDR      r0,[r0,#0]
;;;3487     {
;;;3488       /* Wait until TEACK flag is set */
;;;3489       if (UART_WaitOnFlagUntilTimeout(huart, USART_ISR_TEACK, RESET, tickstart, HAL_UART_TIMEOUT_VALUE) != HAL_OK)
000014  f06f477e          MVN      r7,#0xfe000000
000018  0700              LSLS     r0,r0,#28             ;3486
00001a  d508              BPL      |L45.46|
00001c  462b              MOV      r3,r5
00001e  2200              MOVS     r2,#0
000020  f44f1100          MOV      r1,#0x200000
000024  4620              MOV      r0,r4
000026  9700              STR      r7,[sp,#0]
000028  f7fffffe          BL       UART_WaitOnFlagUntilTimeout
00002c  b960              CBNZ     r0,|L45.72|
                  |L45.46|
;;;3490       {
;;;3491         /* Timeout occurred */
;;;3492         return HAL_TIMEOUT;
;;;3493       }
;;;3494     }
;;;3495   
;;;3496     /* Check if the Receiver is enabled */
;;;3497     if ((huart->Instance->CR1 & USART_CR1_RE) == USART_CR1_RE)
00002e  6820              LDR      r0,[r4,#0]
000030  6800              LDR      r0,[r0,#0]
000032  0740              LSLS     r0,r0,#29
000034  d50a              BPL      |L45.76|
;;;3498     {
;;;3499       /* Wait until REACK flag is set */
;;;3500       if (UART_WaitOnFlagUntilTimeout(huart, USART_ISR_REACK, RESET, tickstart, HAL_UART_TIMEOUT_VALUE) != HAL_OK)
000036  462b              MOV      r3,r5
000038  2200              MOVS     r2,#0
00003a  f44f0180          MOV      r1,#0x400000
00003e  4620              MOV      r0,r4
000040  9700              STR      r7,[sp,#0]
000042  f7fffffe          BL       UART_WaitOnFlagUntilTimeout
000046  b108              CBZ      r0,|L45.76|
                  |L45.72|
;;;3501       {
;;;3502         /* Timeout occurred */
;;;3503         return HAL_TIMEOUT;
000048  2003              MOVS     r0,#3
;;;3504       }
;;;3505     }
;;;3506   
;;;3507     /* Initialize the UART State */
;;;3508     huart->gState = HAL_UART_STATE_READY;
;;;3509     huart->RxState = HAL_UART_STATE_READY;
;;;3510     huart->ReceptionType = HAL_UART_RECEPTION_STANDARD;
;;;3511   
;;;3512     __HAL_UNLOCK(huart);
;;;3513   
;;;3514     return HAL_OK;
;;;3515   }
00004a  bdf8              POP      {r3-r7,pc}
                  |L45.76|
00004c  2020              MOVS     r0,#0x20              ;3508
00004e  67a0              STR      r0,[r4,#0x78]         ;3508
000050  67e0              STR      r0,[r4,#0x7c]         ;3509
000052  6626              STR      r6,[r4,#0x60]         ;3510
000054  f8846074          STRB     r6,[r4,#0x74]         ;3512
000058  2000              MOVS     r0,#0                 ;3514
00005a  bdf8              POP      {r3-r7,pc}
;;;3516   
                          ENDP


                          AREA ||i.UART_DMAAbortOnError||, CODE, READONLY, ALIGN=1

                  UART_DMAAbortOnError PROC
;;;3993     */
;;;3994   static void UART_DMAAbortOnError(DMA_HandleTypeDef *hdma)
000000  b510              PUSH     {r4,lr}
;;;3995   {
;;;3996     UART_HandleTypeDef *huart = (UART_HandleTypeDef *)(hdma->Parent);
000002  6a80              LDR      r0,[r0,#0x28]
;;;3997     huart->RxXferCount = 0U;
000004  2100              MOVS     r1,#0
000006  f8a0105a          STRH     r1,[r0,#0x5a]
;;;3998     huart->TxXferCount = 0U;
00000a  f8a01052          STRH     r1,[r0,#0x52]
;;;3999   
;;;4000   #if (USE_HAL_UART_REGISTER_CALLBACKS == 1)
;;;4001     /*Call registered error callback*/
;;;4002     huart->ErrorCallback(huart);
;;;4003   #else
;;;4004     /*Call legacy weak error callback*/
;;;4005     HAL_UART_ErrorCallback(huart);
00000e  f7fffffe          BL       HAL_UART_ErrorCallback
;;;4006   #endif /* USE_HAL_UART_REGISTER_CALLBACKS */
;;;4007   }
000012  bd10              POP      {r4,pc}
;;;4008   
                          ENDP


                          AREA ||i.UART_DMAError||, CODE, READONLY, ALIGN=1

                  UART_DMAError PROC
;;;3953     */
;;;3954   static void UART_DMAError(DMA_HandleTypeDef *hdma)
000000  b570              PUSH     {r4-r6,lr}
;;;3955   {
;;;3956     UART_HandleTypeDef *huart = (UART_HandleTypeDef *)(hdma->Parent);
;;;3957   
;;;3958     const HAL_UART_StateTypeDef gstate = huart->gState;
000002  6a84              LDR      r4,[r0,#0x28]
000004  6fa0              LDR      r0,[r4,#0x78]
;;;3959     const HAL_UART_StateTypeDef rxstate = huart->RxState;
000006  6fe5              LDR      r5,[r4,#0x7c]
;;;3960   
;;;3961     /* Stop UART DMA Tx request if ongoing */
;;;3962     if ((HAL_IS_BIT_SET(huart->Instance->CR3, USART_CR3_DMAT)) &&
000008  6821              LDR      r1,[r4,#0]
00000a  6889              LDR      r1,[r1,#8]
00000c  f04f0600          MOV      r6,#0
000010  0609              LSLS     r1,r1,#24
000012  d506              BPL      |L47.34|
;;;3963         (gstate == HAL_UART_STATE_BUSY_TX))
000014  2821              CMP      r0,#0x21
000016  d104              BNE      |L47.34|
;;;3964     {
;;;3965       huart->TxXferCount = 0U;
000018  f8a46052          STRH     r6,[r4,#0x52]
;;;3966       UART_EndTxTransfer(huart);
00001c  4620              MOV      r0,r4
00001e  f7fffffe          BL       UART_EndTxTransfer
                  |L47.34|
;;;3967     }
;;;3968   
;;;3969     /* Stop UART DMA Rx request if ongoing */
;;;3970     if ((HAL_IS_BIT_SET(huart->Instance->CR3, USART_CR3_DMAR)) &&
000022  6820              LDR      r0,[r4,#0]
000024  6880              LDR      r0,[r0,#8]
000026  0640              LSLS     r0,r0,#25
000028  d506              BPL      |L47.56|
;;;3971         (rxstate == HAL_UART_STATE_BUSY_RX))
00002a  2d22              CMP      r5,#0x22
00002c  d104              BNE      |L47.56|
;;;3972     {
;;;3973       huart->RxXferCount = 0U;
00002e  f8a4605a          STRH     r6,[r4,#0x5a]
;;;3974       UART_EndRxTransfer(huart);
000032  4620              MOV      r0,r4
000034  f7fffffe          BL       UART_EndRxTransfer
                  |L47.56|
;;;3975     }
;;;3976   
;;;3977     huart->ErrorCode |= HAL_UART_ERROR_DMA;
000038  f8d40080          LDR      r0,[r4,#0x80]
00003c  f0400010          ORR      r0,r0,#0x10
000040  f8c40080          STR      r0,[r4,#0x80]
;;;3978   
;;;3979   #if (USE_HAL_UART_REGISTER_CALLBACKS == 1)
;;;3980     /*Call registered error callback*/
;;;3981     huart->ErrorCallback(huart);
;;;3982   #else
;;;3983     /*Call legacy weak error callback*/
;;;3984     HAL_UART_ErrorCallback(huart);
000044  4620              MOV      r0,r4
000046  f7fffffe          BL       HAL_UART_ErrorCallback
;;;3985   #endif /* USE_HAL_UART_REGISTER_CALLBACKS */
;;;3986   }
00004a  bd70              POP      {r4-r6,pc}
;;;3987   
                          ENDP


                          AREA ||i.UART_DMAReceiveCplt||, CODE, READONLY, ALIGN=1

                  UART_DMAReceiveCplt PROC
;;;3862     */
;;;3863   static void UART_DMAReceiveCplt(DMA_HandleTypeDef *hdma)
000000  b510              PUSH     {r4,lr}
;;;3864   {
000002  4601              MOV      r1,r0
;;;3865     UART_HandleTypeDef *huart = (UART_HandleTypeDef *)(hdma->Parent);
000004  6a80              LDR      r0,[r0,#0x28]
;;;3866   
;;;3867     /* DMA Normal mode */
;;;3868     if (HAL_IS_BIT_CLR(hdma->Instance->CCR, DMA_CCR_CIRC))
000006  6809              LDR      r1,[r1,#0]
000008  6809              LDR      r1,[r1,#0]
00000a  0689              LSLS     r1,r1,#26
00000c  d42d              BMI      |L48.106|
;;;3869     {
;;;3870       huart->RxXferCount = 0U;
00000e  2100              MOVS     r1,#0
000010  f8a0105a          STRH     r1,[r0,#0x5a]
                  |L48.20|
;;;3871   
;;;3872       /* Disable PE and ERR (Frame error, noise error, overrun error) interrupts */
;;;3873       ATOMIC_CLEAR_BIT(huart->Instance->CR1, USART_CR1_PEIE);
000014  6801              LDR      r1,[r0,#0]
000016  e8512f00          LDREX    r2,[r1,#0]
00001a  f4227280          BIC      r2,r2,#0x100
00001e  e8412300          STREX    r3,r2,[r1,#0]
000022  2b00              CMP      r3,#0
000024  d1f6              BNE      |L48.20|
                  |L48.38|
;;;3874       ATOMIC_CLEAR_BIT(huart->Instance->CR3, USART_CR3_EIE);
000026  6801              LDR      r1,[r0,#0]
000028  3108              ADDS     r1,r1,#8
00002a  e8512f00          LDREX    r2,[r1,#0]
00002e  f0220201          BIC      r2,r2,#1
000032  e8412300          STREX    r3,r2,[r1,#0]
000036  2b00              CMP      r3,#0
000038  d1f5              BNE      |L48.38|
                  |L48.58|
;;;3875   
;;;3876       /* Disable the DMA transfer for the receiver request by resetting the DMAR bit
;;;3877          in the UART CR3 register */
;;;3878       ATOMIC_CLEAR_BIT(huart->Instance->CR3, USART_CR3_DMAR);
00003a  6801              LDR      r1,[r0,#0]
00003c  3108              ADDS     r1,r1,#8
00003e  e8512f00          LDREX    r2,[r1,#0]
000042  f0220240          BIC      r2,r2,#0x40
000046  e8412300          STREX    r3,r2,[r1,#0]
00004a  2b00              CMP      r3,#0
00004c  d1f5              BNE      |L48.58|
;;;3879   
;;;3880       /* At end of Rx process, restore huart->RxState to Ready */
;;;3881       huart->RxState = HAL_UART_STATE_READY;
00004e  2120              MOVS     r1,#0x20
000050  67c1              STR      r1,[r0,#0x7c]
;;;3882   
;;;3883       /* If Reception till IDLE event has been selected, Disable IDLE Interrupt */
;;;3884       if (huart->ReceptionType == HAL_UART_RECEPTION_TOIDLE)
000052  6e01              LDR      r1,[r0,#0x60]
000054  2901              CMP      r1,#1
000056  d108              BNE      |L48.106|
                  |L48.88|
;;;3885       {
;;;3886         ATOMIC_CLEAR_BIT(huart->Instance->CR1, USART_CR1_IDLEIE);
000058  6802              LDR      r2,[r0,#0]
00005a  e8521f00          LDREX    r1,[r2,#0]
00005e  f0210110          BIC      r1,r1,#0x10
000062  e8421300          STREX    r3,r1,[r2,#0]
000066  2b00              CMP      r3,#0
000068  d1f6              BNE      |L48.88|
                  |L48.106|
;;;3887       }
;;;3888     }
;;;3889   
;;;3890     /* Check current reception Mode :
;;;3891        If Reception till IDLE event has been selected : use Rx Event callback */
;;;3892     if (huart->ReceptionType == HAL_UART_RECEPTION_TOIDLE)
00006a  6e01              LDR      r1,[r0,#0x60]
00006c  2901              CMP      r1,#1
00006e  d002              BEQ      |L48.118|
;;;3893     {
;;;3894   #if (USE_HAL_UART_REGISTER_CALLBACKS == 1)
;;;3895       /*Call registered Rx Event callback*/
;;;3896       huart->RxEventCallback(huart, huart->RxXferSize);
;;;3897   #else
;;;3898       /*Call legacy weak Rx Event callback*/
;;;3899       HAL_UARTEx_RxEventCallback(huart, huart->RxXferSize);
;;;3900   #endif /* USE_HAL_UART_REGISTER_CALLBACKS */
;;;3901     }
;;;3902     else
;;;3903     {
;;;3904       /* In other cases : use Rx Complete callback */
;;;3905   #if (USE_HAL_UART_REGISTER_CALLBACKS == 1)
;;;3906       /*Call registered Rx complete callback*/
;;;3907       huart->RxCpltCallback(huart);
;;;3908   #else
;;;3909       /*Call legacy weak Rx complete callback*/
;;;3910       HAL_UART_RxCpltCallback(huart);
000070  f7fffffe          BL       HAL_UART_RxCpltCallback
;;;3911   #endif /* USE_HAL_UART_REGISTER_CALLBACKS */
;;;3912     }
;;;3913   }
000074  bd10              POP      {r4,pc}
                  |L48.118|
000076  f8b01058          LDRH     r1,[r0,#0x58]         ;3899
00007a  f7fffffe          BL       HAL_UARTEx_RxEventCallback
00007e  bd10              POP      {r4,pc}
;;;3914   
                          ENDP


                          AREA ||i.UART_DMARxAbortCallback||, CODE, READONLY, ALIGN=1

                  UART_DMARxAbortCallback PROC
;;;4073     */
;;;4074   static void UART_DMARxAbortCallback(DMA_HandleTypeDef *hdma)
000000  b510              PUSH     {r4,lr}
;;;4075   {
;;;4076     UART_HandleTypeDef *huart = (UART_HandleTypeDef *)(hdma->Parent);
000002  6a80              LDR      r0,[r0,#0x28]
;;;4077   
;;;4078     huart->hdmarx->XferAbortCallback = NULL;
000004  2100              MOVS     r1,#0
000006  6f02              LDR      r2,[r0,#0x70]
;;;4079   
;;;4080     /* Check if an Abort process is still ongoing */
;;;4081     if (huart->hdmatx != NULL)
000008  6391              STR      r1,[r2,#0x38]
00000a  6ec2              LDR      r2,[r0,#0x6c]         ;4075
00000c  b112              CBZ      r2,|L49.20|
;;;4082     {
;;;4083       if (huart->hdmatx->XferAbortCallback != NULL)
00000e  6b92              LDR      r2,[r2,#0x38]
000010  2a00              CMP      r2,#0
000012  d113              BNE      |L49.60|
                  |L49.20|
;;;4084       {
;;;4085         return;
;;;4086       }
;;;4087     }
;;;4088   
;;;4089     /* No Abort process still ongoing : All DMA channels are aborted, call user Abort Complete callback */
;;;4090     huart->TxXferCount = 0U;
000014  f8a01052          STRH     r1,[r0,#0x52]
;;;4091     huart->RxXferCount = 0U;
000018  f8a0105a          STRH     r1,[r0,#0x5a]
;;;4092   
;;;4093     /* Reset errorCode */
;;;4094     huart->ErrorCode = HAL_UART_ERROR_NONE;
00001c  f8c01080          STR      r1,[r0,#0x80]
;;;4095   
;;;4096     /* Clear the Error flags in the ICR register */
;;;4097     __HAL_UART_CLEAR_FLAG(huart, UART_CLEAR_OREF | UART_CLEAR_NEF | UART_CLEAR_PEF | UART_CLEAR_FEF);
000020  6803              LDR      r3,[r0,#0]
000022  220f              MOVS     r2,#0xf
000024  621a              STR      r2,[r3,#0x20]
;;;4098   
;;;4099     /* Discard the received data */
;;;4100     __HAL_UART_SEND_REQ(huart, UART_RXDATA_FLUSH_REQUEST);
000026  6802              LDR      r2,[r0,#0]
000028  8b13              LDRH     r3,[r2,#0x18]
00002a  f0430308          ORR      r3,r3,#8
00002e  8313              STRH     r3,[r2,#0x18]
;;;4101   
;;;4102     /* Restore huart->gState and huart->RxState to Ready */
;;;4103     huart->gState  = HAL_UART_STATE_READY;
000030  2220              MOVS     r2,#0x20
000032  6782              STR      r2,[r0,#0x78]
;;;4104     huart->RxState = HAL_UART_STATE_READY;
000034  67c2              STR      r2,[r0,#0x7c]
;;;4105     huart->ReceptionType = HAL_UART_RECEPTION_STANDARD;
000036  6601              STR      r1,[r0,#0x60]
;;;4106   
;;;4107     /* Call user Abort complete callback */
;;;4108   #if (USE_HAL_UART_REGISTER_CALLBACKS == 1)
;;;4109     /* Call registered Abort complete callback */
;;;4110     huart->AbortCpltCallback(huart);
;;;4111   #else
;;;4112     /* Call legacy weak Abort complete callback */
;;;4113     HAL_UART_AbortCpltCallback(huart);
000038  f7fffffe          BL       HAL_UART_AbortCpltCallback
                  |L49.60|
;;;4114   #endif /* USE_HAL_UART_REGISTER_CALLBACKS */
;;;4115   }
00003c  bd10              POP      {r4,pc}
;;;4116   
                          ENDP


                          AREA ||i.UART_DMARxHalfCplt||, CODE, READONLY, ALIGN=1

                  UART_DMARxHalfCplt PROC
;;;3919     */
;;;3920   static void UART_DMARxHalfCplt(DMA_HandleTypeDef *hdma)
000000  b510              PUSH     {r4,lr}
;;;3921   {
;;;3922     UART_HandleTypeDef *huart = (UART_HandleTypeDef *)(hdma->Parent);
000002  6a80              LDR      r0,[r0,#0x28]
;;;3923   
;;;3924     /* Check current reception Mode :
;;;3925        If Reception till IDLE event has been selected : use Rx Event callback */
;;;3926     if (huart->ReceptionType == HAL_UART_RECEPTION_TOIDLE)
000004  6e01              LDR      r1,[r0,#0x60]
000006  2901              CMP      r1,#1
000008  d002              BEQ      |L50.16|
;;;3927     {
;;;3928   #if (USE_HAL_UART_REGISTER_CALLBACKS == 1)
;;;3929       /*Call registered Rx Event callback*/
;;;3930       huart->RxEventCallback(huart, huart->RxXferSize / 2U);
;;;3931   #else
;;;3932       /*Call legacy weak Rx Event callback*/
;;;3933       HAL_UARTEx_RxEventCallback(huart, huart->RxXferSize / 2U);
;;;3934   #endif /* USE_HAL_UART_REGISTER_CALLBACKS */
;;;3935     }
;;;3936     else
;;;3937     {
;;;3938       /* In other cases : use Rx Half Complete callback */
;;;3939   #if (USE_HAL_UART_REGISTER_CALLBACKS == 1)
;;;3940       /*Call registered Rx Half complete callback*/
;;;3941       huart->RxHalfCpltCallback(huart);
;;;3942   #else
;;;3943       /*Call legacy weak Rx Half complete callback*/
;;;3944       HAL_UART_RxHalfCpltCallback(huart);
00000a  f7fffffe          BL       HAL_UART_RxHalfCpltCallback
;;;3945   #endif /* USE_HAL_UART_REGISTER_CALLBACKS */
;;;3946     }
;;;3947   }
00000e  bd10              POP      {r4,pc}
                  |L50.16|
000010  f8b01058          LDRH     r1,[r0,#0x58]         ;3933
000014  0849              LSRS     r1,r1,#1              ;3933
000016  f7fffffe          BL       HAL_UARTEx_RxEventCallback
00001a  bd10              POP      {r4,pc}
;;;3948   
                          ENDP


                          AREA ||i.UART_DMARxOnlyAbortCallback||, CODE, READONLY, ALIGN=1

                  UART_DMARxOnlyAbortCallback PROC
;;;4160     */
;;;4161   static void UART_DMARxOnlyAbortCallback(DMA_HandleTypeDef *hdma)
000000  b510              PUSH     {r4,lr}
;;;4162   {
;;;4163     UART_HandleTypeDef *huart = (UART_HandleTypeDef *)((DMA_HandleTypeDef *)hdma)->Parent;
000002  6a80              LDR      r0,[r0,#0x28]
;;;4164   
;;;4165     huart->RxXferCount = 0U;
000004  2100              MOVS     r1,#0
000006  f8a0105a          STRH     r1,[r0,#0x5a]
;;;4166   
;;;4167     /* Clear the Error flags in the ICR register */
;;;4168     __HAL_UART_CLEAR_FLAG(huart, UART_CLEAR_OREF | UART_CLEAR_NEF | UART_CLEAR_PEF | UART_CLEAR_FEF);
00000a  6803              LDR      r3,[r0,#0]
00000c  220f              MOVS     r2,#0xf
00000e  621a              STR      r2,[r3,#0x20]
;;;4169   
;;;4170     /* Discard the received data */
;;;4171     __HAL_UART_SEND_REQ(huart, UART_RXDATA_FLUSH_REQUEST);
000010  6802              LDR      r2,[r0,#0]
000012  8b13              LDRH     r3,[r2,#0x18]
000014  f0430308          ORR      r3,r3,#8
000018  8313              STRH     r3,[r2,#0x18]
;;;4172   
;;;4173     /* Restore huart->RxState to Ready */
;;;4174     huart->RxState = HAL_UART_STATE_READY;
00001a  2220              MOVS     r2,#0x20
00001c  67c2              STR      r2,[r0,#0x7c]
;;;4175     huart->ReceptionType = HAL_UART_RECEPTION_STANDARD;
00001e  6601              STR      r1,[r0,#0x60]
;;;4176   
;;;4177     /* Call user Abort complete callback */
;;;4178   #if (USE_HAL_UART_REGISTER_CALLBACKS == 1)
;;;4179     /* Call registered Abort Receive Complete Callback */
;;;4180     huart->AbortReceiveCpltCallback(huart);
;;;4181   #else
;;;4182     /* Call legacy weak Abort Receive Complete Callback */
;;;4183     HAL_UART_AbortReceiveCpltCallback(huart);
000020  f7fffffe          BL       HAL_UART_AbortReceiveCpltCallback
;;;4184   #endif /* USE_HAL_UART_REGISTER_CALLBACKS */
;;;4185   }
000024  bd10              POP      {r4,pc}
;;;4186   
                          ENDP


                          AREA ||i.UART_DMATransmitCplt||, CODE, READONLY, ALIGN=1

                  UART_DMATransmitCplt PROC
;;;3810     */
;;;3811   static void UART_DMATransmitCplt(DMA_HandleTypeDef *hdma)
000000  b510              PUSH     {r4,lr}
;;;3812   {
000002  4601              MOV      r1,r0
;;;3813     UART_HandleTypeDef *huart = (UART_HandleTypeDef *)(hdma->Parent);
000004  6a80              LDR      r0,[r0,#0x28]
;;;3814   
;;;3815     /* DMA Normal mode */
;;;3816     if (HAL_IS_BIT_CLR(hdma->Instance->CCR, DMA_CCR_CIRC))
000006  6809              LDR      r1,[r1,#0]
000008  6809              LDR      r1,[r1,#0]
00000a  0689              LSLS     r1,r1,#26
00000c  d416              BMI      |L52.60|
;;;3817     {
;;;3818       huart->TxXferCount = 0U;
00000e  2100              MOVS     r1,#0
000010  f8a01052          STRH     r1,[r0,#0x52]
                  |L52.20|
;;;3819   
;;;3820       /* Disable the DMA transfer for transmit request by resetting the DMAT bit
;;;3821          in the UART CR3 register */
;;;3822       ATOMIC_CLEAR_BIT(huart->Instance->CR3, USART_CR3_DMAT);
000014  6801              LDR      r1,[r0,#0]
000016  3108              ADDS     r1,r1,#8
000018  e8512f00          LDREX    r2,[r1,#0]
00001c  f0220280          BIC      r2,r2,#0x80
000020  e8412300          STREX    r3,r2,[r1,#0]
000024  2b00              CMP      r3,#0
000026  d1f5              BNE      |L52.20|
                  |L52.40|
;;;3823   
;;;3824       /* Enable the UART Transmit Complete Interrupt */
;;;3825       ATOMIC_SET_BIT(huart->Instance->CR1, USART_CR1_TCIE);
000028  6802              LDR      r2,[r0,#0]
00002a  e8521f00          LDREX    r1,[r2,#0]
00002e  f0410140          ORR      r1,r1,#0x40
000032  e8421300          STREX    r3,r1,[r2,#0]
000036  2b00              CMP      r3,#0
000038  d1f6              BNE      |L52.40|
;;;3826     }
;;;3827     /* DMA Circular mode */
;;;3828     else
;;;3829     {
;;;3830   #if (USE_HAL_UART_REGISTER_CALLBACKS == 1)
;;;3831       /*Call registered Tx complete callback*/
;;;3832       huart->TxCpltCallback(huart);
;;;3833   #else
;;;3834       /*Call legacy weak Tx complete callback*/
;;;3835       HAL_UART_TxCpltCallback(huart);
;;;3836   #endif /* USE_HAL_UART_REGISTER_CALLBACKS */
;;;3837     }
;;;3838   }
00003a  bd10              POP      {r4,pc}
                  |L52.60|
00003c  f7fffffe          BL       HAL_UART_TxCpltCallback
000040  bd10              POP      {r4,pc}
;;;3839   
                          ENDP


                          AREA ||i.UART_DMATxAbortCallback||, CODE, READONLY, ALIGN=1

                  UART_DMATxAbortCallback PROC
;;;4016     */
;;;4017   static void UART_DMATxAbortCallback(DMA_HandleTypeDef *hdma)
000000  b510              PUSH     {r4,lr}
;;;4018   {
;;;4019     UART_HandleTypeDef *huart = (UART_HandleTypeDef *)(hdma->Parent);
000002  6a80              LDR      r0,[r0,#0x28]
;;;4020   
;;;4021     huart->hdmatx->XferAbortCallback = NULL;
000004  2100              MOVS     r1,#0
000006  6ec2              LDR      r2,[r0,#0x6c]
;;;4022   
;;;4023     /* Check if an Abort process is still ongoing */
;;;4024     if (huart->hdmarx != NULL)
000008  6391              STR      r1,[r2,#0x38]
00000a  6f02              LDR      r2,[r0,#0x70]         ;4018
00000c  b112              CBZ      r2,|L53.20|
;;;4025     {
;;;4026       if (huart->hdmarx->XferAbortCallback != NULL)
00000e  6b92              LDR      r2,[r2,#0x38]
000010  2a00              CMP      r2,#0
000012  d10e              BNE      |L53.50|
                  |L53.20|
;;;4027       {
;;;4028         return;
;;;4029       }
;;;4030     }
;;;4031   
;;;4032     /* No Abort process still ongoing : All DMA channels are aborted, call user Abort Complete callback */
;;;4033     huart->TxXferCount = 0U;
000014  f8a01052          STRH     r1,[r0,#0x52]
;;;4034     huart->RxXferCount = 0U;
000018  f8a0105a          STRH     r1,[r0,#0x5a]
;;;4035   
;;;4036     /* Reset errorCode */
;;;4037     huart->ErrorCode = HAL_UART_ERROR_NONE;
00001c  f8c01080          STR      r1,[r0,#0x80]
;;;4038   
;;;4039     /* Clear the Error flags in the ICR register */
;;;4040     __HAL_UART_CLEAR_FLAG(huart, UART_CLEAR_OREF | UART_CLEAR_NEF | UART_CLEAR_PEF | UART_CLEAR_FEF);
000020  6803              LDR      r3,[r0,#0]
000022  220f              MOVS     r2,#0xf
000024  621a              STR      r2,[r3,#0x20]
;;;4041   
;;;4042   #if defined(USART_CR1_FIFOEN)
;;;4043     /* Flush the whole TX FIFO (if needed) */
;;;4044     if (huart->FifoMode == UART_FIFOMODE_ENABLE)
;;;4045     {
;;;4046       __HAL_UART_SEND_REQ(huart, UART_TXDATA_FLUSH_REQUEST);
;;;4047     }
;;;4048   #endif /* USART_CR1_FIFOEN */
;;;4049   
;;;4050     /* Restore huart->gState and huart->RxState to Ready */
;;;4051     huart->gState  = HAL_UART_STATE_READY;
000026  2220              MOVS     r2,#0x20
000028  6782              STR      r2,[r0,#0x78]
;;;4052     huart->RxState = HAL_UART_STATE_READY;
00002a  67c2              STR      r2,[r0,#0x7c]
;;;4053     huart->ReceptionType = HAL_UART_RECEPTION_STANDARD;
00002c  6601              STR      r1,[r0,#0x60]
;;;4054   
;;;4055     /* Call user Abort complete callback */
;;;4056   #if (USE_HAL_UART_REGISTER_CALLBACKS == 1)
;;;4057     /* Call registered Abort complete callback */
;;;4058     huart->AbortCpltCallback(huart);
;;;4059   #else
;;;4060     /* Call legacy weak Abort complete callback */
;;;4061     HAL_UART_AbortCpltCallback(huart);
00002e  f7fffffe          BL       HAL_UART_AbortCpltCallback
                  |L53.50|
;;;4062   #endif /* USE_HAL_UART_REGISTER_CALLBACKS */
;;;4063   }
000032  bd10              POP      {r4,pc}
;;;4064   
                          ENDP


                          AREA ||i.UART_DMATxHalfCplt||, CODE, READONLY, ALIGN=1

                  UART_DMATxHalfCplt PROC
;;;3844     */
;;;3845   static void UART_DMATxHalfCplt(DMA_HandleTypeDef *hdma)
000000  b510              PUSH     {r4,lr}
;;;3846   {
;;;3847     UART_HandleTypeDef *huart = (UART_HandleTypeDef *)(hdma->Parent);
000002  6a80              LDR      r0,[r0,#0x28]
;;;3848   
;;;3849   #if (USE_HAL_UART_REGISTER_CALLBACKS == 1)
;;;3850     /*Call registered Tx Half complete callback*/
;;;3851     huart->TxHalfCpltCallback(huart);
;;;3852   #else
;;;3853     /*Call legacy weak Tx Half complete callback*/
;;;3854     HAL_UART_TxHalfCpltCallback(huart);
000004  f7fffffe          BL       HAL_UART_TxHalfCpltCallback
;;;3855   #endif /* USE_HAL_UART_REGISTER_CALLBACKS */
;;;3856   }
000008  bd10              POP      {r4,pc}
;;;3857   
                          ENDP


                          AREA ||i.UART_DMATxOnlyAbortCallback||, CODE, READONLY, ALIGN=1

                  UART_DMATxOnlyAbortCallback PROC
;;;4125     */
;;;4126   static void UART_DMATxOnlyAbortCallback(DMA_HandleTypeDef *hdma)
000000  b510              PUSH     {r4,lr}
;;;4127   {
;;;4128     UART_HandleTypeDef *huart = (UART_HandleTypeDef *)(hdma->Parent);
000002  6a80              LDR      r0,[r0,#0x28]
;;;4129   
;;;4130     huart->TxXferCount = 0U;
000004  2100              MOVS     r1,#0
000006  f8a01052          STRH     r1,[r0,#0x52]
;;;4131   
;;;4132   #if defined(USART_CR1_FIFOEN)
;;;4133     /* Flush the whole TX FIFO (if needed) */
;;;4134     if (huart->FifoMode == UART_FIFOMODE_ENABLE)
;;;4135     {
;;;4136       __HAL_UART_SEND_REQ(huart, UART_TXDATA_FLUSH_REQUEST);
;;;4137     }
;;;4138   #endif /* USART_CR1_FIFOEN */
;;;4139   
;;;4140     /* Restore huart->gState to Ready */
;;;4141     huart->gState = HAL_UART_STATE_READY;
00000a  2120              MOVS     r1,#0x20
00000c  6781              STR      r1,[r0,#0x78]
;;;4142   
;;;4143     /* Call user Abort complete callback */
;;;4144   #if (USE_HAL_UART_REGISTER_CALLBACKS == 1)
;;;4145     /* Call registered Abort Transmit Complete Callback */
;;;4146     huart->AbortTransmitCpltCallback(huart);
;;;4147   #else
;;;4148     /* Call legacy weak Abort Transmit Complete Callback */
;;;4149     HAL_UART_AbortTransmitCpltCallback(huart);
00000e  f7fffffe          BL       HAL_UART_AbortTransmitCpltCallback
;;;4150   #endif /* USE_HAL_UART_REGISTER_CALLBACKS */
;;;4151   }
000012  bd10              POP      {r4,pc}
;;;4152   
                          ENDP


                          AREA ||i.UART_EndRxTransfer||, CODE, READONLY, ALIGN=1

                  UART_EndRxTransfer PROC
                  |L56.0|
;;;3779     */
;;;3780   static void UART_EndRxTransfer(UART_HandleTypeDef *huart)
000000  6801              LDR      r1,[r0,#0]
;;;3781   {
;;;3782     /* Disable RXNE, PE and ERR (Frame error, noise error, overrun error) interrupts */
;;;3783   #if defined(USART_CR1_FIFOEN)
;;;3784     ATOMIC_CLEAR_BIT(huart->Instance->CR1, (USART_CR1_RXNEIE_RXFNEIE | USART_CR1_PEIE));
;;;3785     ATOMIC_CLEAR_BIT(huart->Instance->CR3, (USART_CR3_EIE | USART_CR3_RXFTIE));
;;;3786   #else
;;;3787     ATOMIC_CLEAR_BIT(huart->Instance->CR1, (USART_CR1_RXNEIE | USART_CR1_PEIE));
000002  e8512f00          LDREX    r2,[r1,#0]
000006  f4227290          BIC      r2,r2,#0x120
00000a  e8412300          STREX    r3,r2,[r1,#0]
00000e  2b00              CMP      r3,#0
000010  d1f6              BNE      |L56.0|
                  |L56.18|
;;;3788     ATOMIC_CLEAR_BIT(huart->Instance->CR3, USART_CR3_EIE);
000012  6801              LDR      r1,[r0,#0]
000014  3108              ADDS     r1,r1,#8
000016  e8512f00          LDREX    r2,[r1,#0]
00001a  f0220201          BIC      r2,r2,#1
00001e  e8412300          STREX    r3,r2,[r1,#0]
000022  2b00              CMP      r3,#0
000024  d1f5              BNE      |L56.18|
;;;3789   #endif /* USART_CR1_FIFOEN */
;;;3790   
;;;3791     /* In case of reception waiting for IDLE event, disable also the IDLE IE interrupt source */
;;;3792     if (huart->ReceptionType == HAL_UART_RECEPTION_TOIDLE)
000026  6e01              LDR      r1,[r0,#0x60]
000028  2901              CMP      r1,#1
00002a  d108              BNE      |L56.62|
                  |L56.44|
;;;3793     {
;;;3794       ATOMIC_CLEAR_BIT(huart->Instance->CR1, USART_CR1_IDLEIE);
00002c  6802              LDR      r2,[r0,#0]
00002e  e8521f00          LDREX    r1,[r2,#0]
000032  f0210110          BIC      r1,r1,#0x10
000036  e8421300          STREX    r3,r1,[r2,#0]
00003a  2b00              CMP      r3,#0
00003c  d1f6              BNE      |L56.44|
                  |L56.62|
;;;3795     }
;;;3796   
;;;3797     /* At end of Rx process, restore huart->RxState to Ready */
;;;3798     huart->RxState = HAL_UART_STATE_READY;
00003e  2120              MOVS     r1,#0x20
000040  67c1              STR      r1,[r0,#0x7c]
;;;3799     huart->ReceptionType = HAL_UART_RECEPTION_STANDARD;
000042  2100              MOVS     r1,#0
000044  6601              STR      r1,[r0,#0x60]
;;;3800   
;;;3801     /* Reset RxIsr function pointer */
;;;3802     huart->RxISR = NULL;
000046  6641              STR      r1,[r0,#0x64]
;;;3803   }
000048  4770              BX       lr
;;;3804   
                          ENDP


                          AREA ||i.UART_EndTxTransfer||, CODE, READONLY, ALIGN=1

                  UART_EndTxTransfer PROC
                  |L57.0|
;;;3758     */
;;;3759   static void UART_EndTxTransfer(UART_HandleTypeDef *huart)
000000  6802              LDR      r2,[r0,#0]
;;;3760   {
;;;3761   #if defined(USART_CR1_FIFOEN)
;;;3762     /* Disable TXEIE, TCIE, TXFT interrupts */
;;;3763     ATOMIC_CLEAR_BIT(huart->Instance->CR1, (USART_CR1_TXEIE_TXFNFIE | USART_CR1_TCIE));
;;;3764     ATOMIC_CLEAR_BIT(huart->Instance->CR3, (USART_CR3_TXFTIE));
;;;3765   #else
;;;3766     /* Disable TXEIE and TCIE interrupts */
;;;3767     ATOMIC_CLEAR_BIT(huart->Instance->CR1, (USART_CR1_TXEIE | USART_CR1_TCIE));
000002  e8521f00          LDREX    r1,[r2,#0]
000006  f02101c0          BIC      r1,r1,#0xc0
00000a  e8421300          STREX    r3,r1,[r2,#0]
00000e  2b00              CMP      r3,#0
000010  d1f6              BNE      |L57.0|
;;;3768   #endif /* USART_CR1_FIFOEN */
;;;3769   
;;;3770     /* At end of Tx process, restore huart->gState to Ready */
;;;3771     huart->gState = HAL_UART_STATE_READY;
000012  2120              MOVS     r1,#0x20
000014  6781              STR      r1,[r0,#0x78]
;;;3772   }
000016  4770              BX       lr
;;;3773   
                          ENDP


                          AREA ||i.UART_RxISR_16BIT||, CODE, READONLY, ALIGN=1

                  UART_RxISR_16BIT PROC
;;;4451     */
;;;4452   static void UART_RxISR_16BIT(UART_HandleTypeDef *huart)
000000  b510              PUSH     {r4,lr}
;;;4453   {
;;;4454     uint16_t *tmp;
;;;4455     uint16_t uhMask = huart->Mask;
000002  f8b0205c          LDRH     r2,[r0,#0x5c]
;;;4456     uint16_t  uhdata;
;;;4457   
;;;4458     /* Check that a Rx process is ongoing */
;;;4459     if (huart->RxState == HAL_UART_STATE_BUSY_RX)
000006  6fc3              LDR      r3,[r0,#0x7c]
000008  6801              LDR      r1,[r0,#0]
00000a  2b22              CMP      r3,#0x22
00000c  d004              BEQ      |L58.24|
;;;4460     {
;;;4461       uhdata = (uint16_t) READ_REG(huart->Instance->RDR);
;;;4462       tmp = (uint16_t *) huart->pRxBuffPtr ;
;;;4463       *tmp = (uint16_t)(uhdata & uhMask);
;;;4464       huart->pRxBuffPtr += 2U;
;;;4465       huart->RxXferCount--;
;;;4466   
;;;4467       if (huart->RxXferCount == 0U)
;;;4468       {
;;;4469         /* Disable the UART Parity Error Interrupt and RXNE interrupt*/
;;;4470   #if defined(USART_CR1_FIFOEN)
;;;4471         ATOMIC_CLEAR_BIT(huart->Instance->CR1, (USART_CR1_RXNEIE_RXFNEIE | USART_CR1_PEIE));
;;;4472   #else
;;;4473         ATOMIC_CLEAR_BIT(huart->Instance->CR1, (USART_CR1_RXNEIE | USART_CR1_PEIE));
;;;4474   #endif /* USART_CR1_FIFOEN */
;;;4475   
;;;4476         /* Disable the UART Error Interrupt: (Frame error, noise error, overrun error) */
;;;4477         ATOMIC_CLEAR_BIT(huart->Instance->CR3, USART_CR3_EIE);
;;;4478   
;;;4479         /* Rx process is completed, restore huart->RxState to Ready */
;;;4480         huart->RxState = HAL_UART_STATE_READY;
;;;4481   
;;;4482         /* Clear RxISR function pointer */
;;;4483         huart->RxISR = NULL;
;;;4484   
;;;4485         /* Check current reception Mode :
;;;4486            If Reception till IDLE event has been selected : */
;;;4487         if (huart->ReceptionType == HAL_UART_RECEPTION_TOIDLE)
;;;4488         {
;;;4489           /* Set reception type to Standard */
;;;4490           huart->ReceptionType = HAL_UART_RECEPTION_STANDARD;
;;;4491   
;;;4492           /* Disable IDLE interrupt */
;;;4493           ATOMIC_CLEAR_BIT(huart->Instance->CR1, USART_CR1_IDLEIE);
;;;4494   
;;;4495           if (__HAL_UART_GET_FLAG(huart, UART_FLAG_IDLE) == SET)
;;;4496           {
;;;4497             /* Clear IDLE Flag */
;;;4498             __HAL_UART_CLEAR_FLAG(huart, UART_CLEAR_IDLEF);
;;;4499           }
;;;4500   #if (USE_HAL_UART_REGISTER_CALLBACKS == 1)
;;;4501           /*Call registered Rx Event callback*/
;;;4502           huart->RxEventCallback(huart, huart->RxXferSize);
;;;4503   #else
;;;4504           /*Call legacy weak Rx Event callback*/
;;;4505           HAL_UARTEx_RxEventCallback(huart, huart->RxXferSize);
;;;4506   #endif /* (USE_HAL_UART_REGISTER_CALLBACKS) */
;;;4507         }
;;;4508         else
;;;4509         {
;;;4510           /* Standard reception API called */
;;;4511   #if (USE_HAL_UART_REGISTER_CALLBACKS == 1)
;;;4512           /*Call registered Rx complete callback*/
;;;4513           huart->RxCpltCallback(huart);
;;;4514   #else
;;;4515           /*Call legacy weak Rx complete callback*/
;;;4516           HAL_UART_RxCpltCallback(huart);
;;;4517   #endif /* USE_HAL_UART_REGISTER_CALLBACKS */
;;;4518         }
;;;4519       }
;;;4520     }
;;;4521     else
;;;4522     {
;;;4523       /* Clear RXNE interrupt flag */
;;;4524       __HAL_UART_SEND_REQ(huart, UART_RXDATA_FLUSH_REQUEST);
00000e  8b08              LDRH     r0,[r1,#0x18]
000010  f0400008          ORR      r0,r0,#8
000014  8308              STRH     r0,[r1,#0x18]
                  |L58.22|
;;;4525     }
;;;4526   }
000016  bd10              POP      {r4,pc}
                  |L58.24|
000018  8c89              LDRH     r1,[r1,#0x24]         ;4461
00001a  6d43              LDR      r3,[r0,#0x54]         ;4463
00001c  4011              ANDS     r1,r1,r2              ;4463
00001e  8019              STRH     r1,[r3,#0]            ;4463
000020  6d41              LDR      r1,[r0,#0x54]         ;4464
000022  1c89              ADDS     r1,r1,#2              ;4464
000024  6541              STR      r1,[r0,#0x54]         ;4465
000026  f8b0105a          LDRH     r1,[r0,#0x5a]         ;4465
00002a  1e49              SUBS     r1,r1,#1              ;4465
00002c  f8a0105a          STRH     r1,[r0,#0x5a]         ;4465
000030  f8b0105a          LDRH     r1,[r0,#0x5a]         ;4467
000034  2900              CMP      r1,#0                 ;4467
000036  d1ee              BNE      |L58.22|
                  |L58.56|
000038  6802              LDR      r2,[r0,#0]            ;4473
00003a  e8521f00          LDREX    r1,[r2,#0]            ;4473
00003e  f4217190          BIC      r1,r1,#0x120          ;4473
000042  e8421300          STREX    r3,r1,[r2,#0]         ;4473
000046  2b00              CMP      r3,#0                 ;4473
000048  d1f6              BNE      |L58.56|
                  |L58.74|
00004a  6801              LDR      r1,[r0,#0]            ;4477
00004c  3108              ADDS     r1,r1,#8              ;4477
00004e  e8512f00          LDREX    r2,[r1,#0]            ;4477
000052  f0220201          BIC      r2,r2,#1              ;4477
000056  e8412300          STREX    r3,r2,[r1,#0]         ;4477
00005a  2b00              CMP      r3,#0                 ;4477
00005c  d1f5              BNE      |L58.74|
00005e  2120              MOVS     r1,#0x20              ;4480
000060  67c1              STR      r1,[r0,#0x7c]         ;4480
000062  2100              MOVS     r1,#0                 ;4483
000064  6641              STR      r1,[r0,#0x64]         ;4487
000066  6e02              LDR      r2,[r0,#0x60]         ;4487
000068  2a01              CMP      r2,#1                 ;4487
00006a  d002              BEQ      |L58.114|
00006c  f7fffffe          BL       HAL_UART_RxCpltCallback
000070  bd10              POP      {r4,pc}
                  |L58.114|
000072  6601              STR      r1,[r0,#0x60]         ;4490
                  |L58.116|
000074  6802              LDR      r2,[r0,#0]            ;4493
000076  e8521f00          LDREX    r1,[r2,#0]            ;4493
00007a  f0210110          BIC      r1,r1,#0x10           ;4493
00007e  e8421300          STREX    r3,r1,[r2,#0]         ;4493
000082  2b00              CMP      r3,#0                 ;4493
000084  d1f6              BNE      |L58.116|
000086  6801              LDR      r1,[r0,#0]            ;4495
000088  69ca              LDR      r2,[r1,#0x1c]         ;4495
00008a  43d2              MVNS     r2,r2                 ;4495
00008c  06d2              LSLS     r2,r2,#27             ;4495
00008e  d401              BMI      |L58.148|
000090  2210              MOVS     r2,#0x10              ;4498
000092  620a              STR      r2,[r1,#0x20]         ;4498
                  |L58.148|
000094  f8b01058          LDRH     r1,[r0,#0x58]         ;4505
000098  f7fffffe          BL       HAL_UARTEx_RxEventCallback
00009c  bd10              POP      {r4,pc}
;;;4527   
                          ENDP


                          AREA ||i.UART_RxISR_8BIT||, CODE, READONLY, ALIGN=1

                  UART_RxISR_8BIT PROC
;;;4370     */
;;;4371   static void UART_RxISR_8BIT(UART_HandleTypeDef *huart)
000000  b510              PUSH     {r4,lr}
;;;4372   {
;;;4373     uint16_t uhMask = huart->Mask;
000002  f8b0205c          LDRH     r2,[r0,#0x5c]
;;;4374     uint16_t  uhdata;
;;;4375   
;;;4376     /* Check that a Rx process is ongoing */
;;;4377     if (huart->RxState == HAL_UART_STATE_BUSY_RX)
000006  6fc3              LDR      r3,[r0,#0x7c]
000008  6801              LDR      r1,[r0,#0]
00000a  2b22              CMP      r3,#0x22
00000c  d004              BEQ      |L59.24|
;;;4378     {
;;;4379       uhdata = (uint16_t) READ_REG(huart->Instance->RDR);
;;;4380       *huart->pRxBuffPtr = (uint8_t)(uhdata & (uint8_t)uhMask);
;;;4381       huart->pRxBuffPtr++;
;;;4382       huart->RxXferCount--;
;;;4383   
;;;4384       if (huart->RxXferCount == 0U)
;;;4385       {
;;;4386         /* Disable the UART Parity Error Interrupt and RXNE interrupts */
;;;4387   #if defined(USART_CR1_FIFOEN)
;;;4388         ATOMIC_CLEAR_BIT(huart->Instance->CR1, (USART_CR1_RXNEIE_RXFNEIE | USART_CR1_PEIE));
;;;4389   #else
;;;4390         ATOMIC_CLEAR_BIT(huart->Instance->CR1, (USART_CR1_RXNEIE | USART_CR1_PEIE));
;;;4391   #endif /* USART_CR1_FIFOEN */
;;;4392   
;;;4393         /* Disable the UART Error Interrupt: (Frame error, noise error, overrun error) */
;;;4394         ATOMIC_CLEAR_BIT(huart->Instance->CR3, USART_CR3_EIE);
;;;4395   
;;;4396         /* Rx process is completed, restore huart->RxState to Ready */
;;;4397         huart->RxState = HAL_UART_STATE_READY;
;;;4398   
;;;4399         /* Clear RxISR function pointer */
;;;4400         huart->RxISR = NULL;
;;;4401   
;;;4402         /* Check current reception Mode :
;;;4403            If Reception till IDLE event has been selected : */
;;;4404         if (huart->ReceptionType == HAL_UART_RECEPTION_TOIDLE)
;;;4405         {
;;;4406           /* Set reception type to Standard */
;;;4407           huart->ReceptionType = HAL_UART_RECEPTION_STANDARD;
;;;4408   
;;;4409           /* Disable IDLE interrupt */
;;;4410           ATOMIC_CLEAR_BIT(huart->Instance->CR1, USART_CR1_IDLEIE);
;;;4411   
;;;4412           if (__HAL_UART_GET_FLAG(huart, UART_FLAG_IDLE) == SET)
;;;4413           {
;;;4414             /* Clear IDLE Flag */
;;;4415             __HAL_UART_CLEAR_FLAG(huart, UART_CLEAR_IDLEF);
;;;4416           }
;;;4417   #if (USE_HAL_UART_REGISTER_CALLBACKS == 1)
;;;4418           /*Call registered Rx Event callback*/
;;;4419           huart->RxEventCallback(huart, huart->RxXferSize);
;;;4420   #else
;;;4421           /*Call legacy weak Rx Event callback*/
;;;4422           HAL_UARTEx_RxEventCallback(huart, huart->RxXferSize);
;;;4423   #endif /* (USE_HAL_UART_REGISTER_CALLBACKS) */
;;;4424         }
;;;4425         else
;;;4426         {
;;;4427           /* Standard reception API called */
;;;4428   #if (USE_HAL_UART_REGISTER_CALLBACKS == 1)
;;;4429           /*Call registered Rx complete callback*/
;;;4430           huart->RxCpltCallback(huart);
;;;4431   #else
;;;4432           /*Call legacy weak Rx complete callback*/
;;;4433           HAL_UART_RxCpltCallback(huart);
;;;4434   #endif /* USE_HAL_UART_REGISTER_CALLBACKS */
;;;4435         }
;;;4436       }
;;;4437     }
;;;4438     else
;;;4439     {
;;;4440       /* Clear RXNE interrupt flag */
;;;4441       __HAL_UART_SEND_REQ(huart, UART_RXDATA_FLUSH_REQUEST);
00000e  8b08              LDRH     r0,[r1,#0x18]
000010  f0400008          ORR      r0,r0,#8
000014  8308              STRH     r0,[r1,#0x18]
                  |L59.22|
;;;4442     }
;;;4443   }
000016  bd10              POP      {r4,pc}
                  |L59.24|
000018  8c89              LDRH     r1,[r1,#0x24]         ;4379
00001a  4011              ANDS     r1,r1,r2              ;4380
00001c  6d42              LDR      r2,[r0,#0x54]         ;4380
00001e  7011              STRB     r1,[r2,#0]            ;4380
000020  6d41              LDR      r1,[r0,#0x54]         ;4381
000022  1c49              ADDS     r1,r1,#1              ;4381
000024  6541              STR      r1,[r0,#0x54]         ;4382
000026  f8b0105a          LDRH     r1,[r0,#0x5a]         ;4382
00002a  1e49              SUBS     r1,r1,#1              ;4382
00002c  f8a0105a          STRH     r1,[r0,#0x5a]         ;4382
000030  f8b0105a          LDRH     r1,[r0,#0x5a]         ;4384
000034  2900              CMP      r1,#0                 ;4384
000036  d1ee              BNE      |L59.22|
                  |L59.56|
000038  6802              LDR      r2,[r0,#0]            ;4390
00003a  e8521f00          LDREX    r1,[r2,#0]            ;4390
00003e  f4217190          BIC      r1,r1,#0x120          ;4390
000042  e8421300          STREX    r3,r1,[r2,#0]         ;4390
000046  2b00              CMP      r3,#0                 ;4390
000048  d1f6              BNE      |L59.56|
                  |L59.74|
00004a  6801              LDR      r1,[r0,#0]            ;4394
00004c  3108              ADDS     r1,r1,#8              ;4394
00004e  e8512f00          LDREX    r2,[r1,#0]            ;4394
000052  f0220201          BIC      r2,r2,#1              ;4394
000056  e8412300          STREX    r3,r2,[r1,#0]         ;4394
00005a  2b00              CMP      r3,#0                 ;4394
00005c  d1f5              BNE      |L59.74|
00005e  2120              MOVS     r1,#0x20              ;4397
000060  67c1              STR      r1,[r0,#0x7c]         ;4397
000062  2100              MOVS     r1,#0                 ;4400
000064  6641              STR      r1,[r0,#0x64]         ;4404
000066  6e02              LDR      r2,[r0,#0x60]         ;4404
000068  2a01              CMP      r2,#1                 ;4404
00006a  d002              BEQ      |L59.114|
00006c  f7fffffe          BL       HAL_UART_RxCpltCallback
000070  bd10              POP      {r4,pc}
                  |L59.114|
000072  6601              STR      r1,[r0,#0x60]         ;4407
                  |L59.116|
000074  6802              LDR      r2,[r0,#0]            ;4410
000076  e8521f00          LDREX    r1,[r2,#0]            ;4410
00007a  f0210110          BIC      r1,r1,#0x10           ;4410
00007e  e8421300          STREX    r3,r1,[r2,#0]         ;4410
000082  2b00              CMP      r3,#0                 ;4410
000084  d1f6              BNE      |L59.116|
000086  6801              LDR      r1,[r0,#0]            ;4412
000088  69ca              LDR      r2,[r1,#0x1c]         ;4412
00008a  43d2              MVNS     r2,r2                 ;4412
00008c  06d2              LSLS     r2,r2,#27             ;4412
00008e  d401              BMI      |L59.148|
000090  2210              MOVS     r2,#0x10              ;4415
000092  620a              STR      r2,[r1,#0x20]         ;4415
                  |L59.148|
000094  f8b01058          LDRH     r1,[r0,#0x58]         ;4422
000098  f7fffffe          BL       HAL_UARTEx_RxEventCallback
00009c  bd10              POP      {r4,pc}
;;;4444   
                          ENDP


                          AREA ||i.UART_SetConfig||, CODE, READONLY, ALIGN=2

                  UART_SetConfig PROC
;;;3145     */
;;;3146   HAL_StatusTypeDef UART_SetConfig(UART_HandleTypeDef *huart)
000000  e92d41f0          PUSH     {r4-r8,lr}
;;;3147   {
000004  4604              MOV      r4,r0
;;;3148     uint32_t tmpreg;
;;;3149     uint16_t brrtemp;
;;;3150     UART_ClockSourceTypeDef clocksource;
;;;3151     uint32_t usartdiv;
;;;3152     HAL_StatusTypeDef ret               = HAL_OK;
;;;3153   #if defined(USART_PRESC_PRESCALER)
;;;3154     uint32_t lpuart_ker_ck_pres;
;;;3155   #endif /* USART_PRESC_PRESCALER */
;;;3156     uint32_t pclk;
;;;3157   
;;;3158     /* Check the parameters */
;;;3159     assert_param(IS_UART_BAUDRATE(huart->Init.BaudRate));
;;;3160     assert_param(IS_UART_WORD_LENGTH(huart->Init.WordLength));
;;;3161     if (UART_INSTANCE_LOWPOWER(huart))
;;;3162     {
;;;3163       assert_param(IS_LPUART_STOPBITS(huart->Init.StopBits));
;;;3164     }
;;;3165     else
;;;3166     {
;;;3167       assert_param(IS_UART_STOPBITS(huart->Init.StopBits));
;;;3168       assert_param(IS_UART_ONE_BIT_SAMPLE(huart->Init.OneBitSampling));
;;;3169     }
;;;3170   
;;;3171     assert_param(IS_UART_PARITY(huart->Init.Parity));
;;;3172     assert_param(IS_UART_MODE(huart->Init.Mode));
;;;3173     assert_param(IS_UART_HARDWARE_FLOW_CONTROL(huart->Init.HwFlowCtl));
;;;3174     assert_param(IS_UART_OVERSAMPLING(huart->Init.OverSampling));
;;;3175   #if defined(USART_PRESC_PRESCALER)
;;;3176     assert_param(IS_UART_PRESCALER(huart->Init.ClockPrescaler));
;;;3177   #endif /* USART_PRESC_PRESCALER */
;;;3178   
;;;3179     /*-------------------------- USART CR1 Configuration -----------------------*/
;;;3180     /* Clear M, PCE, PS, TE, RE and OVER8 bits and configure
;;;3181     *  the UART Word Length, Parity, Mode and oversampling:
;;;3182     *  set the M bits according to huart->Init.WordLength value
;;;3183     *  set PCE and PS bits according to huart->Init.Parity value
;;;3184     *  set TE and RE bits according to huart->Init.Mode value
;;;3185     *  set OVER8 bit according to huart->Init.OverSampling value */
;;;3186     tmpreg = (uint32_t)huart->Init.WordLength | huart->Init.Parity | huart->Init.Mode | huart->Init.OverSampling ;
000006  6801              LDR      r1,[r0,#0]
000008  6880              LDR      r0,[r0,#8]
00000a  6922              LDR      r2,[r4,#0x10]
00000c  69e3              LDR      r3,[r4,#0x1c]
00000e  4310              ORRS     r0,r0,r2
000010  6962              LDR      r2,[r4,#0x14]
000012  2500              MOVS     r5,#0                 ;3152
000014  431a              ORRS     r2,r2,r3
000016  4310              ORRS     r0,r0,r2
000018  4f71              LDR      r7,|L60.480|
;;;3187     MODIFY_REG(huart->Instance->CR1, USART_CR1_FIELDS, tmpreg);
00001a  680a              LDR      r2,[r1,#0]
00001c  4b71              LDR      r3,|L60.484|
00001e  401a              ANDS     r2,r2,r3
000020  4302              ORRS     r2,r2,r0
000022  600a              STR      r2,[r1,#0]
;;;3188   
;;;3189     /*-------------------------- USART CR2 Configuration -----------------------*/
;;;3190     /* Configure the UART Stop Bits: Set STOP[13:12] bits according
;;;3191     * to huart->Init.StopBits value */
;;;3192     MODIFY_REG(huart->Instance->CR2, USART_CR2_STOP, huart->Init.StopBits);
000024  6820              LDR      r0,[r4,#0]
000026  6841              LDR      r1,[r0,#4]
000028  68e2              LDR      r2,[r4,#0xc]
00002a  f4215140          BIC      r1,r1,#0x3000
00002e  4311              ORRS     r1,r1,r2
000030  6041              STR      r1,[r0,#4]
;;;3193   
;;;3194     /*-------------------------- USART CR3 Configuration -----------------------*/
;;;3195     /* Configure
;;;3196     * - UART HardWare Flow Control: set CTSE and RTSE bits according
;;;3197     *   to huart->Init.HwFlowCtl value
;;;3198     * - one-bit sampling method versus three samples' majority rule according
;;;3199     *   to huart->Init.OneBitSampling (not applicable to LPUART) */
;;;3200     tmpreg = (uint32_t)huart->Init.HwFlowCtl;
;;;3201   
;;;3202     if (!(UART_INSTANCE_LOWPOWER(huart)))
000032  6821              LDR      r1,[r4,#0]
000034  69a0              LDR      r0,[r4,#0x18]
000036  42b9              CMP      r1,r7
000038  d001              BEQ      |L60.62|
;;;3203     {
;;;3204       tmpreg |= huart->Init.OneBitSampling;
00003a  6a22              LDR      r2,[r4,#0x20]
00003c  4310              ORRS     r0,r0,r2
                  |L60.62|
;;;3205     }
;;;3206     MODIFY_REG(huart->Instance->CR3, USART_CR3_FIELDS, tmpreg);
00003e  688a              LDR      r2,[r1,#8]
000040  f4226230          BIC      r2,r2,#0xb00
000044  4302              ORRS     r2,r2,r0
000046  608a              STR      r2,[r1,#8]
;;;3207   
;;;3208   #if defined(USART_PRESC_PRESCALER)
;;;3209     /*-------------------------- USART PRESC Configuration -----------------------*/
;;;3210     /* Configure
;;;3211     * - UART Clock Prescaler : set PRESCALER according to huart->Init.ClockPrescaler value */
;;;3212     MODIFY_REG(huart->Instance->PRESC, USART_PRESC_PRESCALER, huart->Init.ClockPrescaler);
;;;3213   #endif /* USART_PRESC_PRESCALER */
;;;3214   
;;;3215     /*-------------------------- USART BRR Configuration -----------------------*/
;;;3216     UART_GETCLOCKSOURCE(huart, clocksource);
000048  4967              LDR      r1,|L60.488|
00004a  6823              LDR      r3,[r4,#0]
00004c  4867              LDR      r0,|L60.492|
00004e  428b              CMP      r3,r1
000050  d10d              BNE      |L60.110|
000052  f8d00088          LDR      r0,[r0,#0x88]
000056  f0100003          ANDS     r0,r0,#3
00005a  d006              BEQ      |L60.106|
00005c  2801              CMP      r0,#1
00005e  d047              BEQ      |L60.240|
000060  2802              CMP      r0,#2
000062  d043              BEQ      |L60.236|
000064  2803              CMP      r0,#3
000066  d130              BNE      |L60.202|
000068  e044              B        |L60.244|
                  |L60.106|
00006a  2101              MOVS     r1,#1
00006c  e02e              B        |L60.204|
                  |L60.110|
00006e  4960              LDR      r1,|L60.496|
000070  428b              CMP      r3,r1
000072  d10b              BNE      |L60.140|
000074  f8d00088          LDR      r0,[r0,#0x88]
000078  f010000c          ANDS     r0,r0,#0xc
00007c  d034              BEQ      |L60.232|
00007e  2804              CMP      r0,#4
000080  d036              BEQ      |L60.240|
000082  2808              CMP      r0,#8
000084  d032              BEQ      |L60.236|
000086  280c              CMP      r0,#0xc
000088  d11f              BNE      |L60.202|
00008a  e033              B        |L60.244|
                  |L60.140|
00008c  4959              LDR      r1,|L60.500|
00008e  428b              CMP      r3,r1
000090  d10b              BNE      |L60.170|
000092  f8d00088          LDR      r0,[r0,#0x88]
000096  f0100030          ANDS     r0,r0,#0x30
00009a  d025              BEQ      |L60.232|
00009c  2810              CMP      r0,#0x10
00009e  d027              BEQ      |L60.240|
0000a0  2820              CMP      r0,#0x20
0000a2  d023              BEQ      |L60.236|
0000a4  2830              CMP      r0,#0x30
0000a6  d110              BNE      |L60.202|
0000a8  e024              B        |L60.244|
                  |L60.170|
0000aa  42bb              CMP      r3,r7
0000ac  d10d              BNE      |L60.202|
0000ae  f8d00088          LDR      r0,[r0,#0x88]
0000b2  f4106040          ANDS     r0,r0,#0xc00
0000b6  d017              BEQ      |L60.232|
0000b8  f5b06f80          CMP      r0,#0x400
0000bc  d018              BEQ      |L60.240|
0000be  f5b06f00          CMP      r0,#0x800
0000c2  d013              BEQ      |L60.236|
0000c4  f5b06f40          CMP      r0,#0xc00
0000c8  d014              BEQ      |L60.244|
                  |L60.202|
0000ca  2110              MOVS     r1,#0x10
                  |L60.204|
;;;3217   
;;;3218     /* Check LPUART instance */
;;;3219     if (UART_INSTANCE_LOWPOWER(huart))
;;;3220     {
;;;3221       /* Retrieve frequency clock */
;;;3222       switch (clocksource)
;;;3223       {
;;;3224         case UART_CLOCKSOURCE_PCLK1:
;;;3225           pclk = HAL_RCC_GetPCLK1Freq();
;;;3226           break;
;;;3227         case UART_CLOCKSOURCE_HSI:
;;;3228           pclk = (uint32_t) HSI_VALUE;
0000cc  4a4a              LDR      r2,|L60.504|
0000ce  2600              MOVS     r6,#0
;;;3229           break;
;;;3230         case UART_CLOCKSOURCE_SYSCLK:
;;;3231           pclk = HAL_RCC_GetSysClockFreq();
;;;3232           break;
;;;3233         case UART_CLOCKSOURCE_LSE:
;;;3234           pclk = (uint32_t) LSE_VALUE;
0000d0  f44f4000          MOV      r0,#0x8000
0000d4  42bb              CMP      r3,r7                 ;3219
0000d6  d12f              BNE      |L60.312|
0000d8  b171              CBZ      r1,|L60.248|
0000da  2902              CMP      r1,#2                 ;3222
0000dc  d00f              BEQ      |L60.254|
0000de  2904              CMP      r1,#4                 ;3222
0000e0  d00f              BEQ      |L60.258|
0000e2  2908              CMP      r1,#8                 ;3222
0000e4  d173              BNE      |L60.462|
0000e6  e00f              B        |L60.264|
                  |L60.232|
0000e8  2100              MOVS     r1,#0                 ;3216
0000ea  e7ef              B        |L60.204|
                  |L60.236|
0000ec  2102              MOVS     r1,#2                 ;3216
0000ee  e7ed              B        |L60.204|
                  |L60.240|
0000f0  2104              MOVS     r1,#4                 ;3216
0000f2  e7eb              B        |L60.204|
                  |L60.244|
0000f4  2108              MOVS     r1,#8                 ;3216
0000f6  e7e9              B        |L60.204|
                  |L60.248|
0000f8  f7fffffe          BL       HAL_RCC_GetPCLK1Freq
0000fc  e003              B        |L60.262|
                  |L60.254|
0000fe  4610              MOV      r0,r2                 ;3228
000100  e002              B        |L60.264|
                  |L60.258|
000102  f7fffffe          BL       HAL_RCC_GetSysClockFreq
                  |L60.262|
;;;3235           break;
;;;3236         default:
;;;3237           pclk = 0U;
;;;3238           ret = HAL_ERROR;
;;;3239           break;
;;;3240       }
;;;3241   
;;;3242       /* If proper clock source reported */
;;;3243       if (pclk != 0U)
000106  b3e8              CBZ      r0,|L60.388|
                  |L60.264|
;;;3244       {
;;;3245   #if defined(USART_PRESC_PRESCALER)
;;;3246         /* Compute clock after Prescaler */
;;;3247         lpuart_ker_ck_pres = (pclk / UARTPrescTable[huart->Init.ClockPrescaler]);
;;;3248   
;;;3249         /* Ensure that Frequency clock is in the range [3 * baudrate, 4096 * baudrate] */
;;;3250         if ((lpuart_ker_ck_pres < (3U * huart->Init.BaudRate)) ||
;;;3251             (lpuart_ker_ck_pres > (4096U * huart->Init.BaudRate)))
;;;3252         {
;;;3253           ret = HAL_ERROR;
;;;3254         }
;;;3255         else
;;;3256         {
;;;3257           /* Check computed UsartDiv value is in allocated range
;;;3258              (it is forbidden to write values lower than 0x300 in the LPUART_BRR register) */
;;;3259           usartdiv = (uint32_t)(UART_DIV_LPUART(pclk, huart->Init.BaudRate, huart->Init.ClockPrescaler));
;;;3260           if ((usartdiv >= LPUART_BRR_MIN) && (usartdiv <= LPUART_BRR_MAX))
;;;3261           {
;;;3262             huart->Instance->BRR = usartdiv;
;;;3263           }
;;;3264           else
;;;3265           {
;;;3266             ret = HAL_ERROR;
;;;3267           }
;;;3268         } /* if ( (lpuart_ker_ck_pres < (3 * huart->Init.BaudRate) ) ||
;;;3269                   (lpuart_ker_ck_pres > (4096 * huart->Init.BaudRate) )) */
;;;3270   #else
;;;3271         /* No Prescaler applicable */
;;;3272         /* Ensure that Frequency clock is in the range [3 * baudrate, 4096 * baudrate] */
;;;3273         if ((pclk < (3U * huart->Init.BaudRate)) ||
000108  6862              LDR      r2,[r4,#4]
00010a  eb020142          ADD      r1,r2,r2,LSL #1
00010e  4281              CMP      r1,r0
000110  d85d              BHI      |L60.462|
;;;3274             (pclk > (4096U * huart->Init.BaudRate)))
000112  ebb03f02          CMP      r0,r2,LSL #12
000116  d85a              BHI      |L60.462|
;;;3275         {
;;;3276           ret = HAL_ERROR;
;;;3277         }
;;;3278         else
;;;3279         {
;;;3280           usartdiv = (uint32_t)(UART_DIV_LPUART(pclk, huart->Init.BaudRate));
000118  0e01              LSRS     r1,r0,#24
00011a  0203              LSLS     r3,r0,#8
00011c  0850              LSRS     r0,r2,#1
00011e  1818              ADDS     r0,r3,r0
000120  4171              ADCS     r1,r1,r6
000122  2300              MOVS     r3,#0
000124  f7fffffe          BL       __aeabi_uldivmod
;;;3281           if ((usartdiv >= LPUART_BRR_MIN) && (usartdiv <= LPUART_BRR_MAX))
000128  4a34              LDR      r2,|L60.508|
00012a  f5a07140          SUB      r1,r0,#0x300
00012e  4291              CMP      r1,r2
000130  d84d              BHI      |L60.462|
                  |L60.306|
;;;3282           {
;;;3283             huart->Instance->BRR = usartdiv;
000132  6821              LDR      r1,[r4,#0]
000134  60c8              STR      r0,[r1,#0xc]
000136  e04b              B        |L60.464|
                  |L60.312|
;;;3284           }
;;;3285           else
;;;3286           {
;;;3287             ret = HAL_ERROR;
;;;3288           }
;;;3289         } /* if ( (pclk < (3 * huart->Init.BaudRate) ) || (pclk > (4096 * huart->Init.BaudRate) )) */
;;;3290   #endif /* USART_PRESC_PRESCALER */
;;;3291       } /* if (pclk != 0) */
;;;3292     }
;;;3293     /* Check UART Over Sampling to set Baud Rate Register */
;;;3294     else if (huart->Init.OverSampling == UART_OVERSAMPLING_8)
000138  69e3              LDR      r3,[r4,#0x1c]
;;;3295     {
;;;3296       switch (clocksource)
;;;3297       {
;;;3298         case UART_CLOCKSOURCE_PCLK1:
;;;3299           pclk = HAL_RCC_GetPCLK1Freq();
;;;3300           break;
;;;3301         case UART_CLOCKSOURCE_PCLK2:
;;;3302           pclk = HAL_RCC_GetPCLK2Freq();
;;;3303           break;
;;;3304         case UART_CLOCKSOURCE_HSI:
;;;3305           pclk = (uint32_t) HSI_VALUE;
;;;3306           break;
;;;3307         case UART_CLOCKSOURCE_SYSCLK:
;;;3308           pclk = HAL_RCC_GetSysClockFreq();
;;;3309           break;
;;;3310         case UART_CLOCKSOURCE_LSE:
;;;3311           pclk = (uint32_t) LSE_VALUE;
;;;3312           break;
;;;3313         default:
;;;3314           pclk = 0U;
;;;3315           ret = HAL_ERROR;
;;;3316           break;
;;;3317       }
;;;3318   
;;;3319       /* USARTDIV must be greater than or equal to 0d16 */
;;;3320       if (pclk != 0U)
;;;3321       {
;;;3322   #if defined(USART_PRESC_PRESCALER)
;;;3323         usartdiv = (uint32_t)(UART_DIV_SAMPLING8(pclk, huart->Init.BaudRate, huart->Init.ClockPrescaler));
;;;3324   #else
;;;3325         usartdiv = (uint32_t)(UART_DIV_SAMPLING8(pclk, huart->Init.BaudRate));
;;;3326   #endif /* USART_PRESC_PRESCALER */
;;;3327         if ((usartdiv >= UART_BRR_MIN) && (usartdiv <= UART_BRR_MAX))
00013a  f64f77ef          MOV      r7,#0xffef
00013e  4283              CMP      r3,r0                 ;3294
000140  d128              BNE      |L60.404|
000142  2909              CMP      r1,#9                 ;3296
000144  d243              BCS      |L60.462|
000146  e8dff001          TBB      [pc,r1]               ;3296
00014a  0508              DCB      0x05,0x08
00014c  0b420d42          DCB      0x0b,0x42,0x0d,0x42
000150  42421000          DCB      0x42,0x42,0x10,0x00
000154  f7fffffe          BL       HAL_RCC_GetPCLK1Freq
000158  e006              B        |L60.360|
00015a  f7fffffe          BL       HAL_RCC_GetPCLK2Freq
00015e  e003              B        |L60.360|
000160  4610              MOV      r0,r2                 ;3305
000162  e002              B        |L60.362|
000164  f7fffffe          BL       HAL_RCC_GetSysClockFreq
                  |L60.360|
000168  b160              CBZ      r0,|L60.388|
                  |L60.362|
00016a  0041              LSLS     r1,r0,#1              ;3325
00016c  6860              LDR      r0,[r4,#4]            ;3325
00016e  eb010150          ADD      r1,r1,r0,LSR #1       ;3325
000172  fbb1f0f0          UDIV     r0,r1,r0              ;3325
000176  f1a00110          SUB      r1,r0,#0x10
00017a  42b9              CMP      r1,r7
00017c  d827              BHI      |L60.462|
;;;3328         {
;;;3329           brrtemp = (uint16_t)(usartdiv & 0xFFF0U);
00017e  f64f71f0          MOV      r1,#0xfff0
000182  e000              B        |L60.390|
                  |L60.388|
000184  e024              B        |L60.464|
                  |L60.390|
000186  4001              ANDS     r1,r1,r0
;;;3330           brrtemp |= (uint16_t)((usartdiv & (uint16_t)0x000FU) >> 1U);
000188  f3c00042          UBFX     r0,r0,#1,#3
00018c  4301              ORRS     r1,r1,r0
;;;3331           huart->Instance->BRR = brrtemp;
00018e  6820              LDR      r0,[r4,#0]
000190  60c1              STR      r1,[r0,#0xc]
000192  e01d              B        |L60.464|
                  |L60.404|
;;;3332         }
;;;3333         else
;;;3334         {
;;;3335           ret = HAL_ERROR;
;;;3336         }
;;;3337       }
;;;3338     }
;;;3339     else
;;;3340     {
;;;3341       switch (clocksource)
000194  2909              CMP      r1,#9
000196  d21a              BCS      |L60.462|
000198  e8dff001          TBB      [pc,r1]
00019c  05080b19          DCB      0x05,0x08,0x0b,0x19
0001a0  0d191919          DCB      0x0d,0x19,0x19,0x19
0001a4  1000              DCB      0x10,0x00
;;;3342       {
;;;3343         case UART_CLOCKSOURCE_PCLK1:
;;;3344           pclk = HAL_RCC_GetPCLK1Freq();
0001a6  f7fffffe          BL       HAL_RCC_GetPCLK1Freq
;;;3345           break;
0001aa  e006              B        |L60.442|
;;;3346         case UART_CLOCKSOURCE_PCLK2:
;;;3347           pclk = HAL_RCC_GetPCLK2Freq();
0001ac  f7fffffe          BL       HAL_RCC_GetPCLK2Freq
;;;3348           break;
0001b0  e003              B        |L60.442|
;;;3349         case UART_CLOCKSOURCE_HSI:
;;;3350           pclk = (uint32_t) HSI_VALUE;
0001b2  4610              MOV      r0,r2
;;;3351           break;
0001b4  e002              B        |L60.444|
;;;3352         case UART_CLOCKSOURCE_SYSCLK:
;;;3353           pclk = HAL_RCC_GetSysClockFreq();
0001b6  f7fffffe          BL       HAL_RCC_GetSysClockFreq
                  |L60.442|
;;;3354           break;
;;;3355         case UART_CLOCKSOURCE_LSE:
;;;3356           pclk = (uint32_t) LSE_VALUE;
;;;3357           break;
;;;3358         default:
;;;3359           pclk = 0U;
;;;3360           ret = HAL_ERROR;
;;;3361           break;
;;;3362       }
;;;3363   
;;;3364       if (pclk != 0U)
0001ba  b148              CBZ      r0,|L60.464|
                  |L60.444|
;;;3365       {
;;;3366         /* USARTDIV must be greater than or equal to 0d16 */
;;;3367   #if defined(USART_PRESC_PRESCALER)
;;;3368         usartdiv = (uint32_t)(UART_DIV_SAMPLING16(pclk, huart->Init.BaudRate, huart->Init.ClockPrescaler));
;;;3369   #else
;;;3370         usartdiv = (uint32_t)(UART_DIV_SAMPLING16(pclk, huart->Init.BaudRate));
0001bc  6861              LDR      r1,[r4,#4]
0001be  eb000051          ADD      r0,r0,r1,LSR #1
0001c2  fbb0f0f1          UDIV     r0,r0,r1
;;;3371   #endif /* USART_PRESC_PRESCALER */
;;;3372         if ((usartdiv >= UART_BRR_MIN) && (usartdiv <= UART_BRR_MAX))
0001c6  f1a00110          SUB      r1,r0,#0x10
0001ca  42b9              CMP      r1,r7
0001cc  d905              BLS      |L60.474|
                  |L60.462|
0001ce  2501              MOVS     r5,#1                 ;3360
                  |L60.464|
;;;3373         {
;;;3374           huart->Instance->BRR = (uint16_t)usartdiv;
;;;3375         }
;;;3376         else
;;;3377         {
;;;3378           ret = HAL_ERROR;
;;;3379         }
;;;3380       }
;;;3381     }
;;;3382   
;;;3383   #if defined(USART_CR1_FIFOEN)
;;;3384     /* Initialize the number of data to process during RX/TX ISR execution */
;;;3385     huart->NbTxDataToProcess = 1;
;;;3386     huart->NbRxDataToProcess = 1;
;;;3387   #endif /* USART_CR1_FIFOEN */
;;;3388   
;;;3389     /* Clear ISR function pointers */
;;;3390     huart->RxISR = NULL;
;;;3391     huart->TxISR = NULL;
0001d0  6666              STR      r6,[r4,#0x64]
;;;3392   
;;;3393     return ret;
0001d2  4628              MOV      r0,r5
0001d4  66a6              STR      r6,[r4,#0x68]
;;;3394   }
0001d6  e8bd81f0          POP      {r4-r8,pc}
                  |L60.474|
0001da  b280              UXTH     r0,r0                 ;3374
0001dc  e7a9              B        |L60.306|
;;;3395   
                          ENDP

0001de  0000              DCW      0x0000
                  |L60.480|
                          DCD      0x40008000
                  |L60.484|
                          DCD      0xefff69f3
                  |L60.488|
                          DCD      0x40013800
                  |L60.492|
                          DCD      0x40021000
                  |L60.496|
                          DCD      0x40004400
                  |L60.500|
                          DCD      0x40004800
                  |L60.504|
                          DCD      0x00f42400
                  |L60.508|
                          DCD      0x000ffcff

                          AREA ||i.UART_Start_Receive_DMA||, CODE, READONLY, ALIGN=2

                  UART_Start_Receive_DMA PROC
;;;3698     */
;;;3699   HAL_StatusTypeDef UART_Start_Receive_DMA(UART_HandleTypeDef *huart, uint8_t *pData, uint16_t Size)
000000  b570              PUSH     {r4-r6,lr}
;;;3700   {
;;;3701     huart->pRxBuffPtr = pData;
;;;3702     huart->RxXferSize = Size;
000002  6541              STR      r1,[r0,#0x54]
000004  f8a02058          STRH     r2,[r0,#0x58]
;;;3703   
;;;3704     huart->ErrorCode = HAL_UART_ERROR_NONE;
000008  2500              MOVS     r5,#0
00000a  4604              MOV      r4,r0                 ;3700
00000c  f8c05080          STR      r5,[r0,#0x80]
;;;3705     huart->RxState = HAL_UART_STATE_BUSY_RX;
000010  2022              MOVS     r0,#0x22
000012  67e0              STR      r0,[r4,#0x7c]
000014  6f20              LDR      r0,[r4,#0x70]         ;3700
000016  b1d8              CBZ      r0,|L61.80|
;;;3706   
;;;3707     if (huart->hdmarx != NULL)
;;;3708     {
;;;3709       /* Set the UART DMA transfer complete callback */
;;;3710       huart->hdmarx->XferCpltCallback = UART_DMAReceiveCplt;
000018  491f              LDR      r1,|L61.152|
;;;3711   
;;;3712       /* Set the UART DMA Half transfer complete callback */
;;;3713       huart->hdmarx->XferHalfCpltCallback = UART_DMARxHalfCplt;
00001a  62c1              STR      r1,[r0,#0x2c]
00001c  6f21              LDR      r1,[r4,#0x70]
00001e  481f              LDR      r0,|L61.156|
;;;3714   
;;;3715       /* Set the DMA error callback */
;;;3716       huart->hdmarx->XferErrorCallback = UART_DMAError;
;;;3717   
;;;3718       /* Set the DMA abort callback */
;;;3719       huart->hdmarx->XferAbortCallback = NULL;
;;;3720   
;;;3721       /* Enable the DMA channel */
;;;3722       if (HAL_DMA_Start_IT(huart->hdmarx, (uint32_t)&huart->Instance->RDR, (uint32_t)huart->pRxBuffPtr, Size) != HAL_OK)
000020  4613              MOV      r3,r2
000022  6308              STR      r0,[r1,#0x30]         ;3716
000024  6f21              LDR      r1,[r4,#0x70]         ;3716
000026  481e              LDR      r0,|L61.160|
000028  6348              STR      r0,[r1,#0x34]         ;3719
00002a  6f20              LDR      r0,[r4,#0x70]         ;3719
00002c  6385              STR      r5,[r0,#0x38]
00002e  6d66              LDR      r6,[r4,#0x54]
000030  6821              LDR      r1,[r4,#0]
000032  4632              MOV      r2,r6
000034  3124              ADDS     r1,r1,#0x24
000036  6f20              LDR      r0,[r4,#0x70]
000038  f7fffffe          BL       HAL_DMA_Start_IT
00003c  b140              CBZ      r0,|L61.80|
;;;3723       {
;;;3724         /* Set error code to DMA */
;;;3725         huart->ErrorCode = HAL_UART_ERROR_DMA;
00003e  2010              MOVS     r0,#0x10
000040  f8c40080          STR      r0,[r4,#0x80]
;;;3726   
;;;3727         __HAL_UNLOCK(huart);
000044  f8045f74          STRB     r5,[r4,#0x74]!
;;;3728   
;;;3729         /* Restore huart->RxState to ready */
;;;3730         huart->RxState = HAL_UART_STATE_READY;
000048  2020              MOVS     r0,#0x20
00004a  60a0              STR      r0,[r4,#8]
;;;3731   
;;;3732         return HAL_ERROR;
00004c  2001              MOVS     r0,#1
;;;3733       }
;;;3734     }
;;;3735     __HAL_UNLOCK(huart);
;;;3736   
;;;3737     /* Enable the UART Parity Error Interrupt */
;;;3738     if (huart->Init.Parity != UART_PARITY_NONE)
;;;3739     {
;;;3740       ATOMIC_SET_BIT(huart->Instance->CR1, USART_CR1_PEIE);
;;;3741     }
;;;3742   
;;;3743     /* Enable the UART Error Interrupt: (Frame error, noise error, overrun error) */
;;;3744     ATOMIC_SET_BIT(huart->Instance->CR3, USART_CR3_EIE);
;;;3745   
;;;3746     /* Enable the DMA transfer for the receiver request by setting the DMAR bit
;;;3747     in the UART CR3 register */
;;;3748     ATOMIC_SET_BIT(huart->Instance->CR3, USART_CR3_DMAR);
;;;3749   
;;;3750     return HAL_OK;
;;;3751   }
00004e  bd70              POP      {r4-r6,pc}
                  |L61.80|
000050  f8845074          STRB     r5,[r4,#0x74]         ;3735
000054  6920              LDR      r0,[r4,#0x10]         ;3738
000056  b140              CBZ      r0,|L61.106|
                  |L61.88|
000058  6821              LDR      r1,[r4,#0]            ;3740
00005a  e8510f00          LDREX    r0,[r1,#0]            ;3740
00005e  f4407080          ORR      r0,r0,#0x100          ;3740
000062  e8410200          STREX    r2,r0,[r1,#0]         ;3740
000066  2a00              CMP      r2,#0                 ;3740
000068  d1f6              BNE      |L61.88|
                  |L61.106|
00006a  6820              LDR      r0,[r4,#0]            ;3744
00006c  3008              ADDS     r0,r0,#8              ;3744
00006e  e8501f00          LDREX    r1,[r0,#0]            ;3744
000072  f0410101          ORR      r1,r1,#1              ;3744
000076  e8401200          STREX    r2,r1,[r0,#0]         ;3744
00007a  2a00              CMP      r2,#0                 ;3744
00007c  d1f5              BNE      |L61.106|
                  |L61.126|
00007e  6820              LDR      r0,[r4,#0]            ;3748
000080  3008              ADDS     r0,r0,#8              ;3748
000082  e8501f00          LDREX    r1,[r0,#0]            ;3748
000086  f0410140          ORR      r1,r1,#0x40           ;3748
00008a  e8401200          STREX    r2,r1,[r0,#0]         ;3748
00008e  2a00              CMP      r2,#0                 ;3748
000090  d1f5              BNE      |L61.126|
000092  2000              MOVS     r0,#0                 ;3750
000094  bd70              POP      {r4-r6,pc}
;;;3752   
                          ENDP

000096  0000              DCW      0x0000
                  |L61.152|
                          DCD      UART_DMAReceiveCplt
                  |L61.156|
                          DCD      UART_DMARxHalfCplt
                  |L61.160|
                          DCD      UART_DMAError

                          AREA ||i.UART_Start_Receive_IT||, CODE, READONLY, ALIGN=2

                  UART_Start_Receive_IT PROC
;;;3598     */
;;;3599   HAL_StatusTypeDef UART_Start_Receive_IT(UART_HandleTypeDef *huart, uint8_t *pData, uint16_t Size)
000000  b530              PUSH     {r4,r5,lr}
;;;3600   {
;;;3601     huart->pRxBuffPtr  = pData;
;;;3602     huart->RxXferSize  = Size;
000002  6541              STR      r1,[r0,#0x54]
000004  f8a02058          STRH     r2,[r0,#0x58]
;;;3603     huart->RxXferCount = Size;
000008  f8a0205a          STRH     r2,[r0,#0x5a]
;;;3604     huart->RxISR       = NULL;
00000c  2200              MOVS     r2,#0
;;;3605   
;;;3606     /* Computation of UART mask to apply to RDR register */
;;;3607     UART_MASK_COMPUTATION(huart);
00000e  6642              STR      r2,[r0,#0x64]
000010  6881              LDR      r1,[r0,#8]
000012  f44f5580          MOV      r5,#0x1000
000016  23ff              MOVS     r3,#0xff
000018  42a9              CMP      r1,r5
00001a  d104              BNE      |L62.38|
00001c  6901              LDR      r1,[r0,#0x10]
00001e  bb71              CBNZ     r1,|L62.126|
000020  f24011ff          MOV      r1,#0x1ff
000024  e031              B        |L62.138|
                  |L62.38|
000026  247f              MOVS     r4,#0x7f
000028  b339              CBZ      r1,|L62.122|
00002a  f1b15f80          CMP      r1,#0x10000000
00002e  d029              BEQ      |L62.132|
000030  f8a0205c          STRH     r2,[r0,#0x5c]
                  |L62.52|
;;;3608   
;;;3609     huart->ErrorCode = HAL_UART_ERROR_NONE;
000034  f8c02080          STR      r2,[r0,#0x80]
;;;3610     huart->RxState = HAL_UART_STATE_BUSY_RX;
000038  2122              MOVS     r1,#0x22
00003a  67c1              STR      r1,[r0,#0x7c]
                  |L62.60|
;;;3611   
;;;3612     /* Enable the UART Error Interrupt: (Frame error, noise error, overrun error) */
;;;3613     ATOMIC_SET_BIT(huart->Instance->CR3, USART_CR3_EIE);
00003c  6801              LDR      r1,[r0,#0]
00003e  3108              ADDS     r1,r1,#8
000040  e8513f00          LDREX    r3,[r1,#0]
000044  f0430301          ORR      r3,r3,#1
000048  e8413400          STREX    r4,r3,[r1,#0]
00004c  2c00              CMP      r4,#0
00004e  d1f5              BNE      |L62.60|
;;;3614   
;;;3615   #if defined(USART_CR1_FIFOEN)
;;;3616     /* Configure Rx interrupt processing */
;;;3617     if ((huart->FifoMode == UART_FIFOMODE_ENABLE) && (Size >= huart->NbRxDataToProcess))
;;;3618     {
;;;3619       /* Set the Rx ISR function pointer according to the data word length */
;;;3620       if ((huart->Init.WordLength == UART_WORDLENGTH_9B) && (huart->Init.Parity == UART_PARITY_NONE))
;;;3621       {
;;;3622         huart->RxISR = UART_RxISR_16BIT_FIFOEN;
;;;3623       }
;;;3624       else
;;;3625       {
;;;3626         huart->RxISR = UART_RxISR_8BIT_FIFOEN;
;;;3627       }
;;;3628   
;;;3629       __HAL_UNLOCK(huart);
;;;3630   
;;;3631       /* Enable the UART Parity Error interrupt and RX FIFO Threshold interrupt */
;;;3632       if (huart->Init.Parity != UART_PARITY_NONE)
;;;3633       {
;;;3634         ATOMIC_SET_BIT(huart->Instance->CR1, USART_CR1_PEIE);
;;;3635       }
;;;3636       ATOMIC_SET_BIT(huart->Instance->CR3, USART_CR3_RXFTIE);
;;;3637     }
;;;3638     else
;;;3639     {
;;;3640       /* Set the Rx ISR function pointer according to the data word length */
;;;3641       if ((huart->Init.WordLength == UART_WORDLENGTH_9B) && (huart->Init.Parity == UART_PARITY_NONE))
;;;3642       {
;;;3643         huart->RxISR = UART_RxISR_16BIT;
;;;3644       }
;;;3645       else
;;;3646       {
;;;3647         huart->RxISR = UART_RxISR_8BIT;
;;;3648       }
;;;3649   
;;;3650       __HAL_UNLOCK(huart);
;;;3651   
;;;3652       /* Enable the UART Parity Error interrupt and Data Register Not Empty interrupt */
;;;3653       if (huart->Init.Parity != UART_PARITY_NONE)
;;;3654       {
;;;3655         ATOMIC_SET_BIT(huart->Instance->CR1, USART_CR1_PEIE | USART_CR1_RXNEIE_RXFNEIE);
;;;3656       }
;;;3657       else
;;;3658       {
;;;3659         ATOMIC_SET_BIT(huart->Instance->CR1, USART_CR1_RXNEIE_RXFNEIE);
;;;3660       }
;;;3661     }
;;;3662   #else
;;;3663     /* Set the Rx ISR function pointer according to the data word length */
;;;3664     if ((huart->Init.WordLength == UART_WORDLENGTH_9B) && (huart->Init.Parity == UART_PARITY_NONE))
000050  6881              LDR      r1,[r0,#8]
000052  42a9              CMP      r1,r5
000054  d101              BNE      |L62.90|
000056  6901              LDR      r1,[r0,#0x10]
000058  b1e9              CBZ      r1,|L62.150|
                  |L62.90|
;;;3665     {
;;;3666       huart->RxISR = UART_RxISR_16BIT;
;;;3667     }
;;;3668     else
;;;3669     {
;;;3670       huart->RxISR = UART_RxISR_8BIT;
00005a  4915              LDR      r1,|L62.176|
                  |L62.92|
;;;3671     }
;;;3672   
;;;3673     __HAL_UNLOCK(huart);
00005c  6641              STR      r1,[r0,#0x64]
00005e  f8802074          STRB     r2,[r0,#0x74]
;;;3674   
;;;3675     /* Enable the UART Parity Error interrupt and Data Register Not Empty interrupt */
;;;3676     if (huart->Init.Parity != UART_PARITY_NONE)
000062  6901              LDR      r1,[r0,#0x10]
000064  b1c9              CBZ      r1,|L62.154|
                  |L62.102|
;;;3677     {
;;;3678       ATOMIC_SET_BIT(huart->Instance->CR1, USART_CR1_PEIE | USART_CR1_RXNEIE);
000066  6802              LDR      r2,[r0,#0]
000068  e8521f00          LDREX    r1,[r2,#0]
00006c  f4417190          ORR      r1,r1,#0x120
000070  e8421300          STREX    r3,r1,[r2,#0]
000074  2b00              CMP      r3,#0
000076  d1f6              BNE      |L62.102|
000078  e018              B        |L62.172|
                  |L62.122|
00007a  6901              LDR      r1,[r0,#0x10]         ;3607
00007c  b941              CBNZ     r1,|L62.144|
                  |L62.126|
00007e  f8a0305c          STRH     r3,[r0,#0x5c]         ;3607
000082  e7d7              B        |L62.52|
                  |L62.132|
000084  6901              LDR      r1,[r0,#0x10]         ;3607
000086  b119              CBZ      r1,|L62.144|
000088  213f              MOVS     r1,#0x3f              ;3607
                  |L62.138|
00008a  f8a0105c          STRH     r1,[r0,#0x5c]         ;3607
00008e  e7d1              B        |L62.52|
                  |L62.144|
000090  f8a0405c          STRH     r4,[r0,#0x5c]         ;3607
000094  e7ce              B        |L62.52|
                  |L62.150|
000096  4907              LDR      r1,|L62.180|
000098  e7e0              B        |L62.92|
                  |L62.154|
;;;3679     }
;;;3680     else
;;;3681     {
;;;3682       ATOMIC_SET_BIT(huart->Instance->CR1, USART_CR1_RXNEIE);
00009a  6802              LDR      r2,[r0,#0]
00009c  e8521f00          LDREX    r1,[r2,#0]
0000a0  f0410120          ORR      r1,r1,#0x20
0000a4  e8421300          STREX    r3,r1,[r2,#0]
0000a8  2b00              CMP      r3,#0
0000aa  d1f6              BNE      |L62.154|
                  |L62.172|
;;;3683     }
;;;3684   #endif /* USART_CR1_FIFOEN */
;;;3685     return HAL_OK;
0000ac  2000              MOVS     r0,#0
;;;3686   }
0000ae  bd30              POP      {r4,r5,pc}
;;;3687   
                          ENDP

                  |L62.176|
                          DCD      UART_RxISR_8BIT
                  |L62.180|
                          DCD      UART_RxISR_16BIT

                          AREA ||i.UART_TxISR_16BIT||, CODE, READONLY, ALIGN=1

                  UART_TxISR_16BIT PROC
;;;4226     */
;;;4227   static void UART_TxISR_16BIT(UART_HandleTypeDef *huart)
000000  6f81              LDR      r1,[r0,#0x78]
;;;4228   {
;;;4229     const uint16_t *tmp;
;;;4230   
;;;4231     /* Check that a Tx process is ongoing */
;;;4232     if (huart->gState == HAL_UART_STATE_BUSY_TX)
000002  2921              CMP      r1,#0x21
000004  d110              BNE      |L63.40|
;;;4233     {
;;;4234       if (huart->TxXferCount == 0U)
000006  f8b01052          LDRH     r1,[r0,#0x52]
00000a  b171              CBZ      r1,|L63.42|
;;;4235       {
;;;4236         /* Disable the UART Transmit Data Register Empty Interrupt */
;;;4237   #if defined(USART_CR1_FIFOEN)
;;;4238         ATOMIC_CLEAR_BIT(huart->Instance->CR1, USART_CR1_TXEIE_TXFNFIE);
;;;4239   #else
;;;4240         ATOMIC_CLEAR_BIT(huart->Instance->CR1, USART_CR1_TXEIE);
;;;4241   #endif /* USART_CR1_FIFOEN */
;;;4242   
;;;4243         /* Enable the UART Transmit Complete Interrupt */
;;;4244         ATOMIC_SET_BIT(huart->Instance->CR1, USART_CR1_TCIE);
;;;4245       }
;;;4246       else
;;;4247       {
;;;4248         tmp = (const uint16_t *) huart->pTxBuffPtr;
;;;4249         huart->Instance->TDR = (((uint32_t)(*tmp)) & 0x01FFUL);
00000c  6cc1              LDR      r1,[r0,#0x4c]
00000e  6802              LDR      r2,[r0,#0]
000010  8809              LDRH     r1,[r1,#0]
000012  f3c10108          UBFX     r1,r1,#0,#9
000016  8511              STRH     r1,[r2,#0x28]
;;;4250         huart->pTxBuffPtr += 2U;
000018  6cc1              LDR      r1,[r0,#0x4c]
00001a  1c89              ADDS     r1,r1,#2
;;;4251         huart->TxXferCount--;
00001c  64c1              STR      r1,[r0,#0x4c]
00001e  f8b01052          LDRH     r1,[r0,#0x52]
000022  1e49              SUBS     r1,r1,#1
000024  f8a01052          STRH     r1,[r0,#0x52]
                  |L63.40|
;;;4252       }
;;;4253     }
;;;4254   }
000028  4770              BX       lr
                  |L63.42|
00002a  6802              LDR      r2,[r0,#0]            ;4240
00002c  e8521f00          LDREX    r1,[r2,#0]            ;4240
000030  f0210180          BIC      r1,r1,#0x80           ;4240
000034  e8421300          STREX    r3,r1,[r2,#0]         ;4240
000038  2b00              CMP      r3,#0                 ;4240
00003a  d1f6              BNE      |L63.42|
                  |L63.60|
00003c  6802              LDR      r2,[r0,#0]            ;4244
00003e  e8521f00          LDREX    r1,[r2,#0]            ;4244
000042  f0410140          ORR      r1,r1,#0x40           ;4244
000046  e8421300          STREX    r3,r1,[r2,#0]         ;4244
00004a  2b00              CMP      r3,#0                 ;4244
00004c  d1f6              BNE      |L63.60|
00004e  4770              BX       lr
;;;4255   
                          ENDP


                          AREA ||i.UART_TxISR_8BIT||, CODE, READONLY, ALIGN=1

                  UART_TxISR_8BIT PROC
;;;4193     */
;;;4194   static void UART_TxISR_8BIT(UART_HandleTypeDef *huart)
000000  6f81              LDR      r1,[r0,#0x78]
;;;4195   {
;;;4196     /* Check that a Tx process is ongoing */
;;;4197     if (huart->gState == HAL_UART_STATE_BUSY_TX)
000002  2921              CMP      r1,#0x21
000004  d10e              BNE      |L64.36|
;;;4198     {
;;;4199       if (huart->TxXferCount == 0U)
000006  f8b01052          LDRH     r1,[r0,#0x52]
00000a  b161              CBZ      r1,|L64.38|
;;;4200       {
;;;4201         /* Disable the UART Transmit Data Register Empty Interrupt */
;;;4202   #if defined(USART_CR1_FIFOEN)
;;;4203         ATOMIC_CLEAR_BIT(huart->Instance->CR1, USART_CR1_TXEIE_TXFNFIE);
;;;4204   #else
;;;4205         ATOMIC_CLEAR_BIT(huart->Instance->CR1, USART_CR1_TXEIE);
;;;4206   #endif /* USART_CR1_FIFOEN */
;;;4207   
;;;4208         /* Enable the UART Transmit Complete Interrupt */
;;;4209         ATOMIC_SET_BIT(huart->Instance->CR1, USART_CR1_TCIE);
;;;4210       }
;;;4211       else
;;;4212       {
;;;4213         huart->Instance->TDR = (uint8_t)(*huart->pTxBuffPtr & (uint8_t)0xFF);
00000c  6cc1              LDR      r1,[r0,#0x4c]
00000e  6802              LDR      r2,[r0,#0]
000010  7809              LDRB     r1,[r1,#0]
000012  8511              STRH     r1,[r2,#0x28]
;;;4214         huart->pTxBuffPtr++;
000014  6cc1              LDR      r1,[r0,#0x4c]
000016  1c49              ADDS     r1,r1,#1
;;;4215         huart->TxXferCount--;
000018  64c1              STR      r1,[r0,#0x4c]
00001a  f8b01052          LDRH     r1,[r0,#0x52]
00001e  1e49              SUBS     r1,r1,#1
000020  f8a01052          STRH     r1,[r0,#0x52]
                  |L64.36|
;;;4216       }
;;;4217     }
;;;4218   }
000024  4770              BX       lr
                  |L64.38|
000026  6801              LDR      r1,[r0,#0]            ;4205
000028  e8512f00          LDREX    r2,[r1,#0]            ;4205
00002c  f0220280          BIC      r2,r2,#0x80           ;4205
000030  e8412300          STREX    r3,r2,[r1,#0]         ;4205
000034  2b00              CMP      r3,#0                 ;4205
000036  d1f6              BNE      |L64.38|
                  |L64.56|
000038  6802              LDR      r2,[r0,#0]            ;4209
00003a  e8521f00          LDREX    r1,[r2,#0]            ;4209
00003e  f0410140          ORR      r1,r1,#0x40           ;4209
000042  e8421300          STREX    r3,r1,[r2,#0]         ;4209
000046  2b00              CMP      r3,#0                 ;4209
000048  d1f6              BNE      |L64.56|
00004a  4770              BX       lr
;;;4219   
                          ENDP


                          AREA ||i.UART_WaitOnFlagUntilTimeout||, CODE, READONLY, ALIGN=1

                  UART_WaitOnFlagUntilTimeout PROC
;;;3526     */
;;;3527   HAL_StatusTypeDef UART_WaitOnFlagUntilTimeout(UART_HandleTypeDef *huart, uint32_t Flag, FlagStatus Status,
000000  e92d47f0          PUSH     {r4-r10,lr}
;;;3528                                                 uint32_t Tickstart, uint32_t Timeout)
;;;3529   {
000004  469a              MOV      r10,r3
000006  4617              MOV      r7,r2
000008  460e              MOV      r6,r1
00000a  4604              MOV      r4,r0
00000c  f04f0900          MOV      r9,#0
;;;3530     /* Wait until flag is set */
;;;3531     while ((__HAL_UART_GET_FLAG(huart, Flag) ? SET : RESET) == Status)
;;;3532     {
;;;3533       /* Check for the Timeout */
;;;3534       if (Timeout != HAL_MAX_DELAY)
;;;3535       {
;;;3536         if (((HAL_GetTick() - Tickstart) > Timeout) || (Timeout == 0U))
;;;3537         {
;;;3538           /* Disable TXE, RXNE, PE and ERR (Frame error, noise error, overrun error)
;;;3539              interrupts for the interrupt process */
;;;3540   #if defined(USART_CR1_FIFOEN)
;;;3541           ATOMIC_CLEAR_BIT(huart->Instance->CR1, (USART_CR1_RXNEIE_RXFNEIE | USART_CR1_PEIE |
;;;3542                                                   USART_CR1_TXEIE_TXFNFIE));
;;;3543   #else
;;;3544           ATOMIC_CLEAR_BIT(huart->Instance->CR1, (USART_CR1_RXNEIE | USART_CR1_PEIE | USART_CR1_TXEIE));
;;;3545   #endif /* USART_CR1_FIFOEN */
;;;3546           ATOMIC_CLEAR_BIT(huart->Instance->CR3, USART_CR3_EIE);
;;;3547   
;;;3548           huart->gState = HAL_UART_STATE_READY;
000010  f04f0820          MOV      r8,#0x20
;;;3549           huart->RxState = HAL_UART_STATE_READY;
;;;3550   
;;;3551           __HAL_UNLOCK(huart);
;;;3552   
;;;3553           return HAL_TIMEOUT;
;;;3554         }
;;;3555   
;;;3556         if (READ_BIT(huart->Instance->CR1, USART_CR1_RE) != 0U)
;;;3557         {
;;;3558           if (__HAL_UART_GET_FLAG(huart, UART_FLAG_RTOF) == SET)
;;;3559           {
;;;3560             /* Clear Receiver Timeout flag*/
;;;3561             __HAL_UART_CLEAR_FLAG(huart, UART_CLEAR_RTOF);
;;;3562   
;;;3563             /* Disable TXE, RXNE, PE and ERR (Frame error, noise error, overrun error)
;;;3564                interrupts for the interrupt process */
;;;3565   #if defined(USART_CR1_FIFOEN)
;;;3566             ATOMIC_CLEAR_BIT(huart->Instance->CR1, (USART_CR1_RXNEIE_RXFNEIE | USART_CR1_PEIE |
;;;3567                                                     USART_CR1_TXEIE_TXFNFIE));
;;;3568   #else
;;;3569             ATOMIC_CLEAR_BIT(huart->Instance->CR1, (USART_CR1_RXNEIE | USART_CR1_PEIE | USART_CR1_TXEIE));
;;;3570   #endif /* USART_CR1_FIFOEN */
;;;3571             ATOMIC_CLEAR_BIT(huart->Instance->CR3, USART_CR3_EIE);
;;;3572   
;;;3573             huart->gState = HAL_UART_STATE_READY;
;;;3574             huart->RxState = HAL_UART_STATE_READY;
;;;3575             huart->ErrorCode = HAL_UART_ERROR_RTO;
;;;3576   
;;;3577             /* Process Unlocked */
;;;3578             __HAL_UNLOCK(huart);
;;;3579   
;;;3580             return HAL_TIMEOUT;
000014  9d08              LDR      r5,[sp,#0x20]
000016  e04a              B        |L65.174|
                  |L65.24|
000018  1c68              ADDS     r0,r5,#1              ;3534
00001a  d048              BEQ      |L65.174|
00001c  f7fffffe          BL       HAL_GetTick
000020  eba0000a          SUB      r0,r0,r10             ;3536
000024  42a8              CMP      r0,r5                 ;3536
000026  d82a              BHI      |L65.126|
000028  b34d              CBZ      r5,|L65.126|
00002a  6820              LDR      r0,[r4,#0]            ;3556
00002c  6801              LDR      r1,[r0,#0]            ;3556
00002e  0749              LSLS     r1,r1,#29             ;3556
000030  d53d              BPL      |L65.174|
000032  69c0              LDR      r0,[r0,#0x1c]         ;3558
000034  43c0              MVNS     r0,r0                 ;3558
000036  0500              LSLS     r0,r0,#20             ;3558
000038  d439              BMI      |L65.174|
00003a  6821              LDR      r1,[r4,#0]            ;3561
00003c  f44f6000          MOV      r0,#0x800             ;3561
000040  6208              STR      r0,[r1,#0x20]         ;3561
                  |L65.66|
000042  6820              LDR      r0,[r4,#0]            ;3569
000044  e8501f00          LDREX    r1,[r0,#0]            ;3569
000048  f42171d0          BIC      r1,r1,#0x1a0          ;3569
00004c  e8401200          STREX    r2,r1,[r0,#0]         ;3569
000050  2a00              CMP      r2,#0                 ;3569
000052  d1f6              BNE      |L65.66|
                  |L65.84|
000054  6820              LDR      r0,[r4,#0]            ;3571
000056  3008              ADDS     r0,r0,#8              ;3571
000058  e8501f00          LDREX    r1,[r0,#0]            ;3571
00005c  f0210101          BIC      r1,r1,#1              ;3571
000060  e8401200          STREX    r2,r1,[r0,#0]         ;3571
000064  2a00              CMP      r2,#0                 ;3571
000066  d1f5              BNE      |L65.84|
000068  f8c48078          STR      r8,[r4,#0x78]         ;3573
00006c  f8c4807c          STR      r8,[r4,#0x7c]         ;3574
000070  f8c48080          STR      r8,[r4,#0x80]         ;3575
                  |L65.116|
000074  f8849074          STRB     r9,[r4,#0x74]         ;3578
000078  2003              MOVS     r0,#3
                  |L65.122|
;;;3581           }
;;;3582         }
;;;3583       }
;;;3584     }
;;;3585     return HAL_OK;
;;;3586   }
00007a  e8bd87f0          POP      {r4-r10,pc}
                  |L65.126|
00007e  6821              LDR      r1,[r4,#0]            ;3544
000080  e8510f00          LDREX    r0,[r1,#0]            ;3544
000084  f42070d0          BIC      r0,r0,#0x1a0          ;3544
000088  e8410200          STREX    r2,r0,[r1,#0]         ;3544
00008c  2a00              CMP      r2,#0                 ;3544
00008e  d1f6              BNE      |L65.126|
                  |L65.144|
000090  6820              LDR      r0,[r4,#0]            ;3546
000092  3008              ADDS     r0,r0,#8              ;3546
000094  e8501f00          LDREX    r1,[r0,#0]            ;3546
000098  f0210101          BIC      r1,r1,#1              ;3546
00009c  e8401200          STREX    r2,r1,[r0,#0]         ;3546
0000a0  2a00              CMP      r2,#0                 ;3546
0000a2  d1f5              BNE      |L65.144|
0000a4  f8c48078          STR      r8,[r4,#0x78]         ;3548
0000a8  f8c4807c          STR      r8,[r4,#0x7c]         ;3549
0000ac  e7e2              B        |L65.116|
                  |L65.174|
0000ae  6820              LDR      r0,[r4,#0]            ;3531
0000b0  69c0              LDR      r0,[r0,#0x1c]         ;3531
0000b2  ea360000          BICS     r0,r6,r0              ;3531
0000b6  d004              BEQ      |L65.194|
0000b8  2000              MOVS     r0,#0                 ;3531
                  |L65.186|
0000ba  42b8              CMP      r0,r7                 ;3531
0000bc  d0ac              BEQ      |L65.24|
0000be  2000              MOVS     r0,#0                 ;3585
0000c0  e7db              B        |L65.122|
                  |L65.194|
0000c2  2001              MOVS     r0,#1                 ;3531
0000c4  e7f9              B        |L65.186|
;;;3587   
                          ENDP


;*** Start embedded assembler ***

#line 1 "../Drivers/STM32L4xx_HAL_Driver/Src/stm32l4xx_hal_uart.c"
	AREA ||.rev16_text||, CODE
	THUMB
	EXPORT |__asm___20_stm32l4xx_hal_uart_c_d497114f____REV16|
#line 492 "../Drivers/CMSIS/Include/cmsis_armcc.h"
|__asm___20_stm32l4xx_hal_uart_c_d497114f____REV16| PROC
#line 493

 rev16 r0, r0
 bx lr
	ENDP
	AREA ||.revsh_text||, CODE
	THUMB
	EXPORT |__asm___20_stm32l4xx_hal_uart_c_d497114f____REVSH|
#line 507
|__asm___20_stm32l4xx_hal_uart_c_d497114f____REVSH| PROC
#line 508

 revsh r0, r0
 bx lr
	ENDP
	AREA ||.rrx_text||, CODE
	THUMB
	EXPORT |__asm___20_stm32l4xx_hal_uart_c_d497114f____RRX|
#line 694
|__asm___20_stm32l4xx_hal_uart_c_d497114f____RRX| PROC
#line 695

 rrx r0, r0
 bx lr
	ENDP

;*** End   embedded assembler ***
