; generated by Component: ARM Compiler 5.06 update 6 (build 750) Tool: ArmCC [4d3637]
; commandline ArmCC [--c99 --split_sections --debug -c --asm --interleave -osmart_tracker_datn_nas\stm32l4xx_hal_rcc.o --asm_dir=./ --list_dir=--list --depend=smart_tracker_datn_nas\stm32l4xx_hal_rcc.d --cpu=Cortex-M4.fp --apcs=interwork -O3 --diag_suppress=9931 -I../Core/Inc -I../Drivers/STM32L4xx_HAL_Driver/Inc -I../Drivers/STM32L4xx_HAL_Driver/Inc/Legacy -I../Drivers/CMSIS/Device/ST/STM32L4xx/Include -I../Drivers/CMSIS/Include -I../Lib/BSP -I../Lib/Driver_Custom -I../Lib/Services/StorageManager -I../Lib/Task -I../Lib/Utils -I../Middlewares/Third_Party/FreeRTOS/Source/include -I../Middlewares/Third_Party/FreeRTOS/Source/CMSIS_RTOS -I../Middlewares/Third_Party/FreeRTOS/Source/portable/RVDS/ARM_CM4F -I.\RTE\_Smart_tracker_DATN_NAS -ID:\Keil_C\ARM\CMSIS\5.5.1\CMSIS\Core\Include -ID:\Keil_C\Keil\STM32L4xx_DFP\2.2.0\Drivers\CMSIS\Device\ST\STM32L4xx\Include -D__UVISION_VERSION=528 -D_RTE_ -DSTM32L431xx -DUSE_HAL_DRIVER -DSTM32L431xx --omf_browse=smart_tracker_datn_nas\stm32l4xx_hal_rcc.crf ../Drivers/STM32L4xx_HAL_Driver/Src/stm32l4xx_hal_rcc.c]
                          THUMB

                          AREA ||i.HAL_RCC_CSSCallback||, CODE, READONLY, ALIGN=1

                  HAL_RCC_CSSCallback PROC
;;;1740     */
;;;1741   __weak void HAL_RCC_CSSCallback(void)
000000  4770              BX       lr
;;;1742   {
;;;1743     /* NOTE : This function should not be modified, when the callback is needed,
;;;1744               the HAL_RCC_CSSCallback should be implemented in the user file
;;;1745      */
;;;1746   }
;;;1747   
                          ENDP


                          AREA ||i.HAL_RCC_ClockConfig||, CODE, READONLY, ALIGN=2

                  HAL_RCC_ClockConfig PROC
;;;1094     */
;;;1095   HAL_StatusTypeDef HAL_RCC_ClockConfig(RCC_ClkInitTypeDef  *RCC_ClkInitStruct, uint32_t FLatency)
000000  e92d47f0          PUSH     {r4-r10,lr}
;;;1096   {
000004  460f              MOV      r7,r1
000006  0005              MOVS     r5,r0
000008  d06b              BEQ      |L2.226|
;;;1097     uint32_t tickstart;
;;;1098   #if defined(STM32L4P5xx) || defined(STM32L4Q5xx) || \
;;;1099       defined(STM32L4R5xx) || defined(STM32L4R7xx) || defined(STM32L4R9xx) || defined(STM32L4S5xx) || defined(STM32L4S7xx) || defined(STM32L4S9xx)
;;;1100     uint32_t hpre = RCC_SYSCLK_DIV1;
;;;1101   #endif
;;;1102     HAL_StatusTypeDef status;
;;;1103   
;;;1104     /* Check Null pointer */
;;;1105     if(RCC_ClkInitStruct == NULL)
;;;1106     {
;;;1107       return HAL_ERROR;
;;;1108     }
;;;1109   
;;;1110     /* Check the parameters */
;;;1111     assert_param(IS_RCC_CLOCKTYPE(RCC_ClkInitStruct->ClockType));
;;;1112     assert_param(IS_FLASH_LATENCY(FLatency));
;;;1113   
;;;1114     /* To correctly read data from FLASH memory, the number of wait states (LATENCY)
;;;1115       must be correctly programmed according to the frequency of the CPU clock
;;;1116       (HCLK) and the supply voltage of the device. */
;;;1117   
;;;1118     /* Increasing the number of wait states because of higher CPU frequency */
;;;1119     if(FLatency > __HAL_FLASH_GET_LATENCY())
00000a  4e49              LDR      r6,|L2.304|
00000c  6830              LDR      r0,[r6,#0]
00000e  f0000007          AND      r0,r0,#7
000012  42b8              CMP      r0,r7
000014  d209              BCS      |L2.42|
;;;1120     {
;;;1121       /* Program the new number of wait states to the LATENCY bits in the FLASH_ACR register */
;;;1122       __HAL_FLASH_SET_LATENCY(FLatency);
000016  6830              LDR      r0,[r6,#0]
000018  f0200007          BIC      r0,r0,#7
00001c  4338              ORRS     r0,r0,r7
00001e  6030              STR      r0,[r6,#0]
;;;1123   
;;;1124       /* Check that the new number of wait states is taken into account to access the Flash
;;;1125       memory by reading the FLASH_ACR register */
;;;1126       if(__HAL_FLASH_GET_LATENCY() != FLatency)
000020  6830              LDR      r0,[r6,#0]
000022  f0000007          AND      r0,r0,#7
000026  42b8              CMP      r0,r7
000028  d15b              BNE      |L2.226|
                  |L2.42|
;;;1127       {
;;;1128         return HAL_ERROR;
;;;1129       }
;;;1130     }
;;;1131   
;;;1132     /*----------------- HCLK Configuration prior to SYSCLK----------------------*/
;;;1133     /* Apply higher HCLK prescaler request here to ensure CPU clock is not of of spec when SYSCLK is increased */
;;;1134     if(((RCC_ClkInitStruct->ClockType) & RCC_CLOCKTYPE_HCLK) == RCC_CLOCKTYPE_HCLK)
00002a  7828              LDRB     r0,[r5,#0]
;;;1135     {
;;;1136       assert_param(IS_RCC_HCLK(RCC_ClkInitStruct->AHBCLKDivider));
;;;1137   
;;;1138       if(RCC_ClkInitStruct->AHBCLKDivider > READ_BIT(RCC->CFGR, RCC_CFGR_HPRE))
00002c  4c41              LDR      r4,|L2.308|
00002e  0780              LSLS     r0,r0,#30             ;1134
000030  d50a              BPL      |L2.72|
000032  68a8              LDR      r0,[r5,#8]
000034  68a1              LDR      r1,[r4,#8]
000036  f00101f0          AND      r1,r1,#0xf0
00003a  4288              CMP      r0,r1
00003c  d904              BLS      |L2.72|
;;;1139       {
;;;1140         MODIFY_REG(RCC->CFGR, RCC_CFGR_HPRE, RCC_ClkInitStruct->AHBCLKDivider);
00003e  68a1              LDR      r1,[r4,#8]
000040  f02101f0          BIC      r1,r1,#0xf0
000044  4301              ORRS     r1,r1,r0
000046  60a1              STR      r1,[r4,#8]
                  |L2.72|
;;;1141       }
;;;1142     }
;;;1143   
;;;1144     /*------------------------- SYSCLK Configuration ---------------------------*/
;;;1145     if(((RCC_ClkInitStruct->ClockType) & RCC_CLOCKTYPE_SYSCLK) == RCC_CLOCKTYPE_SYSCLK)
000048  7828              LDRB     r0,[r5,#0]
00004a  07c0              LSLS     r0,r0,#31
00004c  d02c              BEQ      |L2.168|
;;;1146     {
;;;1147       assert_param(IS_RCC_SYSCLKSOURCE(RCC_ClkInitStruct->SYSCLKSource));
;;;1148   
;;;1149       /* PLL is selected as System Clock Source */
;;;1150       if(RCC_ClkInitStruct->SYSCLKSource == RCC_SYSCLKSOURCE_PLLCLK)
00004e  6868              LDR      r0,[r5,#4]
000050  2803              CMP      r0,#3
000052  d011              BEQ      |L2.120|
;;;1151       {
;;;1152         /* Check the PLL ready flag */
;;;1153         if(READ_BIT(RCC->CR, RCC_CR_PLLRDY) == 0U)
;;;1154         {
;;;1155           return HAL_ERROR;
;;;1156         }
;;;1157   #if defined(STM32L4P5xx) || defined(STM32L4Q5xx) || \
;;;1158       defined(STM32L4R5xx) || defined(STM32L4R7xx) || defined(STM32L4R9xx) || defined(STM32L4S5xx) || defined(STM32L4S7xx) || defined(STM32L4S9xx)
;;;1159         /* Undershoot management when selection PLL as SYSCLK source and frequency above 80Mhz */
;;;1160         /* Compute target PLL output frequency */
;;;1161         if(RCC_GetSysClockFreqFromPLLSource() > 80000000U)
;;;1162         {
;;;1163           /* If lowest HCLK prescaler, apply intermediate step with HCLK prescaler 2 necessary before to go over 80Mhz */
;;;1164           if(READ_BIT(RCC->CFGR, RCC_CFGR_HPRE) == RCC_SYSCLK_DIV1)
;;;1165           {
;;;1166             MODIFY_REG(RCC->CFGR, RCC_CFGR_HPRE, RCC_SYSCLK_DIV2);
;;;1167             hpre = RCC_SYSCLK_DIV2;
;;;1168           }
;;;1169         }
;;;1170   #endif
;;;1171       }
;;;1172       else
;;;1173       {
;;;1174         /* HSE is selected as System Clock Source */
;;;1175         if(RCC_ClkInitStruct->SYSCLKSource == RCC_SYSCLKSOURCE_HSE)
000054  2802              CMP      r0,#2
000056  d012              BEQ      |L2.126|
;;;1176         {
;;;1177           /* Check the HSE ready flag */
;;;1178           if(READ_BIT(RCC->CR, RCC_CR_HSERDY) == 0U)
;;;1179           {
;;;1180             return HAL_ERROR;
;;;1181           }
;;;1182         }
;;;1183         /* MSI is selected as System Clock Source */
;;;1184         else if(RCC_ClkInitStruct->SYSCLKSource == RCC_SYSCLKSOURCE_MSI)
;;;1185         {
;;;1186           /* Check the MSI ready flag */
;;;1187           if(READ_BIT(RCC->CR, RCC_CR_MSIRDY) == 0U)
;;;1188           {
;;;1189             return HAL_ERROR;
;;;1190           }
;;;1191         }
;;;1192         /* HSI is selected as System Clock Source */
;;;1193         else
;;;1194         {
;;;1195           /* Check the HSI ready flag */
;;;1196           if(READ_BIT(RCC->CR, RCC_CR_HSIRDY) == 0U)
000058  6821              LDR      r1,[r4,#0]
00005a  b198              CBZ      r0,|L2.132|
00005c  0549              LSLS     r1,r1,#21
                  |L2.94|
00005e  2900              CMP      r1,#0
000060  da3f              BGE      |L2.226|
;;;1197           {
;;;1198             return HAL_ERROR;
;;;1199           }
;;;1200         }
;;;1201   #if defined(STM32L4P5xx) || defined(STM32L4Q5xx) || \
;;;1202       defined(STM32L4R5xx) || defined(STM32L4R7xx) || defined(STM32L4R9xx) || defined(STM32L4S5xx) || defined(STM32L4S7xx) || defined(STM32L4S9xx)
;;;1203         /* Overshoot management when going down from PLL as SYSCLK source and frequency above 80Mhz */
;;;1204         if(HAL_RCC_GetSysClockFreq() > 80000000U)
;;;1205         {
;;;1206           /* If lowest HCLK prescaler, apply intermediate step with HCLK prescaler 2 necessary before to go under 80Mhz */
;;;1207           if(READ_BIT(RCC->CFGR, RCC_CFGR_HPRE) == RCC_SYSCLK_DIV1)
;;;1208           {
;;;1209             MODIFY_REG(RCC->CFGR, RCC_CFGR_HPRE, RCC_SYSCLK_DIV2);
;;;1210             hpre = RCC_SYSCLK_DIV2;
;;;1211           }
;;;1212         }
;;;1213   #endif
;;;1214   
;;;1215       }
;;;1216   
;;;1217       MODIFY_REG(RCC->CFGR, RCC_CFGR_SW, RCC_ClkInitStruct->SYSCLKSource);
000062  68a1              LDR      r1,[r4,#8]
000064  f0210103          BIC      r1,r1,#3
000068  4301              ORRS     r1,r1,r0
00006a  60a1              STR      r1,[r4,#8]
;;;1218   
;;;1219       /* Get Start Tick*/
;;;1220       tickstart = HAL_GetTick();
00006c  f7fffffe          BL       HAL_GetTick
000070  4680              MOV      r8,r0
;;;1221   
;;;1222       while(__HAL_RCC_GET_SYSCLK_SOURCE() != (RCC_ClkInitStruct->SYSCLKSource << RCC_CFGR_SWS_Pos))
;;;1223       {
;;;1224         if((HAL_GetTick() - tickstart) > CLOCKSWITCH_TIMEOUT_VALUE)
000072  f2413988          MOV      r9,#0x1388
000076  e010              B        |L2.154|
                  |L2.120|
000078  6821              LDR      r1,[r4,#0]            ;1153
00007a  0189              LSLS     r1,r1,#6              ;1153
00007c  e7ef              B        |L2.94|
                  |L2.126|
00007e  6821              LDR      r1,[r4,#0]            ;1178
000080  0389              LSLS     r1,r1,#14             ;1178
000082  e7ec              B        |L2.94|
                  |L2.132|
000084  0789              LSLS     r1,r1,#30             ;1187
000086  e7ea              B        |L2.94|
                  |L2.136|
000088  f7fffffe          BL       HAL_GetTick
00008c  eba00108          SUB      r1,r0,r8
000090  4549              CMP      r1,r9
000092  d902              BLS      |L2.154|
;;;1225         {
;;;1226           return HAL_TIMEOUT;
000094  2003              MOVS     r0,#3
                  |L2.150|
;;;1227         }
;;;1228       }
;;;1229     }
;;;1230   
;;;1231   #if defined(STM32L4P5xx) || defined(STM32L4Q5xx) || \
;;;1232       defined(STM32L4R5xx) || defined(STM32L4R7xx) || defined(STM32L4R9xx) || defined(STM32L4S5xx) || defined(STM32L4S7xx) || defined(STM32L4S9xx)
;;;1233     /* Is intermediate HCLK prescaler 2 applied internally, resume with HCLK prescaler 1 */
;;;1234     if(hpre == RCC_SYSCLK_DIV2)
;;;1235     {
;;;1236       MODIFY_REG(RCC->CFGR, RCC_CFGR_HPRE, RCC_SYSCLK_DIV1);
;;;1237     }
;;;1238   #endif
;;;1239   
;;;1240     /*----------------- HCLK Configuration after SYSCLK-------------------------*/
;;;1241     /* Apply lower HCLK prescaler request here to ensure CPU clock is not of of spec when SYSCLK is set */
;;;1242     if(((RCC_ClkInitStruct->ClockType) & RCC_CLOCKTYPE_HCLK) == RCC_CLOCKTYPE_HCLK)
;;;1243     {
;;;1244       if(RCC_ClkInitStruct->AHBCLKDivider < READ_BIT(RCC->CFGR, RCC_CFGR_HPRE))
;;;1245       {
;;;1246         MODIFY_REG(RCC->CFGR, RCC_CFGR_HPRE, RCC_ClkInitStruct->AHBCLKDivider);
;;;1247       }
;;;1248     }
;;;1249   
;;;1250     /* Allow decreasing of the number of wait states (because of lower CPU frequency expected) */
;;;1251     if(FLatency < __HAL_FLASH_GET_LATENCY())
;;;1252     {
;;;1253       /* Program the new number of wait states to the LATENCY bits in the FLASH_ACR register */
;;;1254       __HAL_FLASH_SET_LATENCY(FLatency);
;;;1255   
;;;1256       /* Check that the new number of wait states is taken into account to access the Flash
;;;1257       memory by reading the FLASH_ACR register */
;;;1258       if(__HAL_FLASH_GET_LATENCY() != FLatency)
;;;1259       {
;;;1260         return HAL_ERROR;
;;;1261       }
;;;1262     }
;;;1263   
;;;1264     /*-------------------------- PCLK1 Configuration ---------------------------*/
;;;1265     if(((RCC_ClkInitStruct->ClockType) & RCC_CLOCKTYPE_PCLK1) == RCC_CLOCKTYPE_PCLK1)
;;;1266     {
;;;1267       assert_param(IS_RCC_PCLK(RCC_ClkInitStruct->APB1CLKDivider));
;;;1268       MODIFY_REG(RCC->CFGR, RCC_CFGR_PPRE1, RCC_ClkInitStruct->APB1CLKDivider);
;;;1269     }
;;;1270   
;;;1271     /*-------------------------- PCLK2 Configuration ---------------------------*/
;;;1272     if(((RCC_ClkInitStruct->ClockType) & RCC_CLOCKTYPE_PCLK2) == RCC_CLOCKTYPE_PCLK2)
;;;1273     {
;;;1274       assert_param(IS_RCC_PCLK(RCC_ClkInitStruct->APB2CLKDivider));
;;;1275       MODIFY_REG(RCC->CFGR, RCC_CFGR_PPRE2, ((RCC_ClkInitStruct->APB2CLKDivider) << 3U));
;;;1276     }
;;;1277   
;;;1278     /* Update the SystemCoreClock global variable */
;;;1279     SystemCoreClock = HAL_RCC_GetSysClockFreq() >> (AHBPrescTable[READ_BIT(RCC->CFGR, RCC_CFGR_HPRE) >> RCC_CFGR_HPRE_Pos] & 0x1FU);
;;;1280   
;;;1281     /* Configure the source of time base considering new system clocks settings*/
;;;1282     status = HAL_InitTick(uwTickPrio);
;;;1283   
;;;1284     return status;
;;;1285   }
000096  e8bd87f0          POP      {r4-r10,pc}
                  |L2.154|
00009a  68a0              LDR      r0,[r4,#8]            ;1222
00009c  6869              LDR      r1,[r5,#4]            ;1222
00009e  f000000c          AND      r0,r0,#0xc            ;1222
0000a2  ebb00f81          CMP      r0,r1,LSL #2          ;1222
0000a6  d1ef              BNE      |L2.136|
                  |L2.168|
0000a8  7828              LDRB     r0,[r5,#0]            ;1242
0000aa  0780              LSLS     r0,r0,#30             ;1242
0000ac  d50a              BPL      |L2.196|
0000ae  68a8              LDR      r0,[r5,#8]            ;1244
0000b0  68a1              LDR      r1,[r4,#8]            ;1244
0000b2  f00101f0          AND      r1,r1,#0xf0           ;1244
0000b6  4288              CMP      r0,r1                 ;1244
0000b8  d204              BCS      |L2.196|
0000ba  68a1              LDR      r1,[r4,#8]            ;1246
0000bc  f02101f0          BIC      r1,r1,#0xf0           ;1246
0000c0  4301              ORRS     r1,r1,r0              ;1246
0000c2  60a1              STR      r1,[r4,#8]            ;1246
                  |L2.196|
0000c4  6830              LDR      r0,[r6,#0]            ;1251
0000c6  f0000007          AND      r0,r0,#7              ;1251
0000ca  42b8              CMP      r0,r7                 ;1251
0000cc  d90b              BLS      |L2.230|
0000ce  6830              LDR      r0,[r6,#0]            ;1254
0000d0  f0200007          BIC      r0,r0,#7              ;1254
0000d4  4338              ORRS     r0,r0,r7              ;1254
0000d6  6030              STR      r0,[r6,#0]            ;1254
0000d8  6830              LDR      r0,[r6,#0]            ;1258
0000da  f0000007          AND      r0,r0,#7              ;1258
0000de  42b8              CMP      r0,r7                 ;1258
0000e0  d001              BEQ      |L2.230|
                  |L2.226|
0000e2  2001              MOVS     r0,#1                 ;1260
0000e4  e7d7              B        |L2.150|
                  |L2.230|
0000e6  7828              LDRB     r0,[r5,#0]            ;1265
0000e8  0740              LSLS     r0,r0,#29             ;1265
0000ea  d505              BPL      |L2.248|
0000ec  68a0              LDR      r0,[r4,#8]            ;1268
0000ee  68e9              LDR      r1,[r5,#0xc]          ;1268
0000f0  f42060e0          BIC      r0,r0,#0x700          ;1268
0000f4  4308              ORRS     r0,r0,r1              ;1268
0000f6  60a0              STR      r0,[r4,#8]            ;1268
                  |L2.248|
0000f8  7828              LDRB     r0,[r5,#0]            ;1272
0000fa  0700              LSLS     r0,r0,#28             ;1272
0000fc  d506              BPL      |L2.268|
0000fe  68a0              LDR      r0,[r4,#8]            ;1275
000100  6929              LDR      r1,[r5,#0x10]         ;1275
000102  f4205060          BIC      r0,r0,#0x3800         ;1275
000106  ea4000c1          ORR      r0,r0,r1,LSL #3       ;1275
00010a  60a0              STR      r0,[r4,#8]            ;1275
                  |L2.268|
00010c  f7fffffe          BL       HAL_RCC_GetSysClockFreq
000110  68a1              LDR      r1,[r4,#8]            ;1279
000112  4a09              LDR      r2,|L2.312|
000114  f3c11103          UBFX     r1,r1,#4,#4           ;1279
000118  5c51              LDRB     r1,[r2,r1]            ;1279
00011a  f001011f          AND      r1,r1,#0x1f           ;1279
00011e  40c8              LSRS     r0,r0,r1              ;1279
000120  4906              LDR      r1,|L2.316|
000122  6008              STR      r0,[r1,#0]            ;1282  ; SystemCoreClock
000124  4806              LDR      r0,|L2.320|
000126  6800              LDR      r0,[r0,#0]            ;1282  ; uwTickPrio
000128  e8bd47f0          POP      {r4-r10,lr}           ;1282
00012c  f7ffbffe          B.W      HAL_InitTick
;;;1286   
                          ENDP

                  |L2.304|
                          DCD      0x40022000
                  |L2.308|
                          DCD      0x40021000
                  |L2.312|
                          DCD      AHBPrescTable
                  |L2.316|
                          DCD      SystemCoreClock
                  |L2.320|
                          DCD      uwTickPrio

                          AREA ||i.HAL_RCC_DeInit||, CODE, READONLY, ALIGN=2

                  HAL_RCC_DeInit PROC
;;;264      */
;;;265    HAL_StatusTypeDef HAL_RCC_DeInit(void)
000000  e92d41f0          PUSH     {r4-r8,lr}
;;;266    {
;;;267      uint32_t tickstart;
;;;268    
;;;269      /* Reset to default System clock */
;;;270      /* Set MSION bit */
;;;271      SET_BIT(RCC->CR, RCC_CR_MSION);
000004  4c31              LDR      r4,|L3.204|
000006  6820              LDR      r0,[r4,#0]
000008  f0400001          ORR      r0,r0,#1
00000c  6020              STR      r0,[r4,#0]
;;;272    
;;;273      /* Insure MSIRDY bit is set before writing default MSIRANGE value */
;;;274      /* Get start tick */
;;;275      tickstart = HAL_GetTick();
00000e  f7fffffe          BL       HAL_GetTick
000012  4605              MOV      r5,r0
;;;276    
;;;277      /* Wait till MSI is ready */
;;;278      while(READ_BIT(RCC->CR, RCC_CR_MSIRDY) == 0U)
000014  e005              B        |L3.34|
;;;279      {
;;;280        if((HAL_GetTick() - tickstart) > MSI_TIMEOUT_VALUE)
000016  bf00              NOP      
                  |L3.24|
000018  f7fffffe          BL       HAL_GetTick
00001c  1b40              SUBS     r0,r0,r5
00001e  2802              CMP      r0,#2
000020  d833              BHI      |L3.138|
                  |L3.34|
000022  6820              LDR      r0,[r4,#0]            ;278
000024  0780              LSLS     r0,r0,#30             ;278
000026  d5f7              BPL      |L3.24|
;;;281        {
;;;282          return HAL_TIMEOUT;
;;;283        }
;;;284      }
;;;285    
;;;286      /* Set MSIRANGE default value */
;;;287      MODIFY_REG(RCC->CR, RCC_CR_MSIRANGE, RCC_MSIRANGE_6);
000028  6820              LDR      r0,[r4,#0]
00002a  f02000f0          BIC      r0,r0,#0xf0
00002e  f0400060          ORR      r0,r0,#0x60
000032  6020              STR      r0,[r4,#0]
;;;288    
;;;289      /* Reset CFGR register (MSI is selected as system clock source) */
;;;290      CLEAR_REG(RCC->CFGR);
000034  2500              MOVS     r5,#0
000036  60a5              STR      r5,[r4,#8]
;;;291    
;;;292      /* Update the SystemCoreClock global variable for MSI as system clock source */
;;;293      SystemCoreClock = MSI_VALUE;
000038  4926              LDR      r1,|L3.212|
00003a  4825              LDR      r0,|L3.208|
;;;294    
;;;295      /* Configure the source of time base considering new system clock settings  */
;;;296      if(HAL_InitTick(uwTickPrio) != HAL_OK)
00003c  6008              STR      r0,[r1,#0]  ; SystemCoreClock
00003e  4826              LDR      r0,|L3.216|
000040  6800              LDR      r0,[r0,#0]  ; uwTickPrio
000042  f7fffffe          BL       HAL_InitTick
000046  b110              CBZ      r0,|L3.78|
;;;297      {
;;;298        return HAL_ERROR;
000048  2001              MOVS     r0,#1
                  |L3.74|
;;;299      }
;;;300    
;;;301      /* Insure MSI selected as system clock source */
;;;302      /* Get start tick */
;;;303      tickstart = HAL_GetTick();
;;;304    
;;;305      /* Wait till system clock source is ready */
;;;306      while(READ_BIT(RCC->CFGR, RCC_CFGR_SWS) != RCC_CFGR_SWS_MSI)
;;;307      {
;;;308        if((HAL_GetTick() - tickstart) > CLOCKSWITCH_TIMEOUT_VALUE)
;;;309        {
;;;310          return HAL_TIMEOUT;
;;;311        }
;;;312      }
;;;313    
;;;314      /* Reset HSION, HSIKERON, HSIASFS, HSEON, HSECSSON, PLLON, PLLSAIxON bits */
;;;315    #if defined(RCC_PLLSAI2_SUPPORT)
;;;316    
;;;317      CLEAR_BIT(RCC->CR, RCC_CR_HSEON | RCC_CR_HSION | RCC_CR_HSIKERON| RCC_CR_HSIASFS | RCC_CR_PLLON | RCC_CR_PLLSAI1ON | RCC_CR_PLLSAI2ON);
;;;318    
;;;319    #elif defined(RCC_PLLSAI1_SUPPORT)
;;;320    
;;;321      CLEAR_BIT(RCC->CR, RCC_CR_HSEON | RCC_CR_HSION | RCC_CR_HSIKERON| RCC_CR_HSIASFS | RCC_CR_PLLON | RCC_CR_PLLSAI1ON);
;;;322    
;;;323    #else
;;;324    
;;;325      CLEAR_BIT(RCC->CR, RCC_CR_HSEON | RCC_CR_HSION | RCC_CR_HSIKERON| RCC_CR_HSIASFS | RCC_CR_PLLON);
;;;326    
;;;327    #endif /* RCC_PLLSAI2_SUPPORT */
;;;328    
;;;329      /* Insure PLLRDY, PLLSAI1RDY and PLLSAI2RDY (if present) are reset */
;;;330      /* Get start tick */
;;;331      tickstart = HAL_GetTick();
;;;332    
;;;333    #if defined(RCC_PLLSAI2_SUPPORT)
;;;334    
;;;335      while(READ_BIT(RCC->CR, RCC_CR_PLLRDY | RCC_CR_PLLSAI1RDY | RCC_CR_PLLSAI2RDY) != 0U)
;;;336    
;;;337    #elif defined(RCC_PLLSAI1_SUPPORT)
;;;338    
;;;339      while(READ_BIT(RCC->CR, RCC_CR_PLLRDY | RCC_CR_PLLSAI1RDY) != 0U)
;;;340    
;;;341    #else
;;;342    
;;;343      while(READ_BIT(RCC->CR, RCC_CR_PLLRDY) != 0U)
;;;344    
;;;345    #endif
;;;346      {
;;;347        if((HAL_GetTick() - tickstart) > PLL_TIMEOUT_VALUE)
;;;348        {
;;;349          return HAL_TIMEOUT;
;;;350        }
;;;351      }
;;;352    
;;;353      /* Reset PLLCFGR register */
;;;354      CLEAR_REG(RCC->PLLCFGR);
;;;355      SET_BIT(RCC->PLLCFGR, RCC_PLLCFGR_PLLN_4 );
;;;356    
;;;357    #if defined(RCC_PLLSAI1_SUPPORT)
;;;358    
;;;359      /* Reset PLLSAI1CFGR register */
;;;360      CLEAR_REG(RCC->PLLSAI1CFGR);
;;;361      SET_BIT(RCC->PLLSAI1CFGR,  RCC_PLLSAI1CFGR_PLLSAI1N_4 );
;;;362    
;;;363    #endif /* RCC_PLLSAI1_SUPPORT */
;;;364    
;;;365    #if defined(RCC_PLLSAI2_SUPPORT)
;;;366    
;;;367      /* Reset PLLSAI2CFGR register */
;;;368      CLEAR_REG(RCC->PLLSAI2CFGR);
;;;369      SET_BIT(RCC->PLLSAI2CFGR,  RCC_PLLSAI2CFGR_PLLSAI2N_4 );
;;;370    
;;;371    #endif /* RCC_PLLSAI2_SUPPORT */
;;;372    
;;;373      /* Reset HSEBYP bit */
;;;374      CLEAR_BIT(RCC->CR, RCC_CR_HSEBYP);
;;;375    
;;;376      /* Disable all interrupts */
;;;377      CLEAR_REG(RCC->CIER);
;;;378    
;;;379      /* Clear all interrupt flags */
;;;380      WRITE_REG(RCC->CICR, 0xFFFFFFFFU);
;;;381    
;;;382      /* Clear all reset flags */
;;;383      SET_BIT(RCC->CSR, RCC_CSR_RMVF);
;;;384    
;;;385      return HAL_OK;
;;;386    }
00004a  e8bd81f0          POP      {r4-r8,pc}
                  |L3.78|
00004e  f7fffffe          BL       HAL_GetTick
000052  4606              MOV      r6,r0                 ;303
000054  f2413788          MOV      r7,#0x1388            ;308
000058  e005              B        |L3.102|
00005a  bf00              NOP                            ;308
                  |L3.92|
00005c  f7fffffe          BL       HAL_GetTick
000060  1b80              SUBS     r0,r0,r6              ;308
000062  42b8              CMP      r0,r7                 ;308
000064  d811              BHI      |L3.138|
                  |L3.102|
000066  68a0              LDR      r0,[r4,#8]            ;306
000068  f0100f0c          TST      r0,#0xc               ;306
00006c  d1f6              BNE      |L3.92|
00006e  6820              LDR      r0,[r4,#0]            ;321
000070  491a              LDR      r1,|L3.220|
000072  4008              ANDS     r0,r0,r1              ;321
000074  6020              STR      r0,[r4,#0]            ;321
000076  f7fffffe          BL       HAL_GetTick
00007a  4606              MOV      r6,r0                 ;331
00007c  e007              B        |L3.142|
00007e  bf00              NOP                            ;347
                  |L3.128|
000080  f7fffffe          BL       HAL_GetTick
000084  1b80              SUBS     r0,r0,r6              ;347
000086  2802              CMP      r0,#2                 ;347
000088  d901              BLS      |L3.142|
                  |L3.138|
00008a  2003              MOVS     r0,#3                 ;349
00008c  e7dd              B        |L3.74|
                  |L3.142|
00008e  6820              LDR      r0,[r4,#0]            ;339
000090  f0106f20          TST      r0,#0xa000000         ;339
000094  d1f4              BNE      |L3.128|
000096  60e5              STR      r5,[r4,#0xc]          ;354
000098  68e0              LDR      r0,[r4,#0xc]          ;355
00009a  f4405080          ORR      r0,r0,#0x1000         ;355
00009e  60e0              STR      r0,[r4,#0xc]          ;355
0000a0  6125              STR      r5,[r4,#0x10]         ;360
0000a2  6920              LDR      r0,[r4,#0x10]         ;361
0000a4  f4405080          ORR      r0,r0,#0x1000         ;361
0000a8  6120              STR      r0,[r4,#0x10]         ;361
0000aa  6820              LDR      r0,[r4,#0]            ;374
0000ac  f4202080          BIC      r0,r0,#0x40000        ;374
0000b0  6020              STR      r0,[r4,#0]            ;374
0000b2  61a5              STR      r5,[r4,#0x18]         ;377
0000b4  f04f30ff          MOV      r0,#0xffffffff        ;380
0000b8  6220              STR      r0,[r4,#0x20]         ;380
0000ba  f8d40094          LDR      r0,[r4,#0x94]         ;383
0000be  f4400000          ORR      r0,r0,#0x800000       ;383
0000c2  f8c40094          STR      r0,[r4,#0x94]         ;383
0000c6  2000              MOVS     r0,#0                 ;385
0000c8  e7bf              B        |L3.74|
;;;387    
                          ENDP

0000ca  0000              DCW      0x0000
                  |L3.204|
                          DCD      0x40021000
                  |L3.208|
                          DCD      0x003d0900
                  |L3.212|
                          DCD      SystemCoreClock
                  |L3.216|
                          DCD      uwTickPrio
                  |L3.220|
                          DCD      0xfafef4ff

                          AREA ||i.HAL_RCC_EnableCSS||, CODE, READONLY, ALIGN=2

                  HAL_RCC_EnableCSS PROC
;;;1713     */
;;;1714   void HAL_RCC_EnableCSS(void)
000000  4802              LDR      r0,|L4.12|
;;;1715   {
;;;1716     SET_BIT(RCC->CR, RCC_CR_CSSON) ;
000002  6801              LDR      r1,[r0,#0]
000004  f4412100          ORR      r1,r1,#0x80000
000008  6001              STR      r1,[r0,#0]
;;;1717   }
00000a  4770              BX       lr
;;;1718   
                          ENDP

                  |L4.12|
                          DCD      0x40021000

                          AREA ||i.HAL_RCC_GetClockConfig||, CODE, READONLY, ALIGN=2

                  HAL_RCC_GetClockConfig PROC
;;;1678     */
;;;1679   void HAL_RCC_GetClockConfig(RCC_ClkInitTypeDef  *RCC_ClkInitStruct, uint32_t *pFLatency)
000000  220f              MOVS     r2,#0xf
;;;1680   {
;;;1681     /* Check the parameters */
;;;1682     assert_param(RCC_ClkInitStruct != (void  *)NULL);
;;;1683     assert_param(pFLatency != (void *)NULL);
;;;1684   
;;;1685     /* Set all possible values for the Clock type parameter --------------------*/
;;;1686     RCC_ClkInitStruct->ClockType = RCC_CLOCKTYPE_SYSCLK | RCC_CLOCKTYPE_HCLK | RCC_CLOCKTYPE_PCLK1 | RCC_CLOCKTYPE_PCLK2;
;;;1687   
;;;1688     /* Get the SYSCLK configuration --------------------------------------------*/
;;;1689     RCC_ClkInitStruct->SYSCLKSource = READ_BIT(RCC->CFGR, RCC_CFGR_SW);
000002  6002              STR      r2,[r0,#0]
000004  4a0c              LDR      r2,|L5.56|
000006  6893              LDR      r3,[r2,#8]
000008  f0030303          AND      r3,r3,#3
;;;1690   
;;;1691     /* Get the HCLK configuration ----------------------------------------------*/
;;;1692     RCC_ClkInitStruct->AHBCLKDivider = READ_BIT(RCC->CFGR, RCC_CFGR_HPRE);
00000c  6043              STR      r3,[r0,#4]
00000e  6893              LDR      r3,[r2,#8]
000010  f00303f0          AND      r3,r3,#0xf0
;;;1693   
;;;1694     /* Get the APB1 configuration ----------------------------------------------*/
;;;1695     RCC_ClkInitStruct->APB1CLKDivider = READ_BIT(RCC->CFGR, RCC_CFGR_PPRE1);
000014  6083              STR      r3,[r0,#8]
000016  6893              LDR      r3,[r2,#8]
000018  f40363e0          AND      r3,r3,#0x700
;;;1696   
;;;1697     /* Get the APB2 configuration ----------------------------------------------*/
;;;1698     RCC_ClkInitStruct->APB2CLKDivider = (READ_BIT(RCC->CFGR, RCC_CFGR_PPRE2) >> 3U);
00001c  60c3              STR      r3,[r0,#0xc]
00001e  6892              LDR      r2,[r2,#8]
;;;1699   
;;;1700     /* Get the Flash Wait State (Latency) configuration ------------------------*/
;;;1701     *pFLatency = __HAL_FLASH_GET_LATENCY();
;;;1702   }
000020  f44f63e0          MOV      r3,#0x700
000024  ea0302d2          AND      r2,r3,r2,LSR #3
000028  6102              STR      r2,[r0,#0x10]         ;1701
00002a  4804              LDR      r0,|L5.60|
00002c  6800              LDR      r0,[r0,#0]            ;1701
00002e  f0000007          AND      r0,r0,#7              ;1701
000032  6008              STR      r0,[r1,#0]            ;1701
000034  4770              BX       lr
;;;1703   
                          ENDP

000036  0000              DCW      0x0000
                  |L5.56|
                          DCD      0x40021000
                  |L5.60|
                          DCD      0x40022000

                          AREA ||i.HAL_RCC_GetHCLKFreq||, CODE, READONLY, ALIGN=2

                  HAL_RCC_GetHCLKFreq PROC
;;;1483     */
;;;1484   uint32_t HAL_RCC_GetHCLKFreq(void)
000000  4801              LDR      r0,|L6.8|
;;;1485   {
;;;1486     return SystemCoreClock;
000002  6800              LDR      r0,[r0,#0]  ; SystemCoreClock
;;;1487   }
000004  4770              BX       lr
;;;1488   
                          ENDP

000006  0000              DCW      0x0000
                  |L6.8|
                          DCD      SystemCoreClock

                          AREA ||i.HAL_RCC_GetOscConfig||, CODE, READONLY, ALIGN=2

                  HAL_RCC_GetOscConfig PROC
;;;1519     */
;;;1520   void HAL_RCC_GetOscConfig(RCC_OscInitTypeDef  *RCC_OscInitStruct)
000000  b510              PUSH     {r4,lr}
;;;1521   {
;;;1522     /* Check the parameters */
;;;1523     assert_param(RCC_OscInitStruct != (void *)NULL);
;;;1524   
;;;1525     /* Set all possible values for the Oscillator type parameter ---------------*/
;;;1526   #if defined(RCC_HSI48_SUPPORT)
;;;1527     RCC_OscInitStruct->OscillatorType = RCC_OSCILLATORTYPE_HSE | RCC_OSCILLATORTYPE_HSI | RCC_OSCILLATORTYPE_MSI | \
000002  213f              MOVS     r1,#0x3f
;;;1528                                         RCC_OSCILLATORTYPE_LSE | RCC_OSCILLATORTYPE_LSI | RCC_OSCILLATORTYPE_HSI48;
;;;1529   #else
;;;1530     RCC_OscInitStruct->OscillatorType = RCC_OSCILLATORTYPE_HSE | RCC_OSCILLATORTYPE_HSI | RCC_OSCILLATORTYPE_MSI | \
;;;1531                                         RCC_OSCILLATORTYPE_LSE | RCC_OSCILLATORTYPE_LSI;
;;;1532   #endif /* RCC_HSI48_SUPPORT */
;;;1533   
;;;1534     /* Get the HSE configuration -----------------------------------------------*/
;;;1535     if(READ_BIT(RCC->CR, RCC_CR_HSEBYP) == RCC_CR_HSEBYP)
000004  6001              STR      r1,[r0,#0]
000006  4936              LDR      r1,|L7.224|
000008  680a              LDR      r2,[r1,#0]
00000a  0353              LSLS     r3,r2,#13
00000c  f04f0200          MOV      r2,#0
000010  d502              BPL      |L7.24|
;;;1536     {
;;;1537       RCC_OscInitStruct->HSEState = RCC_HSE_BYPASS;
000012  f44f23a0          MOV      r3,#0x50000
000016  e004              B        |L7.34|
                  |L7.24|
;;;1538     }
;;;1539     else if(READ_BIT(RCC->CR, RCC_CR_HSEON) == RCC_CR_HSEON)
000018  680b              LDR      r3,[r1,#0]
00001a  03db              LSLS     r3,r3,#15
00001c  d503              BPL      |L7.38|
;;;1540     {
;;;1541       RCC_OscInitStruct->HSEState = RCC_HSE_ON;
00001e  f44f3380          MOV      r3,#0x10000
                  |L7.34|
000022  6043              STR      r3,[r0,#4]
000024  e000              B        |L7.40|
                  |L7.38|
;;;1542     }
;;;1543     else
;;;1544     {
;;;1545       RCC_OscInitStruct->HSEState = RCC_HSE_OFF;
000026  6042              STR      r2,[r0,#4]
                  |L7.40|
;;;1546     }
;;;1547   
;;;1548      /* Get the MSI configuration -----------------------------------------------*/
;;;1549     if(READ_BIT(RCC->CR, RCC_CR_MSION) == RCC_CR_MSION)
000028  680b              LDR      r3,[r1,#0]
00002a  07dc              LSLS     r4,r3,#31
;;;1550     {
;;;1551       RCC_OscInitStruct->MSIState = RCC_MSI_ON;
00002c  f04f0301          MOV      r3,#1
000030  d001              BEQ      |L7.54|
000032  6183              STR      r3,[r0,#0x18]
000034  e000              B        |L7.56|
                  |L7.54|
;;;1552     }
;;;1553     else
;;;1554     {
;;;1555       RCC_OscInitStruct->MSIState = RCC_MSI_OFF;
000036  6182              STR      r2,[r0,#0x18]
                  |L7.56|
;;;1556     }
;;;1557   
;;;1558     RCC_OscInitStruct->MSICalibrationValue = READ_BIT(RCC->ICSCR, RCC_ICSCR_MSITRIM) >> RCC_ICSCR_MSITRIM_Pos;
000038  684c              LDR      r4,[r1,#4]
00003a  f3c42407          UBFX     r4,r4,#8,#8
;;;1559     RCC_OscInitStruct->MSIClockRange = READ_BIT(RCC->CR, RCC_CR_MSIRANGE);
00003e  61c4              STR      r4,[r0,#0x1c]
000040  680c              LDR      r4,[r1,#0]
000042  f00404f0          AND      r4,r4,#0xf0
;;;1560   
;;;1561     /* Get the HSI configuration -----------------------------------------------*/
;;;1562     if(READ_BIT(RCC->CR, RCC_CR_HSION) == RCC_CR_HSION)
000046  6204              STR      r4,[r0,#0x20]
000048  680c              LDR      r4,[r1,#0]
00004a  05e4              LSLS     r4,r4,#23
00004c  d503              BPL      |L7.86|
;;;1563     {
;;;1564       RCC_OscInitStruct->HSIState = RCC_HSI_ON;
00004e  f44f7480          MOV      r4,#0x100
000052  60c4              STR      r4,[r0,#0xc]
000054  e000              B        |L7.88|
                  |L7.86|
;;;1565     }
;;;1566     else
;;;1567     {
;;;1568       RCC_OscInitStruct->HSIState = RCC_HSI_OFF;
000056  60c2              STR      r2,[r0,#0xc]
                  |L7.88|
;;;1569     }
;;;1570   
;;;1571     RCC_OscInitStruct->HSICalibrationValue = READ_BIT(RCC->ICSCR, RCC_ICSCR_HSITRIM) >> RCC_ICSCR_HSITRIM_Pos;
000058  684c              LDR      r4,[r1,#4]
00005a  f3c46404          UBFX     r4,r4,#24,#5
;;;1572   
;;;1573     /* Get the LSE configuration -----------------------------------------------*/
;;;1574     if(READ_BIT(RCC->BDCR, RCC_BDCR_LSEBYP) == RCC_BDCR_LSEBYP)
00005e  6104              STR      r4,[r0,#0x10]
000060  f8d14090          LDR      r4,[r1,#0x90]
000064  0764              LSLS     r4,r4,#29
000066  d502              BPL      |L7.110|
;;;1575     {
;;;1576   #if defined(RCC_BDCR_LSESYSDIS)
;;;1577       if((RCC->BDCR & RCC_BDCR_LSESYSDIS) == RCC_BDCR_LSESYSDIS)
;;;1578       {
;;;1579         RCC_OscInitStruct->LSEState = RCC_LSE_BYPASS_RTC_ONLY;
;;;1580       }
;;;1581       else
;;;1582   #endif /* RCC_BDCR_LSESYSDIS */
;;;1583       {
;;;1584         RCC_OscInitStruct->LSEState = RCC_LSE_BYPASS;
000068  2405              MOVS     r4,#5
00006a  6084              STR      r4,[r0,#8]
00006c  e006              B        |L7.124|
                  |L7.110|
;;;1585       }
;;;1586     }
;;;1587     else if(READ_BIT(RCC->BDCR, RCC_BDCR_LSEON) == RCC_BDCR_LSEON)
00006e  f8d14090          LDR      r4,[r1,#0x90]
000072  07e4              LSLS     r4,r4,#31
000074  d001              BEQ      |L7.122|
;;;1588     {
;;;1589   #if defined(RCC_BDCR_LSESYSDIS)
;;;1590       if((RCC->BDCR & RCC_BDCR_LSESYSDIS) == RCC_BDCR_LSESYSDIS)
;;;1591       {
;;;1592         RCC_OscInitStruct->LSEState = RCC_LSE_ON_RTC_ONLY;
;;;1593       }
;;;1594       else
;;;1595   #endif /* RCC_BDCR_LSESYSDIS */
;;;1596       {
;;;1597         RCC_OscInitStruct->LSEState = RCC_LSE_ON;
000076  6083              STR      r3,[r0,#8]
000078  e000              B        |L7.124|
                  |L7.122|
;;;1598       }
;;;1599     }
;;;1600     else
;;;1601     {
;;;1602       RCC_OscInitStruct->LSEState = RCC_LSE_OFF;
00007a  6082              STR      r2,[r0,#8]
                  |L7.124|
;;;1603     }
;;;1604   
;;;1605     /* Get the LSI configuration -----------------------------------------------*/
;;;1606     if(READ_BIT(RCC->CSR, RCC_CSR_LSION) == RCC_CSR_LSION)
00007c  f8d14094          LDR      r4,[r1,#0x94]
000080  07e4              LSLS     r4,r4,#31
000082  d001              BEQ      |L7.136|
;;;1607     {
;;;1608       RCC_OscInitStruct->LSIState = RCC_LSI_ON;
000084  6143              STR      r3,[r0,#0x14]
000086  e000              B        |L7.138|
                  |L7.136|
;;;1609     }
;;;1610     else
;;;1611     {
;;;1612       RCC_OscInitStruct->LSIState = RCC_LSI_OFF;
000088  6142              STR      r2,[r0,#0x14]
                  |L7.138|
;;;1613     }
;;;1614   #if defined(RCC_CSR_LSIPREDIV)
;;;1615   
;;;1616     /* Get the LSI configuration -----------------------------------------------*/
;;;1617     if((RCC->CSR & RCC_CSR_LSIPREDIV) == RCC_CSR_LSIPREDIV)
;;;1618     {
;;;1619       RCC_OscInitStruct->LSIDiv = RCC_LSI_DIV128;
;;;1620     }
;;;1621     else
;;;1622     {
;;;1623       RCC_OscInitStruct->LSIDiv = RCC_LSI_DIV1;
;;;1624     }
;;;1625   #endif /* RCC_CSR_LSIPREDIV */
;;;1626   
;;;1627   #if defined(RCC_HSI48_SUPPORT)
;;;1628     /* Get the HSI48 configuration ---------------------------------------------*/
;;;1629     if(READ_BIT(RCC->CRRCR, RCC_CRRCR_HSI48ON) == RCC_CRRCR_HSI48ON)
00008a  f8d14098          LDR      r4,[r1,#0x98]
00008e  07e4              LSLS     r4,r4,#31
000090  d001              BEQ      |L7.150|
;;;1630     {
;;;1631       RCC_OscInitStruct->HSI48State = RCC_HSI48_ON;
000092  6243              STR      r3,[r0,#0x24]
000094  e000              B        |L7.152|
                  |L7.150|
;;;1632     }
;;;1633     else
;;;1634     {
;;;1635       RCC_OscInitStruct->HSI48State = RCC_HSI48_OFF;
000096  6242              STR      r2,[r0,#0x24]
                  |L7.152|
;;;1636     }
;;;1637   #else
;;;1638     RCC_OscInitStruct->HSI48State = RCC_HSI48_OFF;
;;;1639   #endif /* RCC_HSI48_SUPPORT */
;;;1640   
;;;1641     /* Get the PLL configuration -----------------------------------------------*/
;;;1642     if(READ_BIT(RCC->CR, RCC_CR_PLLON) == RCC_CR_PLLON)
000098  680a              LDR      r2,[r1,#0]
00009a  01d2              LSLS     r2,r2,#7
00009c  d502              BPL      |L7.164|
;;;1643     {
;;;1644       RCC_OscInitStruct->PLL.PLLState = RCC_PLL_ON;
00009e  2202              MOVS     r2,#2
0000a0  6282              STR      r2,[r0,#0x28]
0000a2  e000              B        |L7.166|
                  |L7.164|
;;;1645     }
;;;1646     else
;;;1647     {
;;;1648       RCC_OscInitStruct->PLL.PLLState = RCC_PLL_OFF;
0000a4  6283              STR      r3,[r0,#0x28]
                  |L7.166|
;;;1649     }
;;;1650     RCC_OscInitStruct->PLL.PLLSource = READ_BIT(RCC->PLLCFGR, RCC_PLLCFGR_PLLSRC);
0000a6  68ca              LDR      r2,[r1,#0xc]
0000a8  f0020203          AND      r2,r2,#3
;;;1651     RCC_OscInitStruct->PLL.PLLM = (READ_BIT(RCC->PLLCFGR, RCC_PLLCFGR_PLLM) >> RCC_PLLCFGR_PLLM_Pos) + 1U;
0000ac  62c2              STR      r2,[r0,#0x2c]
0000ae  68ca              LDR      r2,[r1,#0xc]
0000b0  f3c21202          UBFX     r2,r2,#4,#3
0000b4  1c52              ADDS     r2,r2,#1
;;;1652     RCC_OscInitStruct->PLL.PLLN = READ_BIT(RCC->PLLCFGR, RCC_PLLCFGR_PLLN) >> RCC_PLLCFGR_PLLN_Pos;
0000b6  6302              STR      r2,[r0,#0x30]
0000b8  68ca              LDR      r2,[r1,#0xc]
0000ba  f3c22206          UBFX     r2,r2,#8,#7
;;;1653     RCC_OscInitStruct->PLL.PLLQ = (((READ_BIT(RCC->PLLCFGR, RCC_PLLCFGR_PLLQ) >> RCC_PLLCFGR_PLLQ_Pos) + 1U) << 1U);
0000be  6342              STR      r2,[r0,#0x34]
0000c0  68ca              LDR      r2,[r1,#0xc]
0000c2  f3c25241          UBFX     r2,r2,#21,#2
0000c6  1c52              ADDS     r2,r2,#1
0000c8  0052              LSLS     r2,r2,#1
;;;1654     RCC_OscInitStruct->PLL.PLLR = (((READ_BIT(RCC->PLLCFGR, RCC_PLLCFGR_PLLR) >> RCC_PLLCFGR_PLLR_Pos) + 1U) << 1U);
0000ca  63c2              STR      r2,[r0,#0x3c]
0000cc  68ca              LDR      r2,[r1,#0xc]
0000ce  f3c26241          UBFX     r2,r2,#25,#2
0000d2  1c52              ADDS     r2,r2,#1
0000d4  0052              LSLS     r2,r2,#1
;;;1655   #if defined(RCC_PLLP_SUPPORT)
;;;1656   #if defined(RCC_PLLP_DIV_2_31_SUPPORT)
;;;1657     RCC_OscInitStruct->PLL.PLLP = READ_BIT(RCC->PLLCFGR, RCC_PLLCFGR_PLLPDIV) >> RCC_PLLCFGR_PLLPDIV_Pos;
0000d6  6402              STR      r2,[r0,#0x40]
0000d8  68c9              LDR      r1,[r1,#0xc]
0000da  0ec9              LSRS     r1,r1,#27
0000dc  6381              STR      r1,[r0,#0x38]
;;;1658   #else
;;;1659     if(READ_BIT(RCC->PLLCFGR, RCC_PLLCFGR_PLLP) != 0U)
;;;1660     {
;;;1661       RCC_OscInitStruct->PLL.PLLP = RCC_PLLP_DIV17;
;;;1662     }
;;;1663     else
;;;1664     {
;;;1665       RCC_OscInitStruct->PLL.PLLP = RCC_PLLP_DIV7;
;;;1666     }
;;;1667   #endif /* RCC_PLLP_DIV_2_31_SUPPORT */
;;;1668   #endif /* RCC_PLLP_SUPPORT */
;;;1669   }
0000de  bd10              POP      {r4,pc}
;;;1670   
                          ENDP

                  |L7.224|
                          DCD      0x40021000

                          AREA ||i.HAL_RCC_GetPCLK1Freq||, CODE, READONLY, ALIGN=2

                  HAL_RCC_GetPCLK1Freq PROC
;;;1494     */
;;;1495   uint32_t HAL_RCC_GetPCLK1Freq(void)
000000  4805              LDR      r0,|L8.24|
;;;1496   {
;;;1497     /* Get HCLK source and Compute PCLK1 frequency ---------------------------*/
;;;1498     return (HAL_RCC_GetHCLKFreq() >> (APBPrescTable[READ_BIT(RCC->CFGR, RCC_CFGR_PPRE1) >> RCC_CFGR_PPRE1_Pos] & 0x1FU));
000002  4906              LDR      r1,|L8.28|
000004  6800              LDR      r0,[r0,#0]  ; SystemCoreClock
000006  6889              LDR      r1,[r1,#8]
000008  4a05              LDR      r2,|L8.32|
00000a  f3c12102          UBFX     r1,r1,#8,#3
00000e  5c51              LDRB     r1,[r2,r1]
000010  f001011f          AND      r1,r1,#0x1f
000014  40c8              LSRS     r0,r0,r1
;;;1499   }
000016  4770              BX       lr
;;;1500   
                          ENDP

                  |L8.24|
                          DCD      SystemCoreClock
                  |L8.28|
                          DCD      0x40021000
                  |L8.32|
                          DCD      APBPrescTable

                          AREA ||i.HAL_RCC_GetPCLK2Freq||, CODE, READONLY, ALIGN=2

                  HAL_RCC_GetPCLK2Freq PROC
;;;1506     */
;;;1507   uint32_t HAL_RCC_GetPCLK2Freq(void)
000000  4805              LDR      r0,|L9.24|
;;;1508   {
;;;1509     /* Get HCLK source and Compute PCLK2 frequency ---------------------------*/
;;;1510     return (HAL_RCC_GetHCLKFreq()>> (APBPrescTable[READ_BIT(RCC->CFGR, RCC_CFGR_PPRE2) >> RCC_CFGR_PPRE2_Pos] & 0x1FU));
000002  4906              LDR      r1,|L9.28|
000004  6800              LDR      r0,[r0,#0]  ; SystemCoreClock
000006  6889              LDR      r1,[r1,#8]
000008  4a05              LDR      r2,|L9.32|
00000a  f3c121c2          UBFX     r1,r1,#11,#3
00000e  5c51              LDRB     r1,[r2,r1]
000010  f001011f          AND      r1,r1,#0x1f
000014  40c8              LSRS     r0,r0,r1
;;;1511   }
000016  4770              BX       lr
;;;1512   
                          ENDP

                  |L9.24|
                          DCD      SystemCoreClock
                  |L9.28|
                          DCD      0x40021000
                  |L9.32|
                          DCD      APBPrescTable

                          AREA ||i.HAL_RCC_GetResetSource||, CODE, READONLY, ALIGN=2

                  HAL_RCC_GetResetSource PROC
;;;1754     */
;;;1755   uint32_t HAL_RCC_GetResetSource(void)
000000  4904              LDR      r1,|L10.20|
;;;1756   {
;;;1757     uint32_t reset;
;;;1758   
;;;1759     /* Get all reset flags */
;;;1760     reset = RCC->CSR & RCC_RESET_FLAG_ALL;
000002  f8510f94          LDR      r0,[r1,#0x94]!
;;;1761   
;;;1762     /* Clear Reset flags */
;;;1763     RCC->CSR |= RCC_CSR_RMVF;
000006  680a              LDR      r2,[r1,#0]
000008  f000407e          AND      r0,r0,#0xfe000000     ;1760
00000c  f4420200          ORR      r2,r2,#0x800000
000010  600a              STR      r2,[r1,#0]
;;;1764   
;;;1765     return reset;
;;;1766   }
000012  4770              BX       lr
;;;1767   
                          ENDP

                  |L10.20|
                          DCD      0x40021000

                          AREA ||i.HAL_RCC_GetSysClockFreq||, CODE, READONLY, ALIGN=2

                  HAL_RCC_GetSysClockFreq PROC
;;;1395     */
;;;1396   uint32_t HAL_RCC_GetSysClockFreq(void)
000000  b570              PUSH     {r4-r6,lr}
;;;1397   {
;;;1398     uint32_t msirange = 0U, sysclockfreq = 0U;
;;;1399     uint32_t pllvco, pllsource, pllr, pllm;    /* no init needed */
;;;1400     uint32_t sysclk_source, pll_oscsource;
;;;1401   
;;;1402     sysclk_source = __HAL_RCC_GET_SYSCLK_SOURCE();
000002  4925              LDR      r1,|L11.152|
000004  2300              MOVS     r3,#0                 ;1398
000006  4618              MOV      r0,r3                 ;1398
000008  688a              LDR      r2,[r1,#8]
;;;1403     pll_oscsource = __HAL_RCC_GET_PLL_OSCSOURCE();
00000a  68cc              LDR      r4,[r1,#0xc]
00000c  f012020c          ANDS     r2,r2,#0xc            ;1402
000010  f0040603          AND      r6,r4,#3
;;;1404   
;;;1405     if((sysclk_source == RCC_CFGR_SWS_MSI) ||
;;;1406        ((sysclk_source == RCC_CFGR_SWS_PLL) && (pll_oscsource == RCC_PLLSOURCE_MSI)))
;;;1407     {
;;;1408       /* MSI or PLL with MSI source used as system clock source */
;;;1409   
;;;1410       /* Get SYSCLK source */
;;;1411       if(READ_BIT(RCC->CR, RCC_CR_MSIRGSEL) == 0U)
;;;1412       { /* MSISRANGE from RCC_CSR applies */
;;;1413         msirange = READ_BIT(RCC->CSR, RCC_CSR_MSISRANGE) >> RCC_CSR_MSISRANGE_Pos;
;;;1414       }
;;;1415       else
;;;1416       { /* MSIRANGE from RCC_CR applies */
;;;1417         msirange = READ_BIT(RCC->CR, RCC_CR_MSIRANGE) >> RCC_CR_MSIRANGE_Pos;
;;;1418       }
;;;1419       /*MSI frequency range in HZ*/
;;;1420       msirange = MSIRangeTable[msirange];
;;;1421   
;;;1422       if(sysclk_source == RCC_CFGR_SWS_MSI)
;;;1423       {
;;;1424         /* MSI used as system clock source */
;;;1425         sysclockfreq = msirange;
;;;1426       }
;;;1427     }
;;;1428     else if(sysclk_source == RCC_CFGR_SWS_HSI)
;;;1429     {
;;;1430       /* HSI used as system clock source */
;;;1431       sysclockfreq = HSI_VALUE;
000014  4c21              LDR      r4,|L11.156|
;;;1432     }
;;;1433     else if(sysclk_source == RCC_CFGR_SWS_HSE)
;;;1434     {
;;;1435       /* HSE used as system clock source */
;;;1436       sysclockfreq = HSE_VALUE;
000016  ea4f0564          ASR      r5,r4,#1
00001a  d009              BEQ      |L11.48|
00001c  2a0c              CMP      r2,#0xc               ;1406
00001e  d005              BEQ      |L11.44|
000020  2a04              CMP      r2,#4                 ;1428
000022  d032              BEQ      |L11.138|
000024  2a08              CMP      r2,#8                 ;1433
000026  d100              BNE      |L11.42|
000028  4628              MOV      r0,r5
                  |L11.42|
;;;1437     }
;;;1438     else
;;;1439     {
;;;1440       /* unexpected case: sysclockfreq at 0 */
;;;1441     }
;;;1442   
;;;1443     if(sysclk_source == RCC_CFGR_SWS_PLL)
;;;1444     {
;;;1445       /* PLL used as system clock  source */
;;;1446   
;;;1447       /* PLL_VCO = (HSE_VALUE or HSI_VALUE or MSI_VALUE) * PLLN / PLLM
;;;1448       SYSCLK = PLL_VCO / PLLR
;;;1449       */
;;;1450       pllsource = READ_BIT(RCC->PLLCFGR, RCC_PLLCFGR_PLLSRC);
;;;1451   
;;;1452       switch (pllsource)
;;;1453       {
;;;1454       case RCC_PLLSOURCE_HSI:  /* HSI used as PLL clock source */
;;;1455         pllvco = HSI_VALUE;
;;;1456         break;
;;;1457   
;;;1458       case RCC_PLLSOURCE_HSE:  /* HSE used as PLL clock source */
;;;1459         pllvco = HSE_VALUE;
;;;1460         break;
;;;1461   
;;;1462       case RCC_PLLSOURCE_MSI:  /* MSI used as PLL clock source */
;;;1463       default:
;;;1464         pllvco = msirange;
;;;1465         break;
;;;1466       }
;;;1467       pllm = (READ_BIT(RCC->PLLCFGR, RCC_PLLCFGR_PLLM) >> RCC_PLLCFGR_PLLM_Pos) + 1U ;
;;;1468       pllvco = (pllvco * (READ_BIT(RCC->PLLCFGR, RCC_PLLCFGR_PLLN) >> RCC_PLLCFGR_PLLN_Pos)) / pllm;
;;;1469       pllr = ((READ_BIT(RCC->PLLCFGR, RCC_PLLCFGR_PLLR) >> RCC_PLLCFGR_PLLR_Pos) + 1U ) * 2U;
;;;1470       sysclockfreq = pllvco / pllr;
;;;1471     }
;;;1472   
;;;1473     return sysclockfreq;
;;;1474   }
00002a  bd70              POP      {r4-r6,pc}
                  |L11.44|
00002c  2e01              CMP      r6,#1                 ;1406
00002e  d110              BNE      |L11.82|
                  |L11.48|
000030  680b              LDR      r3,[r1,#0]            ;1411
000032  071b              LSLS     r3,r3,#28             ;1411
000034  d404              BMI      |L11.64|
000036  f8d13094          LDR      r3,[r1,#0x94]         ;1413
00003a  f3c32303          UBFX     r3,r3,#8,#4           ;1413
00003e  e002              B        |L11.70|
                  |L11.64|
000040  680b              LDR      r3,[r1,#0]            ;1417
000042  f3c31303          UBFX     r3,r3,#4,#4           ;1417
                  |L11.70|
000046  4e16              LDR      r6,|L11.160|
000048  f8563023          LDR      r3,[r6,r3,LSL #2]     ;1420
00004c  b1da              CBZ      r2,|L11.134|
00004e  2a0c              CMP      r2,#0xc               ;1443
000050  d1eb              BNE      |L11.42|
                  |L11.82|
000052  68c8              LDR      r0,[r1,#0xc]          ;1450
000054  f0000003          AND      r0,r0,#3              ;1450
000058  2802              CMP      r0,#2                 ;1452
00005a  d018              BEQ      |L11.142|
00005c  2803              CMP      r0,#3                 ;1452
00005e  d018              BEQ      |L11.146|
000060  4618              MOV      r0,r3                 ;1464
                  |L11.98|
000062  68ca              LDR      r2,[r1,#0xc]          ;1467
000064  68cb              LDR      r3,[r1,#0xc]          ;1468
000066  f3c21202          UBFX     r2,r2,#4,#3           ;1467
00006a  f3c32306          UBFX     r3,r3,#8,#7           ;1468
00006e  4343              MULS     r3,r0,r3              ;1468
000070  1c52              ADDS     r2,r2,#1              ;1468
000072  fbb3f2f2          UDIV     r2,r3,r2              ;1468
000076  68c8              LDR      r0,[r1,#0xc]          ;1469
000078  f3c06041          UBFX     r0,r0,#25,#2          ;1469
00007c  1c40              ADDS     r0,r0,#1              ;1469
00007e  0040              LSLS     r0,r0,#1              ;1469
000080  fbb2f0f0          UDIV     r0,r2,r0              ;1470
000084  bd70              POP      {r4-r6,pc}
                  |L11.134|
000086  4618              MOV      r0,r3                 ;1425
000088  bd70              POP      {r4-r6,pc}
                  |L11.138|
00008a  4620              MOV      r0,r4                 ;1431
00008c  bd70              POP      {r4-r6,pc}
                  |L11.142|
00008e  4620              MOV      r0,r4                 ;1455
000090  e7e7              B        |L11.98|
                  |L11.146|
000092  4628              MOV      r0,r5                 ;1459
000094  e7e5              B        |L11.98|
;;;1475   
                          ENDP

000096  0000              DCW      0x0000
                  |L11.152|
                          DCD      0x40021000
                  |L11.156|
                          DCD      0x00f42400
                  |L11.160|
                          DCD      MSIRangeTable

                          AREA ||i.HAL_RCC_MCOConfig||, CODE, READONLY, ALIGN=2

                  HAL_RCC_MCOConfig PROC
;;;1336     */
;;;1337   void HAL_RCC_MCOConfig( uint32_t RCC_MCOx, uint32_t RCC_MCOSource, uint32_t RCC_MCODiv)
000000  b570              PUSH     {r4-r6,lr}
;;;1338   {
;;;1339     GPIO_InitTypeDef GPIO_InitStruct;
;;;1340   
;;;1341     /* Check the parameters */
;;;1342     assert_param(IS_RCC_MCO(RCC_MCOx));
;;;1343     assert_param(IS_RCC_MCODIV(RCC_MCODiv));
;;;1344     assert_param(IS_RCC_MCO1SOURCE(RCC_MCOSource));
;;;1345   
;;;1346     /* Prevent unused argument(s) compilation warning if no assert_param check */
;;;1347     UNUSED(RCC_MCOx);
;;;1348   
;;;1349     /* MCO Clock Enable */
;;;1350     __MCO1_CLK_ENABLE();
000002  4c10              LDR      r4,|L12.68|
000004  b086              SUB      sp,sp,#0x18           ;1338
000006  4616              MOV      r6,r2                 ;1338
000008  6ce0              LDR      r0,[r4,#0x4c]
00000a  460d              MOV      r5,r1                 ;1338
00000c  f0400001          ORR      r0,r0,#1
000010  64e0              STR      r0,[r4,#0x4c]
000012  6ce0              LDR      r0,[r4,#0x4c]
;;;1351   
;;;1352     /* Configure the MCO1 pin in alternate function mode */
;;;1353     GPIO_InitStruct.Pin = MCO1_PIN;
;;;1354     GPIO_InitStruct.Mode = GPIO_MODE_AF_PP;
;;;1355     GPIO_InitStruct.Speed = GPIO_SPEED_FREQ_HIGH;
;;;1356     GPIO_InitStruct.Pull = GPIO_NOPULL;
;;;1357     GPIO_InitStruct.Alternate = GPIO_AF0_MCO;
;;;1358     HAL_GPIO_Init(MCO1_GPIO_PORT, &GPIO_InitStruct);
000014  4669              MOV      r1,sp
000016  f0000001          AND      r0,r0,#1              ;1350
00001a  9005              STR      r0,[sp,#0x14]         ;1353
00001c  15a0              ASRS     r0,r4,#22             ;1353
00001e  9000              STR      r0,[sp,#0]            ;1354
000020  2002              MOVS     r0,#2                 ;1354
000022  9001              STR      r0,[sp,#4]            ;1355
000024  9003              STR      r0,[sp,#0xc]          ;1356
000026  2000              MOVS     r0,#0                 ;1356
000028  9002              STR      r0,[sp,#8]            ;1357
00002a  9004              STR      r0,[sp,#0x10]
00002c  f04f4090          MOV      r0,#0x48000000
000030  f7fffffe          BL       HAL_GPIO_Init
;;;1359   
;;;1360     /* Mask MCOSEL[] and MCOPRE[] bits then set MCO1 clock source and prescaler */
;;;1361     MODIFY_REG(RCC->CFGR, (RCC_CFGR_MCOSEL | RCC_CFGR_MCOPRE), (RCC_MCOSource | RCC_MCODiv ));
000034  68a0              LDR      r0,[r4,#8]
000036  4335              ORRS     r5,r5,r6
000038  f02040fe          BIC      r0,r0,#0x7f000000
00003c  4328              ORRS     r0,r0,r5
00003e  60a0              STR      r0,[r4,#8]
;;;1362   }
000040  b006              ADD      sp,sp,#0x18
000042  bd70              POP      {r4-r6,pc}
;;;1363   
                          ENDP

                  |L12.68|
                          DCD      0x40021000

                          AREA ||i.HAL_RCC_NMI_IRQHandler||, CODE, READONLY, ALIGN=2

                  HAL_RCC_NMI_IRQHandler PROC
;;;1723     */
;;;1724   void HAL_RCC_NMI_IRQHandler(void)
000000  b510              PUSH     {r4,lr}
;;;1725   {
;;;1726     /* Check RCC CSSF interrupt flag  */
;;;1727     if(__HAL_RCC_GET_IT(RCC_IT_CSS))
000002  4c04              LDR      r4,|L13.20|
000004  69e0              LDR      r0,[r4,#0x1c]
000006  05c0              LSLS     r0,r0,#23
000008  d503              BPL      |L13.18|
;;;1728     {
;;;1729       /* RCC Clock Security System interrupt user callback */
;;;1730       HAL_RCC_CSSCallback();
00000a  f7fffffe          BL       HAL_RCC_CSSCallback
;;;1731   
;;;1732       /* Clear RCC CSS pending bit */
;;;1733       __HAL_RCC_CLEAR_IT(RCC_IT_CSS);
00000e  15a0              ASRS     r0,r4,#22
000010  6220              STR      r0,[r4,#0x20]
                  |L13.18|
;;;1734     }
;;;1735   }
000012  bd10              POP      {r4,pc}
;;;1736   
                          ENDP

                  |L13.20|
                          DCD      0x40021000

                          AREA ||i.HAL_RCC_OscConfig||, CODE, READONLY, ALIGN=2

                  HAL_RCC_OscConfig PROC
;;;402      */
;;;403    HAL_StatusTypeDef HAL_RCC_OscConfig(RCC_OscInitTypeDef  *RCC_OscInitStruct)
000000  e92d43f8          PUSH     {r3-r9,lr}
;;;404    {
000004  0004              MOVS     r4,r0
                  |L14.6|
000006  d06f              BEQ      |L14.232|
;;;405      uint32_t tickstart;
;;;406      HAL_StatusTypeDef status;
;;;407      uint32_t sysclk_source, pll_config;
;;;408    
;;;409      /* Check Null pointer */
;;;410      if(RCC_OscInitStruct == NULL)
;;;411      {
;;;412        return HAL_ERROR;
;;;413      }
;;;414    
;;;415      /* Check the parameters */
;;;416      assert_param(IS_RCC_OSCILLATORTYPE(RCC_OscInitStruct->OscillatorType));
;;;417    
;;;418      sysclk_source = __HAL_RCC_GET_SYSCLK_SOURCE();
000008  4dfa              LDR      r5,|L14.1012|
00000a  68a8              LDR      r0,[r5,#8]
00000c  f000060c          AND      r6,r0,#0xc
;;;419      pll_config = __HAL_RCC_GET_PLL_OSCSOURCE();
000010  68e8              LDR      r0,[r5,#0xc]
000012  f0000703          AND      r7,r0,#3
;;;420    
;;;421      /*----------------------------- MSI Configuration --------------------------*/
;;;422      if(((RCC_OscInitStruct->OscillatorType) & RCC_OSCILLATORTYPE_MSI) == RCC_OSCILLATORTYPE_MSI)
000016  7820              LDRB     r0,[r4,#0]
000018  06c0              LSLS     r0,r0,#27
00001a  d564              BPL      |L14.230|
;;;423      {
;;;424        /* Check the parameters */
;;;425        assert_param(IS_RCC_MSI(RCC_OscInitStruct->MSIState));
;;;426        assert_param(IS_RCC_MSICALIBRATION_VALUE(RCC_OscInitStruct->MSICalibrationValue));
;;;427        assert_param(IS_RCC_MSI_CLOCK_RANGE(RCC_OscInitStruct->MSIClockRange));
;;;428    
;;;429        /* Check if MSI is used as system clock or as PLL source when PLL is selected as system clock */
;;;430        if((sysclk_source == RCC_CFGR_SWS_MSI) ||
00001c  b176              CBZ      r6,|L14.60|
;;;431           ((sysclk_source == RCC_CFGR_SWS_PLL) && (pll_config == RCC_PLLSOURCE_MSI)))
00001e  2e0c              CMP      r6,#0xc
000020  d101              BNE      |L14.38|
000022  2f01              CMP      r7,#1
000024  d00a              BEQ      |L14.60|
                  |L14.38|
;;;432        {
;;;433          if((READ_BIT(RCC->CR, RCC_CR_MSIRDY) != 0U) && (RCC_OscInitStruct->MSIState == RCC_MSI_OFF))
;;;434          {
;;;435            return HAL_ERROR;
;;;436          }
;;;437    
;;;438           /* Otherwise, just the calibration and MSI range change are allowed */
;;;439          else
;;;440          {
;;;441            /* To correctly read data from FLASH memory, the number of wait states (LATENCY)
;;;442               must be correctly programmed according to the frequency of the CPU clock
;;;443               (HCLK) and the supply voltage of the device. */
;;;444            if(RCC_OscInitStruct->MSIClockRange > __HAL_RCC_GET_MSI_RANGE())
;;;445            {
;;;446              /* First increase number of wait states update if necessary */
;;;447              if(RCC_SetFlashLatencyFromMSIRange(RCC_OscInitStruct->MSIClockRange) != HAL_OK)
;;;448              {
;;;449                return HAL_ERROR;
;;;450              }
;;;451    
;;;452              /* Selects the Multiple Speed oscillator (MSI) clock range .*/
;;;453              __HAL_RCC_MSI_RANGE_CONFIG(RCC_OscInitStruct->MSIClockRange);
;;;454              /* Adjusts the Multiple Speed oscillator (MSI) calibration value.*/
;;;455              __HAL_RCC_MSI_CALIBRATIONVALUE_ADJUST(RCC_OscInitStruct->MSICalibrationValue);
;;;456            }
;;;457            else
;;;458            {
;;;459              /* Else, keep current flash latency while decreasing applies */
;;;460              /* Selects the Multiple Speed oscillator (MSI) clock range .*/
;;;461              __HAL_RCC_MSI_RANGE_CONFIG(RCC_OscInitStruct->MSIClockRange);
;;;462              /* Adjusts the Multiple Speed oscillator (MSI) calibration value.*/
;;;463              __HAL_RCC_MSI_CALIBRATIONVALUE_ADJUST(RCC_OscInitStruct->MSICalibrationValue);
;;;464    
;;;465              /* Decrease number of wait states update if necessary */
;;;466              /* Only possible when MSI is the System clock source  */
;;;467              if(sysclk_source == RCC_CFGR_SWS_MSI)
;;;468              {
;;;469                if(RCC_SetFlashLatencyFromMSIRange(RCC_OscInitStruct->MSIClockRange) != HAL_OK)
;;;470                {
;;;471                  return HAL_ERROR;
;;;472                }
;;;473              }
;;;474            }
;;;475    
;;;476            /* Update the SystemCoreClock global variable */
;;;477            SystemCoreClock = HAL_RCC_GetSysClockFreq() >> (AHBPrescTable[READ_BIT(RCC->CFGR, RCC_CFGR_HPRE) >> RCC_CFGR_HPRE_Pos] & 0x1FU);
;;;478    
;;;479            /* Configure the source of time base considering new system clocks settings*/
;;;480            status = HAL_InitTick(uwTickPrio);
;;;481            if(status != HAL_OK)
;;;482            {
;;;483              return status;
;;;484            }
;;;485          }
;;;486        }
;;;487        else
;;;488        {
;;;489          /* Check the MSI State */
;;;490          if(RCC_OscInitStruct->MSIState != RCC_MSI_OFF)
000026  69a0              LDR      r0,[r4,#0x18]
000028  2800              CMP      r0,#0
;;;491          {
;;;492            /* Enable the Internal High Speed oscillator (MSI). */
;;;493            __HAL_RCC_MSI_ENABLE();
;;;494    
;;;495            /* Get timeout */
;;;496            tickstart = HAL_GetTick();
;;;497    
;;;498            /* Wait till MSI is ready */
;;;499            while(READ_BIT(RCC->CR, RCC_CR_MSIRDY) == 0U)
;;;500            {
;;;501              if((HAL_GetTick() - tickstart) > MSI_TIMEOUT_VALUE)
;;;502              {
;;;503                return HAL_TIMEOUT;
;;;504              }
;;;505            }
;;;506             /* Selects the Multiple Speed oscillator (MSI) clock range .*/
;;;507            __HAL_RCC_MSI_RANGE_CONFIG(RCC_OscInitStruct->MSIClockRange);
;;;508             /* Adjusts the Multiple Speed oscillator (MSI) calibration value.*/
;;;509            __HAL_RCC_MSI_CALIBRATIONVALUE_ADJUST(RCC_OscInitStruct->MSICalibrationValue);
;;;510    
;;;511          }
;;;512          else
;;;513          {
;;;514            /* Disable the Internal High Speed oscillator (MSI). */
;;;515            __HAL_RCC_MSI_DISABLE();
00002a  6828              LDR      r0,[r5,#0]
00002c  d07a              BEQ      |L14.292|
00002e  f0400001          ORR      r0,r0,#1              ;493
000032  6028              STR      r0,[r5,#0]            ;493
000034  f7fffffe          BL       HAL_GetTick
000038  4680              MOV      r8,r0                 ;496
00003a  e05d              B        |L14.248|
                  |L14.60|
00003c  6828              LDR      r0,[r5,#0]            ;433
00003e  0780              LSLS     r0,r0,#30             ;433
000040  d502              BPL      |L14.72|
000042  69a0              LDR      r0,[r4,#0x18]         ;433
000044  2800              CMP      r0,#0                 ;433
000046  d0de              BEQ      |L14.6|
                  |L14.72|
000048  6a21              LDR      r1,[r4,#0x20]         ;444
00004a  6828              LDR      r0,[r5,#0]            ;444
00004c  0700              LSLS     r0,r0,#28             ;444
00004e  d503              BPL      |L14.88|
000050  6828              LDR      r0,[r5,#0]            ;444
000052  f00000f0          AND      r0,r0,#0xf0           ;444
000056  e004              B        |L14.98|
                  |L14.88|
000058  f8d50094          LDR      r0,[r5,#0x94]         ;444
;;;516    
;;;517            /* Get timeout */
;;;518            tickstart = HAL_GetTick();
;;;519    
;;;520            /* Wait till MSI is ready */
;;;521            while(READ_BIT(RCC->CR, RCC_CR_MSIRDY) != 0U)
;;;522            {
;;;523              if((HAL_GetTick() - tickstart) > MSI_TIMEOUT_VALUE)
;;;524              {
;;;525                return HAL_TIMEOUT;
;;;526              }
;;;527            }
;;;528          }
;;;529        }
;;;530      }
;;;531      /*------------------------------- HSE Configuration ------------------------*/
;;;532      if(((RCC_OscInitStruct->OscillatorType) & RCC_OSCILLATORTYPE_HSE) == RCC_OSCILLATORTYPE_HSE)
;;;533      {
;;;534        /* Check the parameters */
;;;535        assert_param(IS_RCC_HSE(RCC_OscInitStruct->HSEState));
;;;536    
;;;537        /* When the HSE is used as system clock or clock source for PLL in these cases it is not allowed to be disabled */
;;;538        if((sysclk_source == RCC_CFGR_SWS_HSE) ||
;;;539           ((sysclk_source == RCC_CFGR_SWS_PLL) && (pll_config == RCC_PLLSOURCE_HSE)))
;;;540        {
;;;541          if((READ_BIT(RCC->CR, RCC_CR_HSERDY) != 0U) && (RCC_OscInitStruct->HSEState == RCC_HSE_OFF))
;;;542          {
;;;543            return HAL_ERROR;
;;;544          }
;;;545        }
;;;546        else
;;;547        {
;;;548          /* Set the new HSE configuration ---------------------------------------*/
;;;549          __HAL_RCC_HSE_CONFIG(RCC_OscInitStruct->HSEState);
;;;550    
;;;551          /* Check the HSE State */
;;;552          if(RCC_OscInitStruct->HSEState != RCC_HSE_OFF)
;;;553          {
;;;554            /* Get Start Tick*/
;;;555            tickstart = HAL_GetTick();
;;;556    
;;;557            /* Wait till HSE is ready */
;;;558            while(READ_BIT(RCC->CR, RCC_CR_HSERDY) == 0U)
;;;559            {
;;;560              if((HAL_GetTick() - tickstart) > HSE_TIMEOUT_VALUE)
;;;561              {
;;;562                return HAL_TIMEOUT;
;;;563              }
;;;564            }
;;;565          }
;;;566          else
;;;567          {
;;;568            /* Get Start Tick*/
;;;569            tickstart = HAL_GetTick();
;;;570    
;;;571            /* Wait till HSE is disabled */
;;;572            while(READ_BIT(RCC->CR, RCC_CR_HSERDY) != 0U)
;;;573            {
;;;574              if((HAL_GetTick() - tickstart) > HSE_TIMEOUT_VALUE)
;;;575              {
;;;576                return HAL_TIMEOUT;
;;;577              }
;;;578            }
;;;579          }
;;;580        }
;;;581      }
;;;582      /*----------------------------- HSI Configuration --------------------------*/
;;;583      if(((RCC_OscInitStruct->OscillatorType) & RCC_OSCILLATORTYPE_HSI) == RCC_OSCILLATORTYPE_HSI)
;;;584      {
;;;585        /* Check the parameters */
;;;586        assert_param(IS_RCC_HSI(RCC_OscInitStruct->HSIState));
;;;587        assert_param(IS_RCC_HSI_CALIBRATION_VALUE(RCC_OscInitStruct->HSICalibrationValue));
;;;588    
;;;589        /* Check if HSI is used as system clock or as PLL source when PLL is selected as system clock */
;;;590        if((sysclk_source == RCC_CFGR_SWS_HSI) ||
;;;591           ((sysclk_source == RCC_CFGR_SWS_PLL) && (pll_config == RCC_PLLSOURCE_HSI)))
;;;592        {
;;;593          /* When HSI is used as system clock it will not be disabled */
;;;594          if((READ_BIT(RCC->CR, RCC_CR_HSIRDY) != 0U) && (RCC_OscInitStruct->HSIState == RCC_HSI_OFF))
;;;595          {
;;;596            return HAL_ERROR;
;;;597          }
;;;598          /* Otherwise, just the calibration is allowed */
;;;599          else
;;;600          {
;;;601            /* Adjusts the Internal High Speed oscillator (HSI) calibration value.*/
;;;602            __HAL_RCC_HSI_CALIBRATIONVALUE_ADJUST(RCC_OscInitStruct->HSICalibrationValue);
;;;603          }
;;;604        }
;;;605        else
;;;606        {
;;;607          /* Check the HSI State */
;;;608          if(RCC_OscInitStruct->HSIState != RCC_HSI_OFF)
;;;609          {
;;;610            /* Enable the Internal High Speed oscillator (HSI). */
;;;611            __HAL_RCC_HSI_ENABLE();
;;;612    
;;;613            /* Get Start Tick*/
;;;614            tickstart = HAL_GetTick();
;;;615    
;;;616            /* Wait till HSI is ready */
;;;617            while(READ_BIT(RCC->CR, RCC_CR_HSIRDY) == 0U)
;;;618            {
;;;619              if((HAL_GetTick() - tickstart) > HSI_TIMEOUT_VALUE)
;;;620              {
;;;621                return HAL_TIMEOUT;
;;;622              }
;;;623            }
;;;624    
;;;625            /* Adjusts the Internal High Speed oscillator (HSI) calibration value.*/
;;;626            __HAL_RCC_HSI_CALIBRATIONVALUE_ADJUST(RCC_OscInitStruct->HSICalibrationValue);
;;;627          }
;;;628          else
;;;629          {
;;;630            /* Disable the Internal High Speed oscillator (HSI). */
;;;631            __HAL_RCC_HSI_DISABLE();
;;;632    
;;;633            /* Get Start Tick*/
;;;634            tickstart = HAL_GetTick();
;;;635    
;;;636            /* Wait till HSI is disabled */
;;;637            while(READ_BIT(RCC->CR, RCC_CR_HSIRDY) != 0U)
;;;638            {
;;;639              if((HAL_GetTick() - tickstart) > HSI_TIMEOUT_VALUE)
;;;640              {
;;;641                return HAL_TIMEOUT;
;;;642              }
;;;643            }
;;;644          }
;;;645        }
;;;646      }
;;;647      /*------------------------------ LSI Configuration -------------------------*/
;;;648      if(((RCC_OscInitStruct->OscillatorType) & RCC_OSCILLATORTYPE_LSI) == RCC_OSCILLATORTYPE_LSI)
;;;649      {
;;;650        /* Check the parameters */
;;;651        assert_param(IS_RCC_LSI(RCC_OscInitStruct->LSIState));
;;;652    
;;;653        /* Check the LSI State */
;;;654        if(RCC_OscInitStruct->LSIState != RCC_LSI_OFF)
;;;655        {
;;;656    #if defined(RCC_CSR_LSIPREDIV)
;;;657          uint32_t csr_temp = RCC->CSR;
;;;658    
;;;659          /* Check LSI division factor */
;;;660          assert_param(IS_RCC_LSIDIV(RCC_OscInitStruct->LSIDiv));
;;;661    
;;;662          if (RCC_OscInitStruct->LSIDiv != (csr_temp & RCC_CSR_LSIPREDIV))
;;;663          {
;;;664            if (((csr_temp & RCC_CSR_LSIRDY) == RCC_CSR_LSIRDY) && \
;;;665                ((csr_temp & RCC_CSR_LSION) != RCC_CSR_LSION))
;;;666            {
;;;667               /* If LSIRDY is set while LSION is not enabled,
;;;668                  LSIPREDIV can't be updated  */
;;;669              return HAL_ERROR;
;;;670            }
;;;671    
;;;672            /* Turn off LSI before changing RCC_CSR_LSIPREDIV */
;;;673            if ((csr_temp & RCC_CSR_LSION) == RCC_CSR_LSION)
;;;674            {
;;;675              __HAL_RCC_LSI_DISABLE();
;;;676    
;;;677              /* Get Start Tick*/
;;;678              tickstart = HAL_GetTick();
;;;679    
;;;680              /* Wait till LSI is disabled */
;;;681              while(READ_BIT(RCC->CSR, RCC_CSR_LSIRDY) != 0U)
;;;682              {
;;;683                if((HAL_GetTick() - tickstart) > LSI_TIMEOUT_VALUE)
;;;684                {
;;;685                  return HAL_TIMEOUT;
;;;686                }
;;;687              }
;;;688            }
;;;689    
;;;690            /* Set LSI division factor */
;;;691            MODIFY_REG(RCC->CSR, RCC_CSR_LSIPREDIV, RCC_OscInitStruct->LSIDiv);
;;;692          }
;;;693    #endif /* RCC_CSR_LSIPREDIV */
;;;694    
;;;695          /* Enable the Internal Low Speed oscillator (LSI). */
;;;696          __HAL_RCC_LSI_ENABLE();
;;;697    
;;;698          /* Get Start Tick*/
;;;699          tickstart = HAL_GetTick();
;;;700    
;;;701          /* Wait till LSI is ready */
;;;702          while(READ_BIT(RCC->CSR, RCC_CSR_LSIRDY) == 0U)
;;;703          {
;;;704            if((HAL_GetTick() - tickstart) > LSI_TIMEOUT_VALUE)
;;;705            {
;;;706              return HAL_TIMEOUT;
;;;707            }
;;;708          }
;;;709        }
;;;710        else
;;;711        {
;;;712          /* Disable the Internal Low Speed oscillator (LSI). */
;;;713          __HAL_RCC_LSI_DISABLE();
;;;714    
;;;715          /* Get Start Tick*/
;;;716          tickstart = HAL_GetTick();
;;;717    
;;;718          /* Wait till LSI is disabled */
;;;719          while(READ_BIT(RCC->CSR, RCC_CSR_LSIRDY) != 0U)
;;;720          {
;;;721            if((HAL_GetTick() - tickstart) > LSI_TIMEOUT_VALUE)
;;;722            {
;;;723              return HAL_TIMEOUT;
;;;724            }
;;;725          }
;;;726        }
;;;727      }
;;;728      /*------------------------------ LSE Configuration -------------------------*/
;;;729      if(((RCC_OscInitStruct->OscillatorType) & RCC_OSCILLATORTYPE_LSE) == RCC_OSCILLATORTYPE_LSE)
;;;730      {
;;;731        FlagStatus       pwrclkchanged = RESET;
;;;732    
;;;733        /* Check the parameters */
;;;734        assert_param(IS_RCC_LSE(RCC_OscInitStruct->LSEState));
;;;735    
;;;736        /* Update LSE configuration in Backup Domain control register    */
;;;737        /* Requires to enable write access to Backup Domain of necessary */
;;;738        if(HAL_IS_BIT_CLR(RCC->APB1ENR1, RCC_APB1ENR1_PWREN))
;;;739        {
;;;740          __HAL_RCC_PWR_CLK_ENABLE();
;;;741          pwrclkchanged = SET;
;;;742        }
;;;743    
;;;744        if(HAL_IS_BIT_CLR(PWR->CR1, PWR_CR1_DBP))
;;;745        {
;;;746          /* Enable write access to Backup domain */
;;;747          SET_BIT(PWR->CR1, PWR_CR1_DBP);
;;;748    
;;;749          /* Wait for Backup domain Write protection disable */
;;;750          tickstart = HAL_GetTick();
;;;751    
;;;752          while(HAL_IS_BIT_CLR(PWR->CR1, PWR_CR1_DBP))
;;;753          {
;;;754            if((HAL_GetTick() - tickstart) > RCC_DBP_TIMEOUT_VALUE)
;;;755            {
;;;756              return HAL_TIMEOUT;
;;;757            }
;;;758          }
;;;759        }
;;;760    
;;;761        /* Set the new LSE configuration -----------------------------------------*/
;;;762    #if defined(RCC_BDCR_LSESYSDIS)
;;;763        if((RCC_OscInitStruct->LSEState & RCC_BDCR_LSEON) != 0U)
;;;764        {
;;;765          /* Set LSESYSDIS bit according to LSE propagation option (enabled or disabled) */
;;;766          MODIFY_REG(RCC->BDCR, RCC_BDCR_LSESYSDIS, (RCC_OscInitStruct->LSEState & RCC_BDCR_LSESYSDIS));
;;;767    
;;;768          if((RCC_OscInitStruct->LSEState & RCC_BDCR_LSEBYP) != 0U)
;;;769          {
;;;770            /* LSE oscillator bypass enable */
;;;771            SET_BIT(RCC->BDCR, RCC_BDCR_LSEBYP);
;;;772            SET_BIT(RCC->BDCR, RCC_BDCR_LSEON);
;;;773          }
;;;774          else
;;;775          {
;;;776            /* LSE oscillator enable */
;;;777            SET_BIT(RCC->BDCR, RCC_BDCR_LSEON);
;;;778          }
;;;779        }
;;;780        else
;;;781        {
;;;782          CLEAR_BIT(RCC->BDCR, RCC_BDCR_LSEON);
;;;783          CLEAR_BIT(RCC->BDCR, RCC_BDCR_LSEBYP);
;;;784        }
;;;785    #else
;;;786        __HAL_RCC_LSE_CONFIG(RCC_OscInitStruct->LSEState);
;;;787    #endif /* RCC_BDCR_LSESYSDIS */
;;;788    
;;;789        /* Check the LSE State */
;;;790        if(RCC_OscInitStruct->LSEState != RCC_LSE_OFF)
;;;791        {
;;;792          /* Get Start Tick*/
;;;793          tickstart = HAL_GetTick();
;;;794    
;;;795          /* Wait till LSE is ready */
;;;796          while(READ_BIT(RCC->BDCR, RCC_BDCR_LSERDY) == 0U)
;;;797          {
;;;798            if((HAL_GetTick() - tickstart) > RCC_LSE_TIMEOUT_VALUE)
;;;799            {
;;;800              return HAL_TIMEOUT;
;;;801            }
;;;802          }
;;;803        }
;;;804        else
;;;805        {
;;;806          /* Get Start Tick*/
;;;807          tickstart = HAL_GetTick();
;;;808    
;;;809          /* Wait till LSE is disabled */
;;;810          while(READ_BIT(RCC->BDCR, RCC_BDCR_LSERDY) != 0U)
;;;811          {
;;;812            if((HAL_GetTick() - tickstart) > RCC_LSE_TIMEOUT_VALUE)
;;;813            {
;;;814              return HAL_TIMEOUT;
;;;815            }
;;;816          }
;;;817    
;;;818    #if defined(RCC_BDCR_LSESYSDIS)
;;;819          /* By default, stop disabling LSE propagation */
;;;820          CLEAR_BIT(RCC->BDCR, RCC_BDCR_LSESYSDIS);
;;;821    #endif /* RCC_BDCR_LSESYSDIS */
;;;822        }
;;;823    
;;;824        /* Restore clock configuration if changed */
;;;825        if(pwrclkchanged == SET)
;;;826        {
;;;827          __HAL_RCC_PWR_CLK_DISABLE();
;;;828        }
;;;829      }
;;;830    #if defined(RCC_HSI48_SUPPORT)
;;;831      /*------------------------------ HSI48 Configuration -----------------------*/
;;;832      if(((RCC_OscInitStruct->OscillatorType) & RCC_OSCILLATORTYPE_HSI48) == RCC_OSCILLATORTYPE_HSI48)
;;;833      {
;;;834        /* Check the parameters */
;;;835        assert_param(IS_RCC_HSI48(RCC_OscInitStruct->HSI48State));
;;;836    
;;;837        /* Check the LSI State */
;;;838        if(RCC_OscInitStruct->HSI48State != RCC_HSI48_OFF)
;;;839        {
;;;840          /* Enable the Internal Low Speed oscillator (HSI48). */
;;;841          __HAL_RCC_HSI48_ENABLE();
;;;842    
;;;843          /* Get Start Tick*/
;;;844          tickstart = HAL_GetTick();
;;;845    
;;;846          /* Wait till HSI48 is ready */
;;;847          while(READ_BIT(RCC->CRRCR, RCC_CRRCR_HSI48RDY) == 0U)
;;;848          {
;;;849            if((HAL_GetTick() - tickstart) > HSI48_TIMEOUT_VALUE)
;;;850            {
;;;851              return HAL_TIMEOUT;
;;;852            }
;;;853          }
;;;854        }
;;;855        else
;;;856        {
;;;857          /* Disable the Internal Low Speed oscillator (HSI48). */
;;;858          __HAL_RCC_HSI48_DISABLE();
;;;859    
;;;860          /* Get Start Tick*/
;;;861          tickstart = HAL_GetTick();
;;;862    
;;;863          /* Wait till HSI48 is disabled */
;;;864          while(READ_BIT(RCC->CRRCR, RCC_CRRCR_HSI48RDY) != 0U)
;;;865          {
;;;866            if((HAL_GetTick() - tickstart) > HSI48_TIMEOUT_VALUE)
;;;867            {
;;;868              return HAL_TIMEOUT;
;;;869            }
;;;870          }
;;;871        }
;;;872      }
;;;873    #endif /* RCC_HSI48_SUPPORT */
;;;874      /*-------------------------------- PLL Configuration -----------------------*/
;;;875      /* Check the parameters */
;;;876      assert_param(IS_RCC_PLL(RCC_OscInitStruct->PLL.PLLState));
;;;877    
;;;878      if(RCC_OscInitStruct->PLL.PLLState != RCC_PLL_NONE)
;;;879      {
;;;880        /* PLL On ? */
;;;881        if(RCC_OscInitStruct->PLL.PLLState == RCC_PLL_ON)
;;;882        {
;;;883          /* Check the parameters */
;;;884          assert_param(IS_RCC_PLLSOURCE(RCC_OscInitStruct->PLL.PLLSource));
;;;885          assert_param(IS_RCC_PLLM_VALUE(RCC_OscInitStruct->PLL.PLLM));
;;;886          assert_param(IS_RCC_PLLN_VALUE(RCC_OscInitStruct->PLL.PLLN));
;;;887    #if defined(RCC_PLLP_SUPPORT)
;;;888          assert_param(IS_RCC_PLLP_VALUE(RCC_OscInitStruct->PLL.PLLP));
;;;889    #endif /* RCC_PLLP_SUPPORT */
;;;890          assert_param(IS_RCC_PLLQ_VALUE(RCC_OscInitStruct->PLL.PLLQ));
;;;891          assert_param(IS_RCC_PLLR_VALUE(RCC_OscInitStruct->PLL.PLLR));
;;;892    
;;;893          /* Do nothing if PLL configuration is the unchanged */
;;;894          pll_config = RCC->PLLCFGR;
;;;895          if((READ_BIT(pll_config, RCC_PLLCFGR_PLLSRC)  != RCC_OscInitStruct->PLL.PLLSource) ||
;;;896             (READ_BIT(pll_config, RCC_PLLCFGR_PLLM)    != ((RCC_OscInitStruct->PLL.PLLM - 1U) << RCC_PLLCFGR_PLLM_Pos)) ||
;;;897             (READ_BIT(pll_config, RCC_PLLCFGR_PLLN)    != (RCC_OscInitStruct->PLL.PLLN << RCC_PLLCFGR_PLLN_Pos)) ||
;;;898    #if defined(RCC_PLLP_SUPPORT)
;;;899    #if defined(RCC_PLLP_DIV_2_31_SUPPORT)
;;;900             (READ_BIT(pll_config, RCC_PLLCFGR_PLLPDIV) != (RCC_OscInitStruct->PLL.PLLP << RCC_PLLCFGR_PLLPDIV_Pos)) ||
;;;901    #else
;;;902             (READ_BIT(pll_config, RCC_PLLCFGR_PLLP)    != ((RCC_OscInitStruct->PLL.PLLP == RCC_PLLP_DIV7) ? 0U : 1U)) ||
;;;903    #endif
;;;904    #endif
;;;905             (READ_BIT(pll_config, RCC_PLLCFGR_PLLQ)    != ((((RCC_OscInitStruct->PLL.PLLQ) >> 1U) - 1U) << RCC_PLLCFGR_PLLQ_Pos)) ||
;;;906             (READ_BIT(pll_config, RCC_PLLCFGR_PLLR)    != ((((RCC_OscInitStruct->PLL.PLLR) >> 1U) - 1U) << RCC_PLLCFGR_PLLR_Pos)))
;;;907          {
;;;908            /* Check if the PLL is used as system clock or not */
;;;909            if(sysclk_source != RCC_CFGR_SWS_PLL)
;;;910            {
;;;911    #if defined(RCC_PLLSAI1_SUPPORT) || defined(RCC_PLLSAI2_SUPPORT)
;;;912              /* Check if main PLL can be updated */
;;;913              /* Not possible if the source is shared by other enabled PLLSAIx */
;;;914              if((READ_BIT(RCC->CR, RCC_CR_PLLSAI1ON) != 0U)
;;;915    #if defined(RCC_PLLSAI2_SUPPORT)
;;;916                 || (READ_BIT(RCC->CR, RCC_CR_PLLSAI2ON) != 0U)
;;;917    #endif
;;;918                )
;;;919              {
;;;920                return HAL_ERROR;
;;;921              }
;;;922              else
;;;923    #endif /* RCC_PLLSAI1_SUPPORT || RCC_PLLSAI2_SUPPORT */
;;;924              {
;;;925                /* Disable the main PLL. */
;;;926                __HAL_RCC_PLL_DISABLE();
;;;927    
;;;928                /* Get Start Tick*/
;;;929                tickstart = HAL_GetTick();
;;;930    
;;;931                /* Wait till PLL is ready */
;;;932                while(READ_BIT(RCC->CR, RCC_CR_PLLRDY) != 0U)
;;;933                {
;;;934                  if((HAL_GetTick() - tickstart) > PLL_TIMEOUT_VALUE)
;;;935                  {
;;;936                    return HAL_TIMEOUT;
;;;937                  }
;;;938                }
;;;939    
;;;940                /* Configure the main PLL clock source, multiplication and division factors. */
;;;941    #if defined(RCC_PLLP_SUPPORT)
;;;942                __HAL_RCC_PLL_CONFIG(RCC_OscInitStruct->PLL.PLLSource,
;;;943                                     RCC_OscInitStruct->PLL.PLLM,
;;;944                                     RCC_OscInitStruct->PLL.PLLN,
;;;945                                     RCC_OscInitStruct->PLL.PLLP,
;;;946                                     RCC_OscInitStruct->PLL.PLLQ,
;;;947                                     RCC_OscInitStruct->PLL.PLLR);
;;;948    #else
;;;949                __HAL_RCC_PLL_CONFIG(RCC_OscInitStruct->PLL.PLLSource,
;;;950                                     RCC_OscInitStruct->PLL.PLLM,
;;;951                                     RCC_OscInitStruct->PLL.PLLN,
;;;952                                     RCC_OscInitStruct->PLL.PLLQ,
;;;953                                     RCC_OscInitStruct->PLL.PLLR);
;;;954    #endif
;;;955    
;;;956                /* Enable the main PLL. */
;;;957                __HAL_RCC_PLL_ENABLE();
;;;958    
;;;959                /* Enable PLL System Clock output. */
;;;960                __HAL_RCC_PLLCLKOUT_ENABLE(RCC_PLL_SYSCLK);
;;;961    
;;;962                /* Get Start Tick*/
;;;963                tickstart = HAL_GetTick();
;;;964    
;;;965                /* Wait till PLL is ready */
;;;966                while(READ_BIT(RCC->CR, RCC_CR_PLLRDY) == 0U)
;;;967                {
;;;968                  if((HAL_GetTick() - tickstart) > PLL_TIMEOUT_VALUE)
;;;969                  {
;;;970                    return HAL_TIMEOUT;
;;;971                  }
;;;972                }
;;;973              }
;;;974            }
;;;975            else
;;;976            {
;;;977              /* PLL is already used as System core clock */
;;;978              return HAL_ERROR;
;;;979            }
;;;980          }
;;;981          else
;;;982          {
;;;983            /* PLL configuration is unchanged */
;;;984            /* Re-enable PLL if it was disabled (ie. low power mode) */
;;;985            if(READ_BIT(RCC->CR, RCC_CR_PLLRDY) == 0U)
;;;986            {
;;;987              /* Enable the main PLL. */
;;;988              __HAL_RCC_PLL_ENABLE();
;;;989    
;;;990              /* Enable PLL System Clock output. */
;;;991              __HAL_RCC_PLLCLKOUT_ENABLE(RCC_PLL_SYSCLK);
;;;992    
;;;993              /* Get Start Tick*/
;;;994              tickstart = HAL_GetTick();
;;;995    
;;;996              /* Wait till PLL is ready */
;;;997              while(READ_BIT(RCC->CR, RCC_CR_PLLRDY) == 0U)
;;;998              {
;;;999                if((HAL_GetTick() - tickstart) > PLL_TIMEOUT_VALUE)
;;;1000               {
;;;1001                 return HAL_TIMEOUT;
;;;1002               }
;;;1003             }
;;;1004           }
;;;1005         }
;;;1006       }
;;;1007       else
;;;1008       {
;;;1009         /* Check that PLL is not used as system clock or not */
;;;1010         if(sysclk_source != RCC_CFGR_SWS_PLL)
;;;1011         {
;;;1012           /* Disable the main PLL. */
;;;1013           __HAL_RCC_PLL_DISABLE();
;;;1014   
;;;1015           /* Get Start Tick*/
;;;1016           tickstart = HAL_GetTick();
;;;1017   
;;;1018           /* Wait till PLL is disabled */
;;;1019           while(READ_BIT(RCC->CR, RCC_CR_PLLRDY) != 0U)
;;;1020           {
;;;1021             if((HAL_GetTick() - tickstart) > PLL_TIMEOUT_VALUE)
;;;1022             {
;;;1023               return HAL_TIMEOUT;
;;;1024             }
;;;1025           }
;;;1026           /* Unselect main PLL clock source and disable main PLL outputs to save power */
;;;1027   #if defined(RCC_PLLSAI2_SUPPORT)
;;;1028           RCC->PLLCFGR &= ~(RCC_PLLCFGR_PLLSRC | RCC_PLL_SYSCLK | RCC_PLL_48M1CLK | RCC_PLL_SAI3CLK);
;;;1029   #elif defined(RCC_PLLSAI1_SUPPORT)
;;;1030           RCC->PLLCFGR &= ~(RCC_PLLCFGR_PLLSRC | RCC_PLL_SYSCLK | RCC_PLL_48M1CLK | RCC_PLL_SAI2CLK);
;;;1031   #else
;;;1032           RCC->PLLCFGR &= ~(RCC_PLLCFGR_PLLSRC | RCC_PLL_SYSCLK | RCC_PLL_48M1CLK);
;;;1033   #endif /* RCC_PLLSAI2_SUPPORT */
;;;1034         }
;;;1035         else
;;;1036         {
;;;1037           /* PLL is already used as System core clock */
;;;1038           return HAL_ERROR;
;;;1039         }
;;;1040       }
;;;1041     }
;;;1042     return HAL_OK;
;;;1043   }
00005c  22f0              MOVS     r2,#0xf0
00005e  ea021010          AND      r0,r2,r0,LSR #4
                  |L14.98|
000062  4281              CMP      r1,r0                 ;444
000064  d916              BLS      |L14.148|
000066  4608              MOV      r0,r1                 ;444
000068  f7fffffe          BL       RCC_SetFlashLatencyFromMSIRange
00006c  2800              CMP      r0,#0                 ;447
                  |L14.110|
00006e  d13b              BNE      |L14.232|
000070  6828              LDR      r0,[r5,#0]            ;453
000072  f0400008          ORR      r0,r0,#8              ;453
000076  6028              STR      r0,[r5,#0]            ;453
000078  6828              LDR      r0,[r5,#0]            ;453
00007a  6a21              LDR      r1,[r4,#0x20]         ;453
00007c  f02000f0          BIC      r0,r0,#0xf0           ;453
000080  4308              ORRS     r0,r0,r1              ;453
000082  6028              STR      r0,[r5,#0]            ;453
000084  6868              LDR      r0,[r5,#4]            ;455
000086  69e1              LDR      r1,[r4,#0x1c]         ;455
000088  f420407f          BIC      r0,r0,#0xff00         ;455
00008c  ea402001          ORR      r0,r0,r1,LSL #8       ;455
000090  6068              STR      r0,[r5,#4]            ;455
000092  e016              B        |L14.194|
                  |L14.148|
000094  6828              LDR      r0,[r5,#0]            ;461
000096  f0400008          ORR      r0,r0,#8              ;461
00009a  6028              STR      r0,[r5,#0]            ;461
00009c  6828              LDR      r0,[r5,#0]            ;461
00009e  6a21              LDR      r1,[r4,#0x20]         ;461
0000a0  f02000f0          BIC      r0,r0,#0xf0           ;461
0000a4  4308              ORRS     r0,r0,r1              ;461
0000a6  6028              STR      r0,[r5,#0]            ;461
0000a8  6868              LDR      r0,[r5,#4]            ;463
0000aa  69e1              LDR      r1,[r4,#0x1c]         ;463
0000ac  f420407f          BIC      r0,r0,#0xff00         ;463
0000b0  ea402001          ORR      r0,r0,r1,LSL #8       ;463
0000b4  6068              STR      r0,[r5,#4]            ;463
0000b6  b926              CBNZ     r6,|L14.194|
0000b8  6a20              LDR      r0,[r4,#0x20]         ;469
0000ba  f7fffffe          BL       RCC_SetFlashLatencyFromMSIRange
0000be  2800              CMP      r0,#0                 ;469
0000c0  d1d5              BNE      |L14.110|
                  |L14.194|
0000c2  f7fffffe          BL       HAL_RCC_GetSysClockFreq
0000c6  68a9              LDR      r1,[r5,#8]            ;477
0000c8  4acb              LDR      r2,|L14.1016|
0000ca  f3c11103          UBFX     r1,r1,#4,#4           ;477
0000ce  5c51              LDRB     r1,[r2,r1]            ;477
0000d0  f001011f          AND      r1,r1,#0x1f           ;477
0000d4  40c8              LSRS     r0,r0,r1              ;477
0000d6  49c9              LDR      r1,|L14.1020|
0000d8  6008              STR      r0,[r1,#0]            ;480  ; SystemCoreClock
0000da  48c9              LDR      r0,|L14.1024|
0000dc  6800              LDR      r0,[r0,#0]            ;480  ; uwTickPrio
0000de  f7fffffe          BL       HAL_InitTick
0000e2  2800              CMP      r0,#0                 ;481
0000e4  d17e              BNE      |L14.484|
                  |L14.230|
0000e6  e02e              B        |L14.326|
                  |L14.232|
0000e8  e0ca              B        |L14.640|
0000ea  bf00              NOP                            ;501
                  |L14.236|
0000ec  f7fffffe          BL       HAL_GetTick
0000f0  eba00008          SUB      r0,r0,r8              ;501
0000f4  2802              CMP      r0,#2                 ;501
                  |L14.246|
0000f6  d876              BHI      |L14.486|
                  |L14.248|
0000f8  6828              LDR      r0,[r5,#0]            ;499
0000fa  0780              LSLS     r0,r0,#30             ;499
0000fc  d5f6              BPL      |L14.236|
0000fe  6828              LDR      r0,[r5,#0]            ;507
000100  f0400008          ORR      r0,r0,#8              ;507
000104  6028              STR      r0,[r5,#0]            ;507
000106  6828              LDR      r0,[r5,#0]            ;507
000108  6a21              LDR      r1,[r4,#0x20]         ;507
00010a  f02000f0          BIC      r0,r0,#0xf0           ;507
00010e  4308              ORRS     r0,r0,r1              ;507
000110  6028              STR      r0,[r5,#0]            ;507
000112  6868              LDR      r0,[r5,#4]            ;509
000114  69e1              LDR      r1,[r4,#0x1c]         ;509
000116  f420407f          BIC      r0,r0,#0xff00         ;509
00011a  ea402001          ORR      r0,r0,r1,LSL #8       ;509
00011e  6068              STR      r0,[r5,#4]            ;509
000120  e011              B        |L14.326|
000122  e7ff              B        |L14.292|
                  |L14.292|
000124  f0200001          BIC      r0,r0,#1              ;515
000128  6028              STR      r0,[r5,#0]            ;515
00012a  f7fffffe          BL       HAL_GetTick
00012e  4680              MOV      r8,r0                 ;518
000130  e006              B        |L14.320|
000132  bf00              NOP                            ;523
                  |L14.308|
000134  f7fffffe          BL       HAL_GetTick
000138  eba00008          SUB      r0,r0,r8              ;523
00013c  2802              CMP      r0,#2                 ;523
                  |L14.318|
00013e  d8da              BHI      |L14.246|
                  |L14.320|
000140  6828              LDR      r0,[r5,#0]            ;521
000142  0780              LSLS     r0,r0,#30             ;521
000144  d4f6              BMI      |L14.308|
                  |L14.326|
000146  7820              LDRB     r0,[r4,#0]            ;532
000148  07c0              LSLS     r0,r0,#31             ;532
00014a  d040              BEQ      |L14.462|
00014c  2e08              CMP      r6,#8                 ;538
00014e  d018              BEQ      |L14.386|
000150  2e0c              CMP      r6,#0xc               ;539
000152  d101              BNE      |L14.344|
000154  2f03              CMP      r7,#3                 ;539
000156  d014              BEQ      |L14.386|
                  |L14.344|
000158  6860              LDR      r0,[r4,#4]            ;549
00015a  f5b03f80          CMP      r0,#0x10000           ;549
00015e  d017              BEQ      |L14.400|
000160  f5b02fa0          CMP      r0,#0x50000           ;549
000164  6828              LDR      r0,[r5,#0]            ;549
000166  d017              BEQ      |L14.408|
000168  f4203080          BIC      r0,r0,#0x10000        ;549
00016c  6028              STR      r0,[r5,#0]            ;549
00016e  6828              LDR      r0,[r5,#0]            ;549
000170  f4202080          BIC      r0,r0,#0x40000        ;549
                  |L14.372|
000174  6028              STR      r0,[r5,#0]            ;549
000176  6860              LDR      r0,[r4,#4]            ;552
000178  b1e0              CBZ      r0,|L14.436|
00017a  f7fffffe          BL       HAL_GetTick
00017e  4680              MOV      r8,r0                 ;555
000180  e014              B        |L14.428|
                  |L14.386|
000182  6828              LDR      r0,[r5,#0]            ;541
000184  0380              LSLS     r0,r0,#14             ;541
000186  d522              BPL      |L14.462|
000188  6860              LDR      r0,[r4,#4]            ;541
00018a  2800              CMP      r0,#0                 ;541
                  |L14.396|
00018c  d078              BEQ      |L14.640|
00018e  e01e              B        |L14.462|
                  |L14.400|
000190  6828              LDR      r0,[r5,#0]            ;549
000192  f4403080          ORR      r0,r0,#0x10000        ;549
000196  e7ed              B        |L14.372|
                  |L14.408|
000198  f4402080          ORR      r0,r0,#0x40000        ;549
00019c  6028              STR      r0,[r5,#0]            ;549
00019e  e7f7              B        |L14.400|
                  |L14.416|
0001a0  f7fffffe          BL       HAL_GetTick
0001a4  eba00008          SUB      r0,r0,r8              ;560
0001a8  2864              CMP      r0,#0x64              ;560
                  |L14.426|
0001aa  d8a4              BHI      |L14.246|
                  |L14.428|
0001ac  6828              LDR      r0,[r5,#0]            ;558
0001ae  0380              LSLS     r0,r0,#14             ;558
0001b0  d5f6              BPL      |L14.416|
0001b2  e00c              B        |L14.462|
                  |L14.436|
0001b4  f7fffffe          BL       HAL_GetTick
0001b8  4680              MOV      r8,r0                 ;569
0001ba  e005              B        |L14.456|
                  |L14.444|
0001bc  f7fffffe          BL       HAL_GetTick
0001c0  eba00008          SUB      r0,r0,r8              ;574
0001c4  2864              CMP      r0,#0x64              ;574
0001c6  d896              BHI      |L14.246|
                  |L14.456|
0001c8  6828              LDR      r0,[r5,#0]            ;572
0001ca  0380              LSLS     r0,r0,#14             ;572
0001cc  d4f6              BMI      |L14.444|
                  |L14.462|
0001ce  7820              LDRB     r0,[r4,#0]            ;583
0001d0  0780              LSLS     r0,r0,#30             ;583
0001d2  d53b              BPL      |L14.588|
0001d4  2e04              CMP      r6,#4                 ;590
0001d6  d011              BEQ      |L14.508|
0001d8  2e0c              CMP      r6,#0xc               ;591
0001da  d101              BNE      |L14.480|
0001dc  2f02              CMP      r7,#2                 ;591
0001de  d00d              BEQ      |L14.508|
                  |L14.480|
0001e0  68e0              LDR      r0,[r4,#0xc]          ;608
0001e2  e001              B        |L14.488|
                  |L14.484|
0001e4  e1aa              B        |L14.1340|
                  |L14.486|
0001e6  e0ff              B        |L14.1000|
                  |L14.488|
0001e8  2800              CMP      r0,#0                 ;608
0001ea  6828              LDR      r0,[r5,#0]            ;631
0001ec  d01e              BEQ      |L14.556|
0001ee  f4407080          ORR      r0,r0,#0x100          ;611
0001f2  6028              STR      r0,[r5,#0]            ;611
0001f4  f7fffffe          BL       HAL_GetTick
0001f8  4607              MOV      r7,r0                 ;614
0001fa  e00c              B        |L14.534|
                  |L14.508|
0001fc  6828              LDR      r0,[r5,#0]            ;594
0001fe  0540              LSLS     r0,r0,#21             ;594
000200  d50c              BPL      |L14.540|
000202  68e0              LDR      r0,[r4,#0xc]          ;594
000204  2800              CMP      r0,#0                 ;594
000206  d0c1              BEQ      |L14.396|
000208  e008              B        |L14.540|
00020a  bf00              NOP                            ;619
                  |L14.524|
00020c  f7fffffe          BL       HAL_GetTick
000210  1bc0              SUBS     r0,r0,r7              ;619
000212  2802              CMP      r0,#2                 ;619
000214  d893              BHI      |L14.318|
                  |L14.534|
000216  6828              LDR      r0,[r5,#0]            ;617
000218  0540              LSLS     r0,r0,#21             ;617
00021a  d5f7              BPL      |L14.524|
                  |L14.540|
00021c  6868              LDR      r0,[r5,#4]            ;626
00021e  7c21              LDRB     r1,[r4,#0x10]         ;626
000220  f02050f8          BIC      r0,r0,#0x1f000000     ;626
000224  ea406001          ORR      r0,r0,r1,LSL #24      ;626
000228  6068              STR      r0,[r5,#4]            ;626
00022a  e00f              B        |L14.588|
                  |L14.556|
00022c  f4207080          BIC      r0,r0,#0x100          ;631
000230  6028              STR      r0,[r5,#0]            ;631
000232  f7fffffe          BL       HAL_GetTick
000236  4607              MOV      r7,r0                 ;634
000238  e005              B        |L14.582|
00023a  bf00              NOP                            ;639
                  |L14.572|
00023c  f7fffffe          BL       HAL_GetTick
000240  1bc0              SUBS     r0,r0,r7              ;639
000242  2802              CMP      r0,#2                 ;639
000244  d8b1              BHI      |L14.426|
                  |L14.582|
000246  6828              LDR      r0,[r5,#0]            ;637
000248  0540              LSLS     r0,r0,#21             ;637
00024a  d4f7              BMI      |L14.572|
                  |L14.588|
00024c  7820              LDRB     r0,[r4,#0]            ;648
00024e  0700              LSLS     r0,r0,#28             ;648
000250  d529              BPL      |L14.678|
000252  6960              LDR      r0,[r4,#0x14]         ;654
000254  2800              CMP      r0,#0                 ;654
000256  f8d50094          LDR      r0,[r5,#0x94]         ;713
00025a  d012              BEQ      |L14.642|
00025c  f0400001          ORR      r0,r0,#1              ;696
000260  f8c50094          STR      r0,[r5,#0x94]         ;696
000264  f7fffffe          BL       HAL_GetTick
000268  4607              MOV      r7,r0                 ;699
00026a  e004              B        |L14.630|
                  |L14.620|
00026c  f7fffffe          BL       HAL_GetTick
000270  1bc0              SUBS     r0,r0,r7              ;704
000272  2802              CMP      r0,#2                 ;704
000274  d899              BHI      |L14.426|
                  |L14.630|
000276  f8d50094          LDR      r0,[r5,#0x94]         ;702
00027a  0780              LSLS     r0,r0,#30             ;702
00027c  d5f6              BPL      |L14.620|
00027e  e012              B        |L14.678|
                  |L14.640|
000280  e12b              B        |L14.1242|
                  |L14.642|
000282  f0200001          BIC      r0,r0,#1              ;713
000286  f8c50094          STR      r0,[r5,#0x94]         ;713
00028a  f7fffffe          BL       HAL_GetTick
00028e  4607              MOV      r7,r0                 ;716
000290  e005              B        |L14.670|
000292  bf00              NOP                            ;721
                  |L14.660|
000294  f7fffffe          BL       HAL_GetTick
000298  1bc0              SUBS     r0,r0,r7              ;721
00029a  2802              CMP      r0,#2                 ;721
00029c  d885              BHI      |L14.426|
                  |L14.670|
00029e  f8d50094          LDR      r0,[r5,#0x94]         ;719
0002a2  0780              LSLS     r0,r0,#30             ;719
0002a4  d4f6              BMI      |L14.660|
                  |L14.678|
0002a6  7820              LDRB     r0,[r4,#0]            ;729
0002a8  0740              LSLS     r0,r0,#29             ;729
0002aa  d566              BPL      |L14.890|
0002ac  6da8              LDR      r0,[r5,#0x58]         ;738
0002ae  2700              MOVS     r7,#0                 ;731
0002b0  00c0              LSLS     r0,r0,#3              ;738
0002b2  d408              BMI      |L14.710|
0002b4  6da8              LDR      r0,[r5,#0x58]         ;740
0002b6  f0405080          ORR      r0,r0,#0x10000000     ;740
0002ba  65a8              STR      r0,[r5,#0x58]         ;740
0002bc  6da8              LDR      r0,[r5,#0x58]         ;740
0002be  2701              MOVS     r7,#1                 ;741
0002c0  f0005080          AND      r0,r0,#0x10000000     ;740
0002c4  9000              STR      r0,[sp,#0]            ;741
                  |L14.710|
0002c6  484f              LDR      r0,|L14.1028|
0002c8  6801              LDR      r1,[r0,#0]            ;744
0002ca  05c9              LSLS     r1,r1,#23             ;744
0002cc  d412              BMI      |L14.756|
0002ce  6801              LDR      r1,[r0,#0]            ;747
0002d0  4681              MOV      r9,r0                 ;747
0002d2  f4417180          ORR      r1,r1,#0x100          ;747
0002d6  6001              STR      r1,[r0,#0]            ;747
0002d8  f7fffffe          BL       HAL_GetTick
0002dc  4680              MOV      r8,r0                 ;750
0002de  e005              B        |L14.748|
                  |L14.736|
0002e0  f7fffffe          BL       HAL_GetTick
0002e4  eba00008          SUB      r0,r0,r8              ;754
0002e8  2802              CMP      r0,#2                 ;754
0002ea  d87d              BHI      |L14.1000|
                  |L14.748|
0002ec  f8d90000          LDR      r0,[r9,#0]            ;752
0002f0  05c0              LSLS     r0,r0,#23             ;752
0002f2  d5f5              BPL      |L14.736|
                  |L14.756|
0002f4  68a0              LDR      r0,[r4,#8]            ;786
0002f6  2801              CMP      r0,#1                 ;786
0002f8  d016              BEQ      |L14.808|
0002fa  2805              CMP      r0,#5                 ;786
0002fc  f8d50090          LDR      r0,[r5,#0x90]         ;786
000300  d017              BEQ      |L14.818|
000302  f0200001          BIC      r0,r0,#1              ;786
000306  f8c50090          STR      r0,[r5,#0x90]         ;786
00030a  f8d50090          LDR      r0,[r5,#0x90]         ;786
00030e  f0200004          BIC      r0,r0,#4              ;786
000312  bf00              NOP                            ;786
                  |L14.788|
000314  f8c50090          STR      r0,[r5,#0x90]         ;786
000318  68a0              LDR      r0,[r4,#8]            ;798
00031a  f2413988          MOV      r9,#0x1388            ;798
00031e  b1c0              CBZ      r0,|L14.850|
000320  f7fffffe          BL       HAL_GetTick
000324  4680              MOV      r8,r0                 ;793
000326  e00f              B        |L14.840|
                  |L14.808|
000328  f8d50090          LDR      r0,[r5,#0x90]         ;786
00032c  f0400001          ORR      r0,r0,#1              ;786
000330  e7f0              B        |L14.788|
                  |L14.818|
000332  f0400004          ORR      r0,r0,#4              ;786
000336  f8c50090          STR      r0,[r5,#0x90]         ;786
00033a  e7f5              B        |L14.808|
                  |L14.828|
00033c  f7fffffe          BL       HAL_GetTick
000340  eba00108          SUB      r1,r0,r8              ;798
000344  4549              CMP      r1,r9                 ;798
000346  d84f              BHI      |L14.1000|
                  |L14.840|
000348  f8d50090          LDR      r0,[r5,#0x90]         ;796
00034c  0780              LSLS     r0,r0,#30             ;796
00034e  d5f5              BPL      |L14.828|
000350  e00e              B        |L14.880|
                  |L14.850|
000352  f7fffffe          BL       HAL_GetTick
000356  4680              MOV      r8,r0                 ;807
000358  e006              B        |L14.872|
00035a  bf00              NOP                            ;812
                  |L14.860|
00035c  f7fffffe          BL       HAL_GetTick
000360  eba00108          SUB      r1,r0,r8              ;812
000364  4549              CMP      r1,r9                 ;812
000366  d83f              BHI      |L14.1000|
                  |L14.872|
000368  f8d50090          LDR      r0,[r5,#0x90]         ;810
00036c  0780              LSLS     r0,r0,#30             ;810
00036e  d4f5              BMI      |L14.860|
                  |L14.880|
000370  b11f              CBZ      r7,|L14.890|
000372  6da8              LDR      r0,[r5,#0x58]         ;827
000374  f0205080          BIC      r0,r0,#0x10000000     ;827
000378  65a8              STR      r0,[r5,#0x58]         ;827
                  |L14.890|
00037a  7820              LDRB     r0,[r4,#0]            ;832
00037c  0680              LSLS     r0,r0,#26             ;832
00037e  d528              BPL      |L14.978|
000380  6a60              LDR      r0,[r4,#0x24]         ;838
000382  2800              CMP      r0,#0                 ;838
000384  f8d50098          LDR      r0,[r5,#0x98]         ;858
000388  d012              BEQ      |L14.944|
00038a  f0400001          ORR      r0,r0,#1              ;841
00038e  f8c50098          STR      r0,[r5,#0x98]         ;841
000392  f7fffffe          BL       HAL_GetTick
000396  4607              MOV      r7,r0                 ;844
000398  e005              B        |L14.934|
00039a  bf00              NOP                            ;849
                  |L14.924|
00039c  f7fffffe          BL       HAL_GetTick
0003a0  1bc0              SUBS     r0,r0,r7              ;849
0003a2  2802              CMP      r0,#2                 ;849
0003a4  d820              BHI      |L14.1000|
                  |L14.934|
0003a6  f8d50098          LDR      r0,[r5,#0x98]         ;847
0003aa  0780              LSLS     r0,r0,#30             ;847
0003ac  d5f6              BPL      |L14.924|
0003ae  e010              B        |L14.978|
                  |L14.944|
0003b0  f0200001          BIC      r0,r0,#1              ;858
0003b4  f8c50098          STR      r0,[r5,#0x98]         ;858
0003b8  f7fffffe          BL       HAL_GetTick
0003bc  4607              MOV      r7,r0                 ;861
0003be  e004              B        |L14.970|
                  |L14.960|
0003c0  f7fffffe          BL       HAL_GetTick
0003c4  1bc0              SUBS     r0,r0,r7              ;866
0003c6  2802              CMP      r0,#2                 ;866
0003c8  d80e              BHI      |L14.1000|
                  |L14.970|
0003ca  f8d50098          LDR      r0,[r5,#0x98]         ;864
0003ce  0780              LSLS     r0,r0,#30             ;864
0003d0  d4f6              BMI      |L14.960|
                  |L14.978|
0003d2  6aa0              LDR      r0,[r4,#0x28]         ;878
0003d4  b3f0              CBZ      r0,|L14.1108|
0003d6  2802              CMP      r0,#2                 ;881
0003d8  d016              BEQ      |L14.1032|
0003da  2e0c              CMP      r6,#0xc               ;1010
0003dc  d07d              BEQ      |L14.1242|
0003de  6828              LDR      r0,[r5,#0]            ;1013
0003e0  f0207080          BIC      r0,r0,#0x1000000      ;1013
0003e4  6028              STR      r0,[r5,#0]            ;1013
0003e6  e000              B        |L14.1002|
                  |L14.1000|
0003e8  e0a7              B        |L14.1338|
                  |L14.1002|
0003ea  f7fffffe          BL       HAL_GetTick
0003ee  4604              MOV      r4,r0                 ;1016
0003f0  e0a6              B        |L14.1344|
0003f2  0000              DCW      0x0000
                  |L14.1012|
                          DCD      0x40021000
                  |L14.1016|
                          DCD      AHBPrescTable
                  |L14.1020|
                          DCD      SystemCoreClock
                  |L14.1024|
                          DCD      uwTickPrio
                  |L14.1028|
                          DCD      0x40007000
                  |L14.1032|
000408  68e8              LDR      r0,[r5,#0xc]          ;894
00040a  6ae2              LDR      r2,[r4,#0x2c]         ;895
00040c  f0000103          AND      r1,r0,#3              ;895
000410  4291              CMP      r1,r2                 ;895
000412  d128              BNE      |L14.1126|
000414  6b21              LDR      r1,[r4,#0x30]         ;896
000416  f0000270          AND      r2,r0,#0x70           ;896
00041a  0109              LSLS     r1,r1,#4              ;896
00041c  3910              SUBS     r1,r1,#0x10           ;896
00041e  4291              CMP      r1,r2                 ;896
000420  d121              BNE      |L14.1126|
000422  6b62              LDR      r2,[r4,#0x34]         ;897
000424  f40041fe          AND      r1,r0,#0x7f00         ;897
000428  ebb12f02          CMP      r1,r2,LSL #8          ;897
00042c  d11b              BNE      |L14.1126|
00042e  f8942038          LDRB     r2,[r4,#0x38]         ;900
000432  f0004178          AND      r1,r0,#0xf8000000     ;900
000436  ebb16fc2          CMP      r1,r2,LSL #27         ;900
00043a  d114              BNE      |L14.1126|
00043c  8fa1              LDRH     r1,[r4,#0x3c]         ;905
00043e  f40002c0          AND      r2,r0,#0x600000       ;905
000442  0849              LSRS     r1,r1,#1              ;905
000444  0549              LSLS     r1,r1,#21             ;905
000446  f5a11100          SUB      r1,r1,#0x200000       ;905
00044a  4291              CMP      r1,r2                 ;905
00044c  d10b              BNE      |L14.1126|
00044e  f8941040          LDRB     r1,[r4,#0x40]         ;906
000452  e000              B        |L14.1110|
                  |L14.1108|
000454  e06a              B        |L14.1324|
                  |L14.1110|
000456  0849              LSRS     r1,r1,#1              ;906
000458  0649              LSLS     r1,r1,#25             ;906
00045a  f00060c0          AND      r0,r0,#0x6000000      ;906
00045e  f1a17100          SUB      r1,r1,#0x2000000      ;906
000462  4281              CMP      r1,r0                 ;906
000464  d04b              BEQ      |L14.1278|
                  |L14.1126|
000466  2e0c              CMP      r6,#0xc               ;909
000468  d073              BEQ      |L14.1362|
00046a  6828              LDR      r0,[r5,#0]            ;914
00046c  0140              LSLS     r0,r0,#5              ;914
00046e  d470              BMI      |L14.1362|
000470  6828              LDR      r0,[r5,#0]            ;926
000472  f0207080          BIC      r0,r0,#0x1000000      ;926
000476  6028              STR      r0,[r5,#0]            ;926
000478  f7fffffe          BL       HAL_GetTick
00047c  4606              MOV      r6,r0                 ;929
00047e  e004              B        |L14.1162|
                  |L14.1152|
000480  f7fffffe          BL       HAL_GetTick
000484  1b80              SUBS     r0,r0,r6              ;934
000486  2802              CMP      r0,#2                 ;934
000488  d857              BHI      |L14.1338|
                  |L14.1162|
00048a  6828              LDR      r0,[r5,#0]            ;932
00048c  0180              LSLS     r0,r0,#6              ;932
00048e  d4f7              BMI      |L14.1152|
000490  e9f4010b          LDRD     r0,r1,[r4,#0x2c]!     ;942
000494  f06f020f          MVN      r2,#0xf               ;942
000498  eb021101          ADD      r1,r2,r1,LSL #4       ;942
00049c  4308              ORRS     r0,r0,r1              ;942
00049e  8a21              LDRH     r1,[r4,#0x10]         ;942
0004a0  0452              LSLS     r2,r2,#17             ;942
0004a2  0849              LSRS     r1,r1,#1              ;942
0004a4  eb025141          ADD      r1,r2,r1,LSL #21      ;942
0004a8  68a2              LDR      r2,[r4,#8]            ;942
0004aa  ea412102          ORR      r1,r1,r2,LSL #8       ;942
0004ae  4308              ORRS     r0,r0,r1              ;942
0004b0  7d21              LDRB     r1,[r4,#0x14]         ;942
0004b2  f04f427e          MOV      r2,#0xfe000000        ;942
0004b6  0849              LSRS     r1,r1,#1              ;942
0004b8  eb026141          ADD      r1,r2,r1,LSL #25      ;942
0004bc  4308              ORRS     r0,r0,r1              ;942
0004be  7b21              LDRB     r1,[r4,#0xc]          ;942
0004c0  ea4060c1          ORR      r0,r0,r1,LSL #27      ;942
0004c4  68e9              LDR      r1,[r5,#0xc]          ;942
0004c6  4a24              LDR      r2,|L14.1368|
0004c8  4011              ANDS     r1,r1,r2              ;942
0004ca  4308              ORRS     r0,r0,r1              ;942
0004cc  60e8              STR      r0,[r5,#0xc]          ;942
0004ce  6828              LDR      r0,[r5,#0]            ;957
0004d0  f0407080          ORR      r0,r0,#0x1000000      ;957
0004d4  6028              STR      r0,[r5,#0]            ;957
0004d6  68e8              LDR      r0,[r5,#0xc]          ;960
0004d8  e000              B        |L14.1244|
                  |L14.1242|
0004da  e03a              B        |L14.1362|
                  |L14.1244|
0004dc  f0407080          ORR      r0,r0,#0x1000000      ;960
0004e0  60e8              STR      r0,[r5,#0xc]          ;960
0004e2  f7fffffe          BL       HAL_GetTick
0004e6  4604              MOV      r4,r0                 ;963
0004e8  e005              B        |L14.1270|
0004ea  bf00              NOP                            ;968
                  |L14.1260|
0004ec  f7fffffe          BL       HAL_GetTick
0004f0  1b00              SUBS     r0,r0,r4              ;968
0004f2  2802              CMP      r0,#2                 ;968
0004f4  d821              BHI      |L14.1338|
                  |L14.1270|
0004f6  6828              LDR      r0,[r5,#0]            ;966
0004f8  0180              LSLS     r0,r0,#6              ;966
0004fa  d5f7              BPL      |L14.1260|
0004fc  e027              B        |L14.1358|
                  |L14.1278|
0004fe  6828              LDR      r0,[r5,#0]            ;985
000500  0180              LSLS     r0,r0,#6              ;985
000502  d424              BMI      |L14.1358|
000504  6828              LDR      r0,[r5,#0]            ;988
000506  f0407080          ORR      r0,r0,#0x1000000      ;988
00050a  6028              STR      r0,[r5,#0]            ;988
00050c  68e8              LDR      r0,[r5,#0xc]          ;991
00050e  f0407080          ORR      r0,r0,#0x1000000      ;991
000512  60e8              STR      r0,[r5,#0xc]          ;991
000514  f7fffffe          BL       HAL_GetTick
000518  4604              MOV      r4,r0                 ;994
00051a  e004              B        |L14.1318|
                  |L14.1308|
00051c  f7fffffe          BL       HAL_GetTick
000520  1b00              SUBS     r0,r0,r4              ;999
000522  2802              CMP      r0,#2                 ;999
000524  d809              BHI      |L14.1338|
                  |L14.1318|
000526  6828              LDR      r0,[r5,#0]            ;997
000528  0180              LSLS     r0,r0,#6              ;997
00052a  d5f7              BPL      |L14.1308|
                  |L14.1324|
00052c  e00f              B        |L14.1358|
00052e  bf00              NOP                            ;1021
                  |L14.1328|
000530  f7fffffe          BL       HAL_GetTick
000534  1b00              SUBS     r0,r0,r4              ;1021
000536  2802              CMP      r0,#2                 ;1021
000538  d902              BLS      |L14.1344|
                  |L14.1338|
00053a  2003              MOVS     r0,#3                 ;1023
                  |L14.1340|
00053c  e8bd83f8          POP      {r3-r9,pc}
                  |L14.1344|
000540  6828              LDR      r0,[r5,#0]            ;1019
000542  0180              LSLS     r0,r0,#6              ;1019
000544  d4f4              BMI      |L14.1328|
000546  68e8              LDR      r0,[r5,#0xc]          ;1030
000548  4904              LDR      r1,|L14.1372|
00054a  4008              ANDS     r0,r0,r1              ;1030
00054c  60e8              STR      r0,[r5,#0xc]          ;1030
                  |L14.1358|
00054e  2000              MOVS     r0,#0                 ;1042
000550  e7f4              B        |L14.1340|
                  |L14.1362|
000552  2001              MOVS     r0,#1                 ;1038
000554  e7f2              B        |L14.1340|
;;;1044   
                          ENDP

000556  0000              DCW      0x0000
                  |L14.1368|
                          DCD      0x019d808c
                  |L14.1372|
                          DCD      0xfeeefffc

                          AREA ||i.RCC_SetFlashLatencyFromMSIRange||, CODE, READONLY, ALIGN=2

                  RCC_SetFlashLatencyFromMSIRange PROC
;;;1784     */
;;;1785   static HAL_StatusTypeDef RCC_SetFlashLatencyFromMSIRange(uint32_t msirange)
000000  b5f8              PUSH     {r3-r7,lr}
;;;1786   {
;;;1787     uint32_t vos;
;;;1788     uint32_t latency = FLASH_LATENCY_0;  /* default value 0WS */
;;;1789   
;;;1790     if(__HAL_RCC_PWR_IS_CLK_ENABLED())
000002  4d1c              LDR      r5,|L15.116|
000004  4606              MOV      r6,r0                 ;1786
000006  2400              MOVS     r4,#0                 ;1788
000008  6da8              LDR      r0,[r5,#0x58]
00000a  00c0              LSLS     r0,r0,#3
00000c  d502              BPL      |L15.20|
;;;1791     {
;;;1792       vos = HAL_PWREx_GetVoltageRange();
00000e  f7fffffe          BL       HAL_PWREx_GetVoltageRange
000012  e00d              B        |L15.48|
                  |L15.20|
;;;1793     }
;;;1794     else
;;;1795     {
;;;1796       __HAL_RCC_PWR_CLK_ENABLE();
000014  6da8              LDR      r0,[r5,#0x58]
000016  f0405080          ORR      r0,r0,#0x10000000
00001a  65a8              STR      r0,[r5,#0x58]
00001c  6da8              LDR      r0,[r5,#0x58]
00001e  f0005080          AND      r0,r0,#0x10000000
;;;1797       vos = HAL_PWREx_GetVoltageRange();
000022  9000              STR      r0,[sp,#0]
000024  f7fffffe          BL       HAL_PWREx_GetVoltageRange
;;;1798       __HAL_RCC_PWR_CLK_DISABLE();
000028  6da9              LDR      r1,[r5,#0x58]
00002a  f0215180          BIC      r1,r1,#0x10000000
00002e  65a9              STR      r1,[r5,#0x58]
                  |L15.48|
;;;1799     }
;;;1800   
;;;1801     if(vos == PWR_REGULATOR_VOLTAGE_SCALE1)
000030  f5b07f00          CMP      r0,#0x200
000034  d004              BEQ      |L15.64|
;;;1802     {
;;;1803       if(msirange > RCC_MSIRANGE_8)
;;;1804       {
;;;1805         /* MSI > 16Mhz */
;;;1806         if(msirange > RCC_MSIRANGE_10)
;;;1807         {
;;;1808           /* MSI 48Mhz */
;;;1809           latency = FLASH_LATENCY_2; /* 2WS */
;;;1810         }
;;;1811         else
;;;1812         {
;;;1813           /* MSI 24Mhz or 32Mhz */
;;;1814           latency = FLASH_LATENCY_1; /* 1WS */
;;;1815         }
;;;1816       }
;;;1817       /* else MSI <= 16Mhz default FLASH_LATENCY_0 0WS */
;;;1818     }
;;;1819     else
;;;1820     {
;;;1821   #if defined(STM32L4P5xx) || defined(STM32L4Q5xx) || \
;;;1822       defined(STM32L4R5xx) || defined(STM32L4R7xx) || defined(STM32L4R9xx) || defined(STM32L4S5xx) || defined(STM32L4S7xx) || defined(STM32L4S9xx)
;;;1823       if(msirange >= RCC_MSIRANGE_8)
;;;1824       {
;;;1825         /* MSI >= 16Mhz */
;;;1826         latency = FLASH_LATENCY_2; /* 2WS */
;;;1827       }
;;;1828       else
;;;1829       {
;;;1830         if(msirange == RCC_MSIRANGE_7)
;;;1831         {
;;;1832           /* MSI 8Mhz */
;;;1833           latency = FLASH_LATENCY_1; /* 1WS */
;;;1834         }
;;;1835         /* else MSI < 8Mhz default FLASH_LATENCY_0 0WS */
;;;1836       }
;;;1837   #else
;;;1838       if(msirange > RCC_MSIRANGE_8)
000036  2e80              CMP      r6,#0x80
000038  d907              BLS      |L15.74|
;;;1839       {
;;;1840         /* MSI > 16Mhz */
;;;1841         latency = FLASH_LATENCY_3; /* 3WS */
00003a  f04f0403          MOV      r4,#3
00003e  e00a              B        |L15.86|
                  |L15.64|
000040  2e80              CMP      r6,#0x80              ;1803
000042  d908              BLS      |L15.86|
000044  2ea0              CMP      r6,#0xa0              ;1806
000046  d801              BHI      |L15.76|
000048  e004              B        |L15.84|
                  |L15.74|
;;;1842       }
;;;1843       else
;;;1844       {
;;;1845         if(msirange == RCC_MSIRANGE_8)
00004a  d101              BNE      |L15.80|
                  |L15.76|
;;;1846         {
;;;1847           /* MSI 16Mhz */
;;;1848           latency = FLASH_LATENCY_2; /* 2WS */
00004c  2402              MOVS     r4,#2
00004e  e002              B        |L15.86|
                  |L15.80|
;;;1849         }
;;;1850         else if(msirange == RCC_MSIRANGE_7)
000050  2e70              CMP      r6,#0x70
000052  d100              BNE      |L15.86|
                  |L15.84|
;;;1851         {
;;;1852           /* MSI 8Mhz */
;;;1853           latency = FLASH_LATENCY_1; /* 1WS */
000054  2401              MOVS     r4,#1
                  |L15.86|
;;;1854         }
;;;1855         /* else MSI < 8Mhz default FLASH_LATENCY_0 0WS */
;;;1856       }
;;;1857   #endif
;;;1858     }
;;;1859   
;;;1860     __HAL_FLASH_SET_LATENCY(latency);
000056  4808              LDR      r0,|L15.120|
000058  6801              LDR      r1,[r0,#0]
00005a  f0210107          BIC      r1,r1,#7
00005e  4321              ORRS     r1,r1,r4
000060  6001              STR      r1,[r0,#0]
;;;1861   
;;;1862     /* Check that the new number of wait states is taken into account to access the Flash
;;;1863        memory by reading the FLASH_ACR register */
;;;1864     if(__HAL_FLASH_GET_LATENCY() != latency)
000062  6800              LDR      r0,[r0,#0]
000064  f0000007          AND      r0,r0,#7
000068  42a0              CMP      r0,r4
00006a  d001              BEQ      |L15.112|
;;;1865     {
;;;1866       return HAL_ERROR;
00006c  2001              MOVS     r0,#1
;;;1867     }
;;;1868   
;;;1869     return HAL_OK;
;;;1870   }
00006e  bdf8              POP      {r3-r7,pc}
                  |L15.112|
000070  2000              MOVS     r0,#0                 ;1869
000072  bdf8              POP      {r3-r7,pc}
;;;1871   
                          ENDP

                  |L15.116|
                          DCD      0x40021000
                  |L15.120|
                          DCD      0x40022000

;*** Start embedded assembler ***

#line 1 "../Drivers/STM32L4xx_HAL_Driver/Src/stm32l4xx_hal_rcc.c"
	AREA ||.rev16_text||, CODE
	THUMB
	EXPORT |__asm___19_stm32l4xx_hal_rcc_c_b7071a4b____REV16|
#line 492 "../Drivers/CMSIS/Include/cmsis_armcc.h"
|__asm___19_stm32l4xx_hal_rcc_c_b7071a4b____REV16| PROC
#line 493

 rev16 r0, r0
 bx lr
	ENDP
	AREA ||.revsh_text||, CODE
	THUMB
	EXPORT |__asm___19_stm32l4xx_hal_rcc_c_b7071a4b____REVSH|
#line 507
|__asm___19_stm32l4xx_hal_rcc_c_b7071a4b____REVSH| PROC
#line 508

 revsh r0, r0
 bx lr
	ENDP
	AREA ||.rrx_text||, CODE
	THUMB
	EXPORT |__asm___19_stm32l4xx_hal_rcc_c_b7071a4b____RRX|
#line 694
|__asm___19_stm32l4xx_hal_rcc_c_b7071a4b____RRX| PROC
#line 695

 rrx r0, r0
 bx lr
	ENDP

;*** End   embedded assembler ***
