; generated by Component: ARM Compiler 5.06 update 6 (build 750) Tool: ArmCC [4d3637]
; commandline ArmCC [--c99 --split_sections --debug -c --asm --interleave -osmart_tracker_datn_nas\stm32l4xx_hal_adc_ex.o --asm_dir=./ --list_dir=--list --depend=smart_tracker_datn_nas\stm32l4xx_hal_adc_ex.d --cpu=Cortex-M4.fp --apcs=interwork -O3 --diag_suppress=9931 -I../Core/Inc -I../Drivers/STM32L4xx_HAL_Driver/Inc -I../Drivers/STM32L4xx_HAL_Driver/Inc/Legacy -I../Drivers/CMSIS/Device/ST/STM32L4xx/Include -I../Drivers/CMSIS/Include -I../Lib/BSP -I../Lib/Driver_Custom -I../Lib/Services/StorageManager -I../Lib/Task -I../Lib/Utils -I../Middlewares/Third_Party/FreeRTOS/Source/include -I../Middlewares/Third_Party/FreeRTOS/Source/CMSIS_RTOS -I../Middlewares/Third_Party/FreeRTOS/Source/portable/RVDS/ARM_CM4F -I.\RTE\_Smart_tracker_DATN_NAS -ID:\Keil_C\ARM\CMSIS\5.5.1\CMSIS\Core\Include -ID:\Keil_C\Keil\STM32L4xx_DFP\2.2.0\Drivers\CMSIS\Device\ST\STM32L4xx\Include -D__UVISION_VERSION=528 -D_RTE_ -DSTM32L431xx -DUSE_HAL_DRIVER -DSTM32L431xx --omf_browse=smart_tracker_datn_nas\stm32l4xx_hal_adc_ex.crf ../Drivers/STM32L4xx_HAL_Driver/Src/stm32l4xx_hal_adc_ex.c]
                          THUMB

                          AREA ||i.HAL_ADCEx_Calibration_GetValue||, CODE, READONLY, ALIGN=1

                  HAL_ADCEx_Calibration_GetValue PROC
;;;191      */
;;;192    uint32_t HAL_ADCEx_Calibration_GetValue(ADC_HandleTypeDef *hadc, uint32_t SingleDiff)
000000  6800              LDR      r0,[r0,#0]
000002  f8d000b4          LDR      r0,[r0,#0xb4]
000006  f001127f          AND      r2,r1,#0x7f007f
00000a  4010              ANDS     r0,r0,r2
00000c  2210              MOVS     r2,#0x10
00000e  ea023111          AND      r1,r2,r1,LSR #12
000012  40c8              LSRS     r0,r0,r1
;;;193    {
;;;194      /* Check the parameters */
;;;195      assert_param(IS_ADC_ALL_INSTANCE(hadc->Instance));
;;;196      assert_param(IS_ADC_SINGLE_DIFFERENTIAL(SingleDiff));
;;;197    
;;;198      /* Return the selected ADC calibration value */
;;;199      return LL_ADC_GetCalibrationFactor(hadc->Instance, SingleDiff);
;;;200    }
000014  4770              BX       lr
;;;201    
                          ENDP


                          AREA ||i.HAL_ADCEx_Calibration_SetValue||, CODE, READONLY, ALIGN=1

                  HAL_ADCEx_Calibration_SetValue PROC
;;;211      */
;;;212    HAL_StatusTypeDef HAL_ADCEx_Calibration_SetValue(ADC_HandleTypeDef *hadc, uint32_t SingleDiff,
000000  e92d41f0          PUSH     {r4-r8,lr}
;;;213                                                     uint32_t CalibrationFactor)
;;;214    {
000004  4604              MOV      r4,r0
;;;215      HAL_StatusTypeDef tmp_hal_status = HAL_OK;
;;;216      uint32_t tmp_adc_is_conversion_on_going_regular;
;;;217      uint32_t tmp_adc_is_conversion_on_going_injected;
;;;218    
;;;219      /* Check the parameters */
;;;220      assert_param(IS_ADC_ALL_INSTANCE(hadc->Instance));
;;;221      assert_param(IS_ADC_SINGLE_DIFFERENTIAL(SingleDiff));
;;;222      assert_param(IS_ADC_CALFACT(CalibrationFactor));
;;;223    
;;;224      /* Process locked */
;;;225      __HAL_LOCK(hadc);
000006  f8900050          LDRB     r0,[r0,#0x50]
00000a  2700              MOVS     r7,#0                 ;215
00000c  4616              MOV      r6,r2                 ;214
00000e  460d              MOV      r5,r1                 ;214
000010  2801              CMP      r0,#1
000012  d013              BEQ      |L2.60|
000014  2001              MOVS     r0,#1
000016  f8840050          STRB     r0,[r4,#0x50]
;;;226    
;;;227      /* Verification of hardware constraints before modifying the calibration    */
;;;228      /* factors register: ADC must be enabled, no conversion on going.           */
;;;229      tmp_adc_is_conversion_on_going_regular = LL_ADC_REG_IsConversionOngoing(hadc->Instance);
00001a  6820              LDR      r0,[r4,#0]
00001c  f7fffffe          BL       LL_ADC_REG_IsConversionOngoing
000020  4680              MOV      r8,r0
;;;230      tmp_adc_is_conversion_on_going_injected = LL_ADC_INJ_IsConversionOngoing(hadc->Instance);
000022  6820              LDR      r0,[r4,#0]
000024  f7fffffe          BL       LL_ADC_INJ_IsConversionOngoing
000028  4601              MOV      r1,r0
00002a  6820              LDR      r0,[r4,#0]
00002c  6882              LDR      r2,[r0,#8]
00002e  f0120f01          TST      r2,#1
000032  d007              BEQ      |L2.68|
;;;231    
;;;232      if ((LL_ADC_IsEnabled(hadc->Instance) != 0UL)
;;;233          && (tmp_adc_is_conversion_on_going_regular == 0UL)
000034  f1b80f00          CMP      r8,#0
000038  d003              BEQ      |L2.66|
00003a  e003              B        |L2.68|
                  |L2.60|
00003c  2002              MOVS     r0,#2                 ;225
                  |L2.62|
;;;234          && (tmp_adc_is_conversion_on_going_injected == 0UL)
;;;235         )
;;;236      {
;;;237        /* Set the selected ADC calibration value */
;;;238        LL_ADC_SetCalibrationFactor(hadc->Instance, SingleDiff, CalibrationFactor);
;;;239      }
;;;240      else
;;;241      {
;;;242        /* Update ADC state machine */
;;;243        SET_BIT(hadc->State, HAL_ADC_STATE_ERROR_CONFIG);
;;;244        /* Update ADC error code */
;;;245        SET_BIT(hadc->ErrorCode, HAL_ADC_ERROR_INTERNAL);
;;;246    
;;;247        /* Update ADC state machine to error */
;;;248        tmp_hal_status = HAL_ERROR;
;;;249      }
;;;250    
;;;251      /* Process unlocked */
;;;252      __HAL_UNLOCK(hadc);
;;;253    
;;;254      /* Return function status */
;;;255      return tmp_hal_status;
;;;256    }
00003e  e8bd81f0          POP      {r4-r8,pc}
                  |L2.66|
000042  b169              CBZ      r1,|L2.96|
                  |L2.68|
000044  6d60              LDR      r0,[r4,#0x54]         ;243
000046  f0400020          ORR      r0,r0,#0x20           ;243
00004a  6560              STR      r0,[r4,#0x54]         ;243
00004c  6da0              LDR      r0,[r4,#0x58]         ;245
00004e  f0400001          ORR      r0,r0,#1              ;245
000052  65a0              STR      r0,[r4,#0x58]         ;245
000054  2701              MOVS     r7,#1                 ;248
                  |L2.86|
000056  2000              MOVS     r0,#0                 ;252
000058  f8840050          STRB     r0,[r4,#0x50]         ;252
00005c  4638              MOV      r0,r7                 ;255
00005e  e7ee              B        |L2.62|
                  |L2.96|
000060  f8501fb4          LDR      r1,[r0,#0xb4]!
000064  f005127f          AND      r2,r5,#0x7f007f
000068  4391              BICS     r1,r1,r2
00006a  0b2a              LSRS     r2,r5,#12
00006c  43aa              BICS     r2,r2,r5
00006e  f0020210          AND      r2,r2,#0x10
000072  4096              LSLS     r6,r6,r2
000074  4331              ORRS     r1,r1,r6
000076  6001              STR      r1,[r0,#0]
000078  e7ed              B        |L2.86|
;;;257    
                          ENDP


                          AREA ||i.HAL_ADCEx_Calibration_Start||, CODE, READONLY, ALIGN=2

                  HAL_ADCEx_Calibration_Start PROC
;;;117      */
;;;118    HAL_StatusTypeDef HAL_ADCEx_Calibration_Start(ADC_HandleTypeDef *hadc, uint32_t SingleDiff)
000000  b5f8              PUSH     {r3-r7,lr}
;;;119    {
;;;120      HAL_StatusTypeDef tmp_hal_status;
;;;121      __IO uint32_t wait_loop_index = 0UL;
000002  2600              MOVS     r6,#0
000004  4604              MOV      r4,r0                 ;119
;;;122    
;;;123      /* Check the parameters */
;;;124      assert_param(IS_ADC_ALL_INSTANCE(hadc->Instance));
;;;125      assert_param(IS_ADC_SINGLE_DIFFERENTIAL(SingleDiff));
;;;126    
;;;127      /* Process locked */
;;;128      __HAL_LOCK(hadc);
000006  9600              STR      r6,[sp,#0]
000008  f8900050          LDRB     r0,[r0,#0x50]
00000c  460d              MOV      r5,r1                 ;119
00000e  2801              CMP      r0,#1
000010  d00b              BEQ      |L3.42|
000012  2001              MOVS     r0,#1
000014  f8840050          STRB     r0,[r4,#0x50]
;;;129    
;;;130      /* Calibration prerequisite: ADC must be disabled. */
;;;131    
;;;132      /* Disable the ADC (if not already disabled) */
;;;133      tmp_hal_status = ADC_Disable(hadc);
000018  4620              MOV      r0,r4
00001a  f7fffffe          BL       ADC_Disable
00001e  0001              MOVS     r1,r0
;;;134    
;;;135      /* Check if ADC is effectively disabled */
;;;136      if (tmp_hal_status == HAL_OK)
;;;137      {
;;;138        /* Set ADC state */
;;;139        ADC_STATE_CLR_SET(hadc->State,
;;;140                          HAL_ADC_STATE_REG_BUSY | HAL_ADC_STATE_INJ_BUSY,
;;;141                          HAL_ADC_STATE_BUSY_INTERNAL);
;;;142    
;;;143        /* Start ADC calibration in mode single-ended or differential */
;;;144        LL_ADC_StartCalibration(hadc->Instance, SingleDiff);
;;;145    
;;;146        /* Wait for calibration completion */
;;;147        while (LL_ADC_IsCalibrationOnGoing(hadc->Instance) != 0UL)
;;;148        {
;;;149          wait_loop_index++;
;;;150          if (wait_loop_index >= ADC_CALIBRATION_TIMEOUT)
;;;151          {
;;;152            /* Update ADC state machine to error */
;;;153            ADC_STATE_CLR_SET(hadc->State,
;;;154                              HAL_ADC_STATE_BUSY_INTERNAL,
;;;155                              HAL_ADC_STATE_ERROR_INTERNAL);
;;;156    
;;;157            /* Process unlocked */
;;;158            __HAL_UNLOCK(hadc);
;;;159    
;;;160            return HAL_ERROR;
;;;161          }
;;;162        }
;;;163    
;;;164        /* Set ADC state */
;;;165        ADC_STATE_CLR_SET(hadc->State,
;;;166                          HAL_ADC_STATE_BUSY_INTERNAL,
;;;167                          HAL_ADC_STATE_READY);
;;;168      }
;;;169      else
;;;170      {
;;;171        SET_BIT(hadc->State, HAL_ADC_STATE_ERROR_INTERNAL);
000020  6d60              LDR      r0,[r4,#0x54]
000022  d004              BEQ      |L3.46|
000024  f0400010          ORR      r0,r0,#0x10
000028  e02b              B        |L3.130|
                  |L3.42|
00002a  2002              MOVS     r0,#2                 ;128
;;;172    
;;;173        /* Note: No need to update variable "tmp_hal_status" here: already set    */
;;;174        /*       to state "HAL_ERROR" by function disabling the ADC.              */
;;;175      }
;;;176    
;;;177      /* Process unlocked */
;;;178      __HAL_UNLOCK(hadc);
;;;179    
;;;180      /* Return function status */
;;;181      return tmp_hal_status;
;;;182    }
00002c  bdf8              POP      {r3-r7,pc}
                  |L3.46|
00002e  f4205088          BIC      r0,r0,#0x1100         ;139
000032  f0400002          ORR      r0,r0,#2              ;139
000036  6560              STR      r0,[r4,#0x54]         ;139
000038  6820              LDR      r0,[r4,#0]            ;139
00003a  6882              LDR      r2,[r0,#8]            ;139
00003c  4b13              LDR      r3,|L3.140|
00003e  401a              ANDS     r2,r2,r3              ;139
000040  f0054380          AND      r3,r5,#0x40000000     ;139
000044  431a              ORRS     r2,r2,r3              ;139
000046  f0424200          ORR      r2,r2,#0x80000000     ;139
00004a  6082              STR      r2,[r0,#8]            ;139
00004c  f44f2391          MOV      r3,#0x48800           ;150
000050  6820              LDR      r0,[r4,#0]            ;147
000052  e00e              B        |L3.114|
                  |L3.84|
000054  9a00              LDR      r2,[sp,#0]            ;149
000056  1c52              ADDS     r2,r2,#1              ;149
000058  9200              STR      r2,[sp,#0]            ;150
00005a  429a              CMP      r2,r3                 ;150
00005c  d309              BCC      |L3.114|
00005e  6d60              LDR      r0,[r4,#0x54]         ;153
000060  f0200002          BIC      r0,r0,#2              ;153
000064  f0400010          ORR      r0,r0,#0x10           ;153
000068  6560              STR      r0,[r4,#0x54]         ;153
00006a  f8846050          STRB     r6,[r4,#0x50]         ;158
00006e  2001              MOVS     r0,#1                 ;160
000070  bdf8              POP      {r3-r7,pc}
                  |L3.114|
000072  6882              LDR      r2,[r0,#8]
000074  0fd2              LSRS     r2,r2,#31
000076  d1ed              BNE      |L3.84|
000078  6d60              LDR      r0,[r4,#0x54]         ;165
00007a  f0200002          BIC      r0,r0,#2              ;165
00007e  f0400001          ORR      r0,r0,#1              ;165
                  |L3.130|
000082  6560              STR      r0,[r4,#0x54]         ;171
000084  f8846050          STRB     r6,[r4,#0x50]         ;178
000088  4608              MOV      r0,r1                 ;181
00008a  bdf8              POP      {r3-r7,pc}
;;;183    
                          ENDP

                  |L3.140|
                          DCD      0x3fffffc0

                          AREA ||i.HAL_ADCEx_DisableInjectedQueue||, CODE, READONLY, ALIGN=2

                  HAL_ADCEx_DisableInjectedQueue PROC
;;;2253     */
;;;2254   HAL_StatusTypeDef HAL_ADCEx_DisableInjectedQueue(ADC_HandleTypeDef *hadc)
000000  b570              PUSH     {r4-r6,lr}
;;;2255   {
000002  4604              MOV      r4,r0
;;;2256     HAL_StatusTypeDef tmp_hal_status;
;;;2257     uint32_t tmp_adc_is_conversion_on_going_regular;
;;;2258     uint32_t tmp_adc_is_conversion_on_going_injected;
;;;2259   
;;;2260     /* Check the parameters */
;;;2261     assert_param(IS_ADC_ALL_INSTANCE(hadc->Instance));
;;;2262   
;;;2263     tmp_adc_is_conversion_on_going_regular = LL_ADC_REG_IsConversionOngoing(hadc->Instance);
000004  6800              LDR      r0,[r0,#0]
000006  f7fffffe          BL       LL_ADC_REG_IsConversionOngoing
00000a  4605              MOV      r5,r0
;;;2264     tmp_adc_is_conversion_on_going_injected = LL_ADC_INJ_IsConversionOngoing(hadc->Instance);
00000c  6820              LDR      r0,[r4,#0]
00000e  f7fffffe          BL       LL_ADC_INJ_IsConversionOngoing
;;;2265   
;;;2266     /* Parameter can be set only if no conversion is on-going */
;;;2267     if ((tmp_adc_is_conversion_on_going_regular == 0UL)
000012  4305              ORRS     r5,r5,r0
000014  d001              BEQ      |L4.26|
;;;2268         && (tmp_adc_is_conversion_on_going_injected == 0UL)
;;;2269        )
;;;2270     {
;;;2271       LL_ADC_INJ_SetQueueMode(hadc->Instance, LL_ADC_INJ_QUEUE_DISABLE);
;;;2272       tmp_hal_status = HAL_OK;
;;;2273     }
;;;2274     else
;;;2275     {
;;;2276       tmp_hal_status = HAL_ERROR;
000016  2001              MOVS     r0,#1
;;;2277     }
;;;2278   
;;;2279     return tmp_hal_status;
;;;2280   }
000018  bd70              POP      {r4-r6,pc}
                  |L4.26|
00001a  6820              LDR      r0,[r4,#0]
00001c  68c1              LDR      r1,[r0,#0xc]
00001e  4a03              LDR      r2,|L4.44|
000020  4011              ANDS     r1,r1,r2
000022  f0414100          ORR      r1,r1,#0x80000000
000026  60c1              STR      r1,[r0,#0xc]
000028  2000              MOVS     r0,#0                 ;2272
00002a  bd70              POP      {r4-r6,pc}
;;;2281   
                          ENDP

                  |L4.44|
                          DCD      0x7fdfffff

                          AREA ||i.HAL_ADCEx_DisableVoltageRegulator||, CODE, READONLY, ALIGN=2

                  HAL_ADCEx_DisableVoltageRegulator PROC
;;;2290     */
;;;2291   HAL_StatusTypeDef HAL_ADCEx_DisableVoltageRegulator(ADC_HandleTypeDef *hadc)
000000  6800              LDR      r0,[r0,#0]
000002  6881              LDR      r1,[r0,#8]
000004  f0110f01          TST      r1,#1
;;;2292   {
000008  d001              BEQ      |L5.14|
;;;2293     HAL_StatusTypeDef tmp_hal_status;
;;;2294   
;;;2295     /* Check the parameters */
;;;2296     assert_param(IS_ADC_ALL_INSTANCE(hadc->Instance));
;;;2297   
;;;2298     /* Setting of this feature is conditioned to ADC state: ADC must be ADC disabled */
;;;2299     if (LL_ADC_IsEnabled(hadc->Instance) == 0UL)
;;;2300     {
;;;2301       LL_ADC_DisableInternalRegulator(hadc->Instance);
;;;2302       tmp_hal_status = HAL_OK;
;;;2303     }
;;;2304     else
;;;2305     {
;;;2306       tmp_hal_status = HAL_ERROR;
00000a  2001              MOVS     r0,#1
;;;2307     }
;;;2308   
;;;2309     return tmp_hal_status;
;;;2310   }
00000c  4770              BX       lr
                  |L5.14|
00000e  6881              LDR      r1,[r0,#8]
000010  4a02              LDR      r2,|L5.28|
000012  4011              ANDS     r1,r1,r2
000014  6081              STR      r1,[r0,#8]
000016  2000              MOVS     r0,#0                 ;2302
000018  4770              BX       lr
;;;2311   
                          ENDP

00001a  0000              DCW      0x0000
                  |L5.28|
                          DCD      0x6fffffc0

                          AREA ||i.HAL_ADCEx_EnableInjectedQueue||, CODE, READONLY, ALIGN=1

                  HAL_ADCEx_EnableInjectedQueue PROC
;;;2212     */
;;;2213   HAL_StatusTypeDef HAL_ADCEx_EnableInjectedQueue(ADC_HandleTypeDef *hadc)
000000  b570              PUSH     {r4-r6,lr}
;;;2214   {
000002  4604              MOV      r4,r0
;;;2215     HAL_StatusTypeDef tmp_hal_status;
;;;2216     uint32_t tmp_adc_is_conversion_on_going_regular;
;;;2217     uint32_t tmp_adc_is_conversion_on_going_injected;
;;;2218   
;;;2219     /* Check the parameters */
;;;2220     assert_param(IS_ADC_ALL_INSTANCE(hadc->Instance));
;;;2221   
;;;2222     tmp_adc_is_conversion_on_going_regular = LL_ADC_REG_IsConversionOngoing(hadc->Instance);
000004  6800              LDR      r0,[r0,#0]
000006  f7fffffe          BL       LL_ADC_REG_IsConversionOngoing
00000a  4605              MOV      r5,r0
;;;2223     tmp_adc_is_conversion_on_going_injected = LL_ADC_INJ_IsConversionOngoing(hadc->Instance);
00000c  6820              LDR      r0,[r4,#0]
00000e  f7fffffe          BL       LL_ADC_INJ_IsConversionOngoing
;;;2224   
;;;2225     /* Parameter can be set only if no conversion is on-going */
;;;2226     if ((tmp_adc_is_conversion_on_going_regular == 0UL)
000012  4305              ORRS     r5,r5,r0
000014  d001              BEQ      |L6.26|
;;;2227         && (tmp_adc_is_conversion_on_going_injected == 0UL)
;;;2228        )
;;;2229     {
;;;2230       CLEAR_BIT(hadc->Instance->CFGR, ADC_CFGR_JQDIS);
;;;2231   
;;;2232       /* Update state, clear previous result related to injected queue overflow */
;;;2233       CLEAR_BIT(hadc->State, HAL_ADC_STATE_INJ_JQOVF);
;;;2234   
;;;2235       tmp_hal_status = HAL_OK;
;;;2236     }
;;;2237     else
;;;2238     {
;;;2239       tmp_hal_status = HAL_ERROR;
000016  2001              MOVS     r0,#1
;;;2240     }
;;;2241   
;;;2242     return tmp_hal_status;
;;;2243   }
000018  bd70              POP      {r4-r6,pc}
                  |L6.26|
00001a  6820              LDR      r0,[r4,#0]            ;2230
00001c  68c1              LDR      r1,[r0,#0xc]          ;2230
00001e  f0214100          BIC      r1,r1,#0x80000000     ;2230
000022  60c1              STR      r1,[r0,#0xc]          ;2230
000024  6d60              LDR      r0,[r4,#0x54]         ;2233
000026  f4204080          BIC      r0,r0,#0x4000         ;2233
00002a  6560              STR      r0,[r4,#0x54]         ;2233
00002c  2000              MOVS     r0,#0                 ;2235
00002e  bd70              POP      {r4-r6,pc}
;;;2244   
                          ENDP


                          AREA ||i.HAL_ADCEx_EndOfSamplingCallback||, CODE, READONLY, ALIGN=1

                  HAL_ADCEx_EndOfSamplingCallback PROC
;;;1243     */
;;;1244   __weak void HAL_ADCEx_EndOfSamplingCallback(ADC_HandleTypeDef *hadc)
000000  4770              BX       lr
;;;1245   {
;;;1246     /* Prevent unused argument(s) compilation warning */
;;;1247     UNUSED(hadc);
;;;1248   
;;;1249     /* NOTE : This function should not be modified. When the callback is needed,
;;;1250               function HAL_ADCEx_EndOfSamplingCallback must be implemented in the user file.
;;;1251     */
;;;1252   }
;;;1253   
                          ENDP


                          AREA ||i.HAL_ADCEx_EnterADCDeepPowerDownMode||, CODE, READONLY, ALIGN=2

                  HAL_ADCEx_EnterADCDeepPowerDownMode PROC
;;;2327     */
;;;2328   HAL_StatusTypeDef HAL_ADCEx_EnterADCDeepPowerDownMode(ADC_HandleTypeDef *hadc)
000000  6800              LDR      r0,[r0,#0]
000002  6881              LDR      r1,[r0,#8]
000004  f0110f01          TST      r1,#1
;;;2329   {
000008  d001              BEQ      |L8.14|
;;;2330     HAL_StatusTypeDef tmp_hal_status;
;;;2331   
;;;2332     /* Check the parameters */
;;;2333     assert_param(IS_ADC_ALL_INSTANCE(hadc->Instance));
;;;2334   
;;;2335     /* Setting of this feature is conditioned to ADC state: ADC must be ADC disabled */
;;;2336     if (LL_ADC_IsEnabled(hadc->Instance) == 0UL)
;;;2337     {
;;;2338       LL_ADC_EnableDeepPowerDown(hadc->Instance);
;;;2339       tmp_hal_status = HAL_OK;
;;;2340     }
;;;2341     else
;;;2342     {
;;;2343       tmp_hal_status = HAL_ERROR;
00000a  2001              MOVS     r0,#1
;;;2344     }
;;;2345   
;;;2346     return tmp_hal_status;
;;;2347   }
00000c  4770              BX       lr
                  |L8.14|
00000e  6881              LDR      r1,[r0,#8]
000010  4a03              LDR      r2,|L8.32|
000012  4011              ANDS     r1,r1,r2
000014  f0415100          ORR      r1,r1,#0x20000000
000018  6081              STR      r1,[r0,#8]
00001a  2000              MOVS     r0,#0                 ;2339
00001c  4770              BX       lr
;;;2348   
                          ENDP

00001e  0000              DCW      0x0000
                  |L8.32|
                          DCD      0x7fffffc0

                          AREA ||i.HAL_ADCEx_InjectedConfigChannel||, CODE, READONLY, ALIGN=2

                  HAL_ADCEx_InjectedConfigChannel PROC
;;;1650     */
;;;1651   HAL_StatusTypeDef HAL_ADCEx_InjectedConfigChannel(ADC_HandleTypeDef *hadc, ADC_InjectionConfTypeDef *sConfigInjected)
000000  e92d4ff8          PUSH     {r3-r11,lr}
;;;1652   {
;;;1653     HAL_StatusTypeDef tmp_hal_status = HAL_OK;
000004  f04f0800          MOV      r8,#0
000008  4604              MOV      r4,r0                 ;1652
;;;1654     uint32_t tmpOffsetShifted;
;;;1655     uint32_t tmp_config_internal_channel;
;;;1656     uint32_t tmp_adc_is_conversion_on_going_regular;
;;;1657     uint32_t tmp_adc_is_conversion_on_going_injected;
;;;1658     __IO uint32_t wait_loop_index = 0;
;;;1659   
;;;1660     uint32_t tmp_JSQR_ContextQueueBeingBuilt = 0U;
;;;1661   
;;;1662     /* Check the parameters */
;;;1663     assert_param(IS_ADC_ALL_INSTANCE(hadc->Instance));
;;;1664     assert_param(IS_ADC_SAMPLE_TIME(sConfigInjected->InjectedSamplingTime));
;;;1665     assert_param(IS_ADC_SINGLE_DIFFERENTIAL(sConfigInjected->InjectedSingleDiff));
;;;1666     assert_param(IS_FUNCTIONAL_STATE(sConfigInjected->AutoInjectedConv));
;;;1667     assert_param(IS_FUNCTIONAL_STATE(sConfigInjected->QueueInjectedContext));
;;;1668     assert_param(IS_ADC_EXTTRIGINJEC_EDGE(sConfigInjected->ExternalTrigInjecConvEdge));
;;;1669     assert_param(IS_ADC_EXTTRIGINJEC(hadc, sConfigInjected->ExternalTrigInjecConv));
;;;1670     assert_param(IS_ADC_OFFSET_NUMBER(sConfigInjected->InjectedOffsetNumber));
;;;1671     assert_param(IS_ADC_RANGE(ADC_GET_RESOLUTION(hadc), sConfigInjected->InjectedOffset));
;;;1672     assert_param(IS_FUNCTIONAL_STATE(sConfigInjected->InjecOversamplingMode));
;;;1673   
;;;1674     if (hadc->Init.ScanConvMode != ADC_SCAN_DISABLE)
00000a  f8cd8000          STR      r8,[sp,#0]
00000e  460d              MOV      r5,r1                 ;1652
;;;1675     {
;;;1676       assert_param(IS_ADC_INJECTED_RANK(sConfigInjected->InjectedRank));
;;;1677       assert_param(IS_ADC_INJECTED_NB_CONV(sConfigInjected->InjectedNbrOfConversion));
;;;1678       assert_param(IS_FUNCTIONAL_STATE(sConfigInjected->InjectedDiscontinuousConvMode));
;;;1679     }
;;;1680   
;;;1681   
;;;1682     /* if JOVSE is set, the value of the OFFSETy_EN bit in ADCx_OFRy register is
;;;1683        ignored (considered as reset) */
;;;1684     assert_param(!((sConfigInjected->InjectedOffsetNumber != ADC_OFFSET_NONE) && (sConfigInjected->InjecOversamplingMode == ENABLE)));
;;;1685   
;;;1686     /* JDISCEN and JAUTO bits can't be set at the same time  */
;;;1687     assert_param(!((sConfigInjected->InjectedDiscontinuousConvMode == ENABLE) && (sConfigInjected->AutoInjectedConv == ENABLE)));
;;;1688   
;;;1689     /*  DISCEN and JAUTO bits can't be set at the same time */
;;;1690     assert_param(!((hadc->Init.DiscontinuousConvMode == ENABLE) && (sConfigInjected->AutoInjectedConv == ENABLE)));
;;;1691   
;;;1692     /* Verification of channel number */
;;;1693     if (sConfigInjected->InjectedSingleDiff != ADC_DIFFERENTIAL_ENDED)
;;;1694     {
;;;1695       assert_param(IS_ADC_CHANNEL(hadc, sConfigInjected->InjectedChannel));
;;;1696     }
;;;1697     else
;;;1698     {
;;;1699       assert_param(IS_ADC_DIFF_CHANNEL(hadc, sConfigInjected->InjectedChannel));
;;;1700     }
;;;1701   
;;;1702     /* Process locked */
;;;1703     __HAL_LOCK(hadc);
000010  f8942050          LDRB     r2,[r4,#0x50]
000014  f8df9408          LDR      r9,|L9.1056|
000018  6921              LDR      r1,[r4,#0x10]
00001a  4647              MOV      r7,r8                 ;1658
00001c  4640              MOV      r0,r8                 ;1660
00001e  2a01              CMP      r2,#1
000020  d00a              BEQ      |L9.56|
000022  2601              MOVS     r6,#1
;;;1704   
;;;1705     /* Configuration of injected group sequencer:                               */
;;;1706     /* Hardware constraint: Must fully define injected context register JSQR    */
;;;1707     /* before make it entering into injected sequencer queue.                   */
;;;1708     /*                                                                          */
;;;1709     /* - if scan mode is disabled:                                              */
;;;1710     /*    * Injected channels sequence length is set to 0x00: 1 channel         */
;;;1711     /*      converted (channel on injected rank 1)                              */
;;;1712     /*      Parameter "InjectedNbrOfConversion" is discarded.                   */
;;;1713     /*    * Injected context register JSQR setting is simple: register is fully */
;;;1714     /*      defined on one call of this function (for injected rank 1) and can  */
;;;1715     /*      be entered into queue directly.                                     */
;;;1716     /* - if scan mode is enabled:                                               */
;;;1717     /*    * Injected channels sequence length is set to parameter               */
;;;1718     /*      "InjectedNbrOfConversion".                                          */
;;;1719     /*    * Injected context register JSQR setting more complex: register is    */
;;;1720     /*      fully defined over successive calls of this function, for each      */
;;;1721     /*      injected channel rank. It is entered into queue only when all       */
;;;1722     /*      injected ranks have been set.                                       */
;;;1723     /*   Note: Scan mode is not present by hardware on this device, but used    */
;;;1724     /*   by software for alignment over all STM32 devices.                      */
;;;1725   
;;;1726     if ((hadc->Init.ScanConvMode == ADC_SCAN_DISABLE)  ||
;;;1727         (sConfigInjected->InjectedNbrOfConversion == 1U))
;;;1728     {
;;;1729       /* Configuration of context register JSQR:                                */
;;;1730       /*  - number of ranks in injected group sequencer: fixed to 1st rank      */
;;;1731       /*    (scan mode disabled, only rank 1 used)                              */
;;;1732       /*  - external trigger to start conversion                                */
;;;1733       /*  - external trigger polarity                                           */
;;;1734       /*  - channel set to rank 1 (scan mode disabled, only rank 1 can be used) */
;;;1735   
;;;1736       if (sConfigInjected->InjectedRank == ADC_INJECTED_RANK_1)
;;;1737       {
;;;1738         /* Enable external trigger if trigger selection is different of         */
;;;1739         /* software start.                                                      */
;;;1740         /* Note: This configuration keeps the hardware feature of parameter     */
;;;1741         /*       ExternalTrigInjecConvEdge "trigger edge none" equivalent to    */
;;;1742         /*       software start.                                                */
;;;1743         if (sConfigInjected->ExternalTrigInjecConv != ADC_INJECTED_SOFTWARE_START)
;;;1744         {
;;;1745           tmp_JSQR_ContextQueueBeingBuilt = (ADC_JSQR_RK(sConfigInjected->InjectedChannel, ADC_INJECTED_RANK_1)
;;;1746                                              | (sConfigInjected->ExternalTrigInjecConv & ADC_JSQR_JEXTSEL)
;;;1747                                              | sConfigInjected->ExternalTrigInjecConvEdge
;;;1748                                             );
;;;1749         }
;;;1750         else
;;;1751         {
;;;1752           tmp_JSQR_ContextQueueBeingBuilt = (ADC_JSQR_RK(sConfigInjected->InjectedChannel, ADC_INJECTED_RANK_1));
;;;1753         }
;;;1754   
;;;1755         MODIFY_REG(hadc->Instance->JSQR, ADC_JSQR_FIELDS, tmp_JSQR_ContextQueueBeingBuilt);
000024  4aff              LDR      r2,|L9.1060|
000026  f8846050          STRB     r6,[r4,#0x50]         ;1703
00002a  b141              CBZ      r1,|L9.62|
00002c  69a9              LDR      r1,[r5,#0x18]         ;1727
00002e  2901              CMP      r1,#1                 ;1727
000030  d005              BEQ      |L9.62|
;;;1756         /* For debug and informative reasons, hadc handle saves JSQR setting */
;;;1757         hadc->InjectionConfig.ContextQueue = tmp_JSQR_ContextQueueBeingBuilt;
;;;1758   
;;;1759       }
;;;1760     }
;;;1761     else
;;;1762     {
;;;1763       /* Case of scan mode enabled, several channels to set into injected group */
;;;1764       /* sequencer.                                                             */
;;;1765       /*                                                                        */
;;;1766       /* Procedure to define injected context register JSQR over successive     */
;;;1767       /* calls of this function, for each injected channel rank:                */
;;;1768       /* 1. Start new context and set parameters related to all injected        */
;;;1769       /*    channels: injected sequence length and trigger.                     */
;;;1770   
;;;1771       /* if hadc->InjectionConfig.ChannelCount is equal to 0, this is the first */
;;;1772       /*   call of the context under setting                                    */
;;;1773       if (hadc->InjectionConfig.ChannelCount == 0U)
000032  6e23              LDR      r3,[r4,#0x60]
000034  b1eb              CBZ      r3,|L9.114|
000036  e029              B        |L9.140|
                  |L9.56|
000038  2002              MOVS     r0,#2                 ;1703
                  |L9.58|
;;;1774       {
;;;1775         /* Initialize number of channels that will be configured on the context */
;;;1776         /*  being built                                                         */
;;;1777         hadc->InjectionConfig.ChannelCount = sConfigInjected->InjectedNbrOfConversion;
;;;1778         /* Handle hadc saves the context under build up over each HAL_ADCEx_InjectedConfigChannel()
;;;1779            call, this context will be written in JSQR register at the last call.
;;;1780            At this point, the context is merely reset  */
;;;1781         hadc->InjectionConfig.ContextQueue = 0x00000000U;
;;;1782   
;;;1783         /* Configuration of context register JSQR:                              */
;;;1784         /*  - number of ranks in injected group sequencer                       */
;;;1785         /*  - external trigger to start conversion                              */
;;;1786         /*  - external trigger polarity                                         */
;;;1787   
;;;1788         /* Enable external trigger if trigger selection is different of         */
;;;1789         /* software start.                                                      */
;;;1790         /* Note: This configuration keeps the hardware feature of parameter     */
;;;1791         /*       ExternalTrigInjecConvEdge "trigger edge none" equivalent to    */
;;;1792         /*       software start.                                                */
;;;1793         if (sConfigInjected->ExternalTrigInjecConv != ADC_INJECTED_SOFTWARE_START)
;;;1794         {
;;;1795           tmp_JSQR_ContextQueueBeingBuilt = ((sConfigInjected->InjectedNbrOfConversion - 1U)
;;;1796                                              | (sConfigInjected->ExternalTrigInjecConv & ADC_JSQR_JEXTSEL)
;;;1797                                              | sConfigInjected->ExternalTrigInjecConvEdge
;;;1798                                             );
;;;1799         }
;;;1800         else
;;;1801         {
;;;1802           tmp_JSQR_ContextQueueBeingBuilt = ((sConfigInjected->InjectedNbrOfConversion - 1U));
;;;1803         }
;;;1804   
;;;1805       }
;;;1806   
;;;1807       /* 2. Continue setting of context under definition with parameter       */
;;;1808       /*    related to each channel: channel rank sequence                    */
;;;1809       /* Clear the old JSQx bits for the selected rank */
;;;1810       tmp_JSQR_ContextQueueBeingBuilt &= ~ADC_JSQR_RK(ADC_SQR3_SQ10, sConfigInjected->InjectedRank);
;;;1811   
;;;1812       /* Set the JSQx bits for the selected rank */
;;;1813       tmp_JSQR_ContextQueueBeingBuilt |= ADC_JSQR_RK(sConfigInjected->InjectedChannel, sConfigInjected->InjectedRank);
;;;1814   
;;;1815       /* Decrease channel count  */
;;;1816       hadc->InjectionConfig.ChannelCount--;
;;;1817   
;;;1818       /* 3. tmp_JSQR_ContextQueueBeingBuilt is fully built for this HAL_ADCEx_InjectedConfigChannel()
;;;1819             call, aggregate the setting to those already built during the previous
;;;1820             HAL_ADCEx_InjectedConfigChannel() calls (for the same context of course)  */
;;;1821       hadc->InjectionConfig.ContextQueue |= tmp_JSQR_ContextQueueBeingBuilt;
;;;1822   
;;;1823       /* 4. End of context setting: if this is the last channel set, then write context
;;;1824           into register JSQR and make it enter into queue                   */
;;;1825       if (hadc->InjectionConfig.ChannelCount == 0U)
;;;1826       {
;;;1827         MODIFY_REG(hadc->Instance->JSQR, ADC_JSQR_FIELDS, hadc->InjectionConfig.ContextQueue);
;;;1828       }
;;;1829     }
;;;1830   
;;;1831     /* Parameters update conditioned to ADC state:                              */
;;;1832     /* Parameters that can be updated when ADC is disabled or enabled without   */
;;;1833     /* conversion on going on injected group:                                   */
;;;1834     /*  - Injected context queue: Queue disable (active context is kept) or     */
;;;1835     /*    enable (context decremented, up to 2 contexts queued)                 */
;;;1836     /*  - Injected discontinuous mode: can be enabled only if auto-injected     */
;;;1837     /*    mode is disabled.                                                     */
;;;1838     if (LL_ADC_INJ_IsConversionOngoing(hadc->Instance) == 0UL)
;;;1839     {
;;;1840       /* If auto-injected mode is disabled: no constraint                       */
;;;1841       if (sConfigInjected->AutoInjectedConv == DISABLE)
;;;1842       {
;;;1843         MODIFY_REG(hadc->Instance->CFGR,
;;;1844                    ADC_CFGR_JQM | ADC_CFGR_JDISCEN,
;;;1845                    ADC_CFGR_INJECT_CONTEXT_QUEUE((uint32_t)sConfigInjected->QueueInjectedContext)           |
;;;1846                    ADC_CFGR_INJECT_DISCCONTINUOUS((uint32_t)sConfigInjected->InjectedDiscontinuousConvMode));
;;;1847       }
;;;1848       /* If auto-injected mode is enabled: Injected discontinuous setting is    */
;;;1849       /* discarded.                                                             */
;;;1850       else
;;;1851       {
;;;1852         MODIFY_REG(hadc->Instance->CFGR,
;;;1853                    ADC_CFGR_JQM | ADC_CFGR_JDISCEN,
;;;1854                    ADC_CFGR_INJECT_CONTEXT_QUEUE((uint32_t)sConfigInjected->QueueInjectedContext));
;;;1855       }
;;;1856   
;;;1857     }
;;;1858   
;;;1859     /* Parameters update conditioned to ADC state:                              */
;;;1860     /* Parameters that can be updated when ADC is disabled or enabled without   */
;;;1861     /* conversion on going on regular and injected groups:                      */
;;;1862     /*  - Automatic injected conversion: can be enabled if injected group       */
;;;1863     /*    external triggers are disabled.                                       */
;;;1864     /*  - Channel sampling time                                                 */
;;;1865     /*  - Channel offset                                                        */
;;;1866     tmp_adc_is_conversion_on_going_regular = LL_ADC_REG_IsConversionOngoing(hadc->Instance);
;;;1867     tmp_adc_is_conversion_on_going_injected = LL_ADC_INJ_IsConversionOngoing(hadc->Instance);
;;;1868   
;;;1869     if ((tmp_adc_is_conversion_on_going_regular == 0UL)
;;;1870         && (tmp_adc_is_conversion_on_going_injected == 0UL)
;;;1871        )
;;;1872     {
;;;1873       /* If injected group external triggers are disabled (set to injected      */
;;;1874       /* software start): no constraint                                         */
;;;1875       if ((sConfigInjected->ExternalTrigInjecConv == ADC_INJECTED_SOFTWARE_START)
;;;1876           || (sConfigInjected->ExternalTrigInjecConvEdge == ADC_EXTERNALTRIGINJECCONV_EDGE_NONE))
;;;1877       {
;;;1878         if (sConfigInjected->AutoInjectedConv == ENABLE)
;;;1879         {
;;;1880           SET_BIT(hadc->Instance->CFGR, ADC_CFGR_JAUTO);
;;;1881         }
;;;1882         else
;;;1883         {
;;;1884           CLEAR_BIT(hadc->Instance->CFGR, ADC_CFGR_JAUTO);
;;;1885         }
;;;1886       }
;;;1887       /* If Automatic injected conversion was intended to be set and could not  */
;;;1888       /* due to injected group external triggers enabled, error is reported.    */
;;;1889       else
;;;1890       {
;;;1891         if (sConfigInjected->AutoInjectedConv == ENABLE)
;;;1892         {
;;;1893           /* Update ADC state machine to error */
;;;1894           SET_BIT(hadc->State, HAL_ADC_STATE_ERROR_CONFIG);
;;;1895   
;;;1896           tmp_hal_status = HAL_ERROR;
;;;1897         }
;;;1898         else
;;;1899         {
;;;1900           CLEAR_BIT(hadc->Instance->CFGR, ADC_CFGR_JAUTO);
;;;1901         }
;;;1902       }
;;;1903   
;;;1904       if (sConfigInjected->InjecOversamplingMode == ENABLE)
;;;1905       {
;;;1906         assert_param(IS_ADC_OVERSAMPLING_RATIO(sConfigInjected->InjecOversampling.Ratio));
;;;1907         assert_param(IS_ADC_RIGHT_BIT_SHIFT(sConfigInjected->InjecOversampling.RightBitShift));
;;;1908   
;;;1909         /*  JOVSE must be reset in case of triggered regular mode  */
;;;1910         assert_param(!(READ_BIT(hadc->Instance->CFGR2, ADC_CFGR2_ROVSE | ADC_CFGR2_TROVS) == (ADC_CFGR2_ROVSE | ADC_CFGR2_TROVS)));
;;;1911   
;;;1912         /* Configuration of Injected Oversampler:                                 */
;;;1913         /*  - Oversampling Ratio                                                  */
;;;1914         /*  - Right bit shift                                                     */
;;;1915   
;;;1916         /* Enable OverSampling mode */
;;;1917         MODIFY_REG(hadc->Instance->CFGR2,
;;;1918                    ADC_CFGR2_JOVSE |
;;;1919                    ADC_CFGR2_OVSR  |
;;;1920                    ADC_CFGR2_OVSS,
;;;1921                    ADC_CFGR2_JOVSE                                  |
;;;1922                    sConfigInjected->InjecOversampling.Ratio         |
;;;1923                    sConfigInjected->InjecOversampling.RightBitShift
;;;1924                   );
;;;1925       }
;;;1926       else
;;;1927       {
;;;1928         /* Disable Regular OverSampling */
;;;1929         CLEAR_BIT(hadc->Instance->CFGR2, ADC_CFGR2_JOVSE);
;;;1930       }
;;;1931   
;;;1932   #if defined(ADC_SMPR1_SMPPLUS)
;;;1933       /* Manage specific case of sampling time 3.5 cycles replacing 2.5 cyles */
;;;1934       if (sConfigInjected->InjectedSamplingTime == ADC_SAMPLETIME_3CYCLES_5)
;;;1935       {
;;;1936         /* Set sampling time of the selected ADC channel */
;;;1937         LL_ADC_SetChannelSamplingTime(hadc->Instance, sConfigInjected->InjectedChannel, LL_ADC_SAMPLINGTIME_2CYCLES_5);
;;;1938   
;;;1939         /* Set ADC sampling time common configuration */
;;;1940         LL_ADC_SetSamplingTimeCommonConfig(hadc->Instance, LL_ADC_SAMPLINGTIME_COMMON_3C5_REPL_2C5);
;;;1941       }
;;;1942       else
;;;1943       {
;;;1944         /* Set sampling time of the selected ADC channel */
;;;1945         LL_ADC_SetChannelSamplingTime(hadc->Instance, sConfigInjected->InjectedChannel, sConfigInjected->InjectedSamplingTime);
;;;1946   
;;;1947         /* Set ADC sampling time common configuration */
;;;1948         LL_ADC_SetSamplingTimeCommonConfig(hadc->Instance, LL_ADC_SAMPLINGTIME_COMMON_DEFAULT);
;;;1949       }
;;;1950   #else
;;;1951       /* Set sampling time of the selected ADC channel */
;;;1952       LL_ADC_SetChannelSamplingTime(hadc->Instance, sConfigInjected->InjectedChannel, sConfigInjected->InjectedSamplingTime);
;;;1953   #endif
;;;1954   
;;;1955       /* Configure the offset: offset enable/disable, channel, offset value */
;;;1956   
;;;1957       /* Shift the offset with respect to the selected ADC resolution. */
;;;1958       /* Offset has to be left-aligned on bit 11, the LSB (right bits) are set to 0 */
;;;1959       tmpOffsetShifted = ADC_OFFSET_SHIFT_RESOLUTION(hadc, sConfigInjected->InjectedOffset);
;;;1960   
;;;1961       if (sConfigInjected->InjectedOffsetNumber != ADC_OFFSET_NONE)
;;;1962       {
;;;1963         /* Set ADC selected offset number */
;;;1964         LL_ADC_SetOffset(hadc->Instance, sConfigInjected->InjectedOffsetNumber, sConfigInjected->InjectedChannel,
;;;1965                          tmpOffsetShifted);
;;;1966   
;;;1967       }
;;;1968       else
;;;1969       {
;;;1970         /* Scan each offset register to check if the selected channel is targeted. */
;;;1971         /* If this is the case, the corresponding offset number is disabled.       */
;;;1972         if (__LL_ADC_CHANNEL_TO_DECIMAL_NB(LL_ADC_GetOffsetChannel(hadc->Instance, LL_ADC_OFFSET_1))
;;;1973             == __LL_ADC_CHANNEL_TO_DECIMAL_NB(sConfigInjected->InjectedChannel))
;;;1974         {
;;;1975           LL_ADC_SetOffsetState(hadc->Instance, LL_ADC_OFFSET_1, LL_ADC_OFFSET_DISABLE);
;;;1976         }
;;;1977         if (__LL_ADC_CHANNEL_TO_DECIMAL_NB(LL_ADC_GetOffsetChannel(hadc->Instance, LL_ADC_OFFSET_2))
;;;1978             == __LL_ADC_CHANNEL_TO_DECIMAL_NB(sConfigInjected->InjectedChannel))
;;;1979         {
;;;1980           LL_ADC_SetOffsetState(hadc->Instance, LL_ADC_OFFSET_2, LL_ADC_OFFSET_DISABLE);
;;;1981         }
;;;1982         if (__LL_ADC_CHANNEL_TO_DECIMAL_NB(LL_ADC_GetOffsetChannel(hadc->Instance, LL_ADC_OFFSET_3))
;;;1983             == __LL_ADC_CHANNEL_TO_DECIMAL_NB(sConfigInjected->InjectedChannel))
;;;1984         {
;;;1985           LL_ADC_SetOffsetState(hadc->Instance, LL_ADC_OFFSET_3, LL_ADC_OFFSET_DISABLE);
;;;1986         }
;;;1987         if (__LL_ADC_CHANNEL_TO_DECIMAL_NB(LL_ADC_GetOffsetChannel(hadc->Instance, LL_ADC_OFFSET_4))
;;;1988             == __LL_ADC_CHANNEL_TO_DECIMAL_NB(sConfigInjected->InjectedChannel))
;;;1989         {
;;;1990           LL_ADC_SetOffsetState(hadc->Instance, LL_ADC_OFFSET_4, LL_ADC_OFFSET_DISABLE);
;;;1991         }
;;;1992       }
;;;1993   
;;;1994     }
;;;1995   
;;;1996     /* Parameters update conditioned to ADC state:                              */
;;;1997     /* Parameters that can be updated only when ADC is disabled:                */
;;;1998     /*  - Single or differential mode                                           */
;;;1999     if (LL_ADC_IsEnabled(hadc->Instance) == 0UL)
;;;2000     {
;;;2001       /* Set mode single-ended or differential input of the selected ADC channel */
;;;2002       LL_ADC_SetChannelSingleDiff(hadc->Instance, sConfigInjected->InjectedChannel, sConfigInjected->InjectedSingleDiff);
;;;2003   
;;;2004       /* Configuration of differential mode */
;;;2005       /* Note: ADC channel number masked with value "0x1F" to ensure shift value within 32 bits range */
;;;2006       if (sConfigInjected->InjectedSingleDiff == ADC_DIFFERENTIAL_ENDED)
;;;2007       {
;;;2008         /* Set sampling time of the selected ADC channel */
;;;2009         LL_ADC_SetChannelSamplingTime(hadc->Instance,
;;;2010                                       (uint32_t)(__LL_ADC_DECIMAL_NB_TO_CHANNEL((__LL_ADC_CHANNEL_TO_DECIMAL_NB((uint32_t)sConfigInjected->InjectedChannel)
;;;2011                                                                                  + 1UL) & 0x1FUL)), sConfigInjected->InjectedSamplingTime);
;;;2012       }
;;;2013   
;;;2014     }
;;;2015   
;;;2016     /* Management of internal measurement channels: Vbat/VrefInt/TempSensor   */
;;;2017     /* internal measurement paths enable: If internal channel selected,       */
;;;2018     /* enable dedicated internal buffers and path.                            */
;;;2019     /* Note: these internal measurement paths can be disabled using           */
;;;2020     /* HAL_ADC_DeInit().                                                      */
;;;2021   
;;;2022     if (__LL_ADC_IS_CHANNEL_INTERNAL(sConfigInjected->InjectedChannel))
;;;2023     {
;;;2024       tmp_config_internal_channel = LL_ADC_GetCommonPathInternalCh(__LL_ADC_COMMON_INSTANCE(hadc->Instance));
;;;2025   
;;;2026       /* If the requested internal measurement path has already been enabled,   */
;;;2027       /* bypass the configuration processing.                                   */
;;;2028       if ((sConfigInjected->InjectedChannel == ADC_CHANNEL_TEMPSENSOR)
;;;2029           && ((tmp_config_internal_channel & LL_ADC_PATH_INTERNAL_TEMPSENSOR) == 0UL))
;;;2030       {
;;;2031         if (ADC_TEMPERATURE_SENSOR_INSTANCE(hadc))
;;;2032         {
;;;2033           LL_ADC_SetCommonPathInternalCh(__LL_ADC_COMMON_INSTANCE(hadc->Instance),
;;;2034                                          LL_ADC_PATH_INTERNAL_TEMPSENSOR | tmp_config_internal_channel);
;;;2035   
;;;2036           /* Delay for temperature sensor stabilization time */
;;;2037           /* Wait loop initialization and execution */
;;;2038           /* Note: Variable divided by 2 to compensate partially              */
;;;2039           /*       CPU processing cycles, scaling in us split to not          */
;;;2040           /*       exceed 32 bits register capacity and handle low frequency. */
;;;2041           wait_loop_index = ((LL_ADC_DELAY_TEMPSENSOR_STAB_US / 10UL) * (((SystemCoreClock / (100000UL * 2UL)) + 1UL) + 1UL));
;;;2042           while (wait_loop_index != 0UL)
;;;2043           {
;;;2044             wait_loop_index--;
;;;2045           }
;;;2046         }
;;;2047       }
;;;2048       else if ((sConfigInjected->InjectedChannel == ADC_CHANNEL_VBAT)
;;;2049                && ((tmp_config_internal_channel & LL_ADC_PATH_INTERNAL_VBAT) == 0UL))
;;;2050       {
;;;2051         if (ADC_BATTERY_VOLTAGE_INSTANCE(hadc))
;;;2052         {
;;;2053           LL_ADC_SetCommonPathInternalCh(__LL_ADC_COMMON_INSTANCE(hadc->Instance),
;;;2054                                          LL_ADC_PATH_INTERNAL_VBAT | tmp_config_internal_channel);
;;;2055         }
;;;2056       }
;;;2057       else if ((sConfigInjected->InjectedChannel == ADC_CHANNEL_VREFINT)
;;;2058                && ((tmp_config_internal_channel & LL_ADC_PATH_INTERNAL_VREFINT) == 0UL))
;;;2059       {
;;;2060         if (ADC_VREFINT_INSTANCE(hadc))
;;;2061         {
;;;2062           LL_ADC_SetCommonPathInternalCh(__LL_ADC_COMMON_INSTANCE(hadc->Instance),
;;;2063                                          LL_ADC_PATH_INTERNAL_VREFINT | tmp_config_internal_channel);
;;;2064         }
;;;2065       }
;;;2066       else
;;;2067       {
;;;2068         /* nothing to do */
;;;2069       }
;;;2070     }
;;;2071   
;;;2072     /* Process unlocked */
;;;2073     __HAL_UNLOCK(hadc);
;;;2074   
;;;2075     /* Return function status */
;;;2076     return tmp_hal_status;
;;;2077   }
00003a  e8bd8ff8          POP      {r3-r11,pc}
                  |L9.62|
00003e  6868              LDR      r0,[r5,#4]            ;1736
000040  2808              CMP      r0,#8                 ;1736
000042  d138              BNE      |L9.182|
000044  6a29              LDR      r1,[r5,#0x20]         ;1743
000046  f44f50f8          MOV      r0,#0x1f00            ;1745
00004a  b141              CBZ      r1,|L9.94|
00004c  682b              LDR      r3,[r5,#0]            ;1745
00004e  f001013c          AND      r1,r1,#0x3c           ;1745
000052  ea004093          AND      r0,r0,r3,LSR #18      ;1745
000056  4308              ORRS     r0,r0,r1              ;1745
000058  6a69              LDR      r1,[r5,#0x24]         ;1745
00005a  4308              ORRS     r0,r0,r1              ;1745
00005c  e002              B        |L9.100|
                  |L9.94|
00005e  6829              LDR      r1,[r5,#0]            ;1752
000060  ea004091          AND      r0,r0,r1,LSR #18      ;1752
                  |L9.100|
000064  6823              LDR      r3,[r4,#0]            ;1755
000066  6cd9              LDR      r1,[r3,#0x4c]         ;1755
000068  4011              ANDS     r1,r1,r2              ;1755
00006a  4301              ORRS     r1,r1,r0              ;1755
00006c  64d9              STR      r1,[r3,#0x4c]         ;1755
00006e  65e0              STR      r0,[r4,#0x5c]         ;1757
000070  e021              B        |L9.182|
                  |L9.114|
000072  e9c47117          STRD     r7,r1,[r4,#0x5c]      ;1757
000076  6a29              LDR      r1,[r5,#0x20]         ;1802
000078  69a8              LDR      r0,[r5,#0x18]         ;1793
00007a  b131              CBZ      r1,|L9.138|
00007c  f001013c          AND      r1,r1,#0x3c           ;1795
000080  1e40              SUBS     r0,r0,#1              ;1795
000082  4308              ORRS     r0,r0,r1              ;1795
000084  6a69              LDR      r1,[r5,#0x24]         ;1795
000086  4308              ORRS     r0,r0,r1              ;1795
000088  e000              B        |L9.140|
                  |L9.138|
00008a  1e40              SUBS     r0,r0,#1              ;1795
                  |L9.140|
00008c  6829              LDR      r1,[r5,#0]            ;1813
00008e  792b              LDRB     r3,[r5,#4]            ;1813
000090  f3c16184          UBFX     r1,r1,#26,#5          ;1813
000094  f003031f          AND      r3,r3,#0x1f           ;1813
000098  4099              LSLS     r1,r1,r3              ;1813
00009a  4301              ORRS     r1,r1,r0              ;1813
00009c  6e20              LDR      r0,[r4,#0x60]         ;1816
00009e  1e40              SUBS     r0,r0,#1              ;1816
0000a0  6620              STR      r0,[r4,#0x60]         ;1821
0000a2  6de3              LDR      r3,[r4,#0x5c]         ;1821
0000a4  ea430301          ORR      r3,r3,r1              ;1821
0000a8  65e3              STR      r3,[r4,#0x5c]         ;1825
0000aa  d104              BNE      |L9.182|
0000ac  6821              LDR      r1,[r4,#0]            ;1827
0000ae  6cc8              LDR      r0,[r1,#0x4c]         ;1827
0000b0  4010              ANDS     r0,r0,r2              ;1827
0000b2  4318              ORRS     r0,r0,r3              ;1827
0000b4  64c8              STR      r0,[r1,#0x4c]         ;1827
                  |L9.182|
0000b6  6820              LDR      r0,[r4,#0]            ;1838
0000b8  f7fffffe          BL       LL_ADC_INJ_IsConversionOngoing
0000bc  b948              CBNZ     r0,|L9.210|
0000be  7f68              LDRB     r0,[r5,#0x1d]         ;1841
0000c0  b190              CBZ      r0,|L9.232|
0000c2  6820              LDR      r0,[r4,#0]            ;1852
0000c4  68c1              LDR      r1,[r0,#0xc]          ;1852
0000c6  7faa              LDRB     r2,[r5,#0x1e]         ;1852
0000c8  f4211140          BIC      r1,r1,#0x300000       ;1852
0000cc  ea415142          ORR      r1,r1,r2,LSL #21      ;1852
                  |L9.208|
0000d0  60c1              STR      r1,[r0,#0xc]          ;1843
                  |L9.210|
0000d2  6820              LDR      r0,[r4,#0]            ;1866
0000d4  f7fffffe          BL       LL_ADC_REG_IsConversionOngoing
0000d8  4682              MOV      r10,r0                ;1866
0000da  6820              LDR      r0,[r4,#0]            ;1867
0000dc  f7fffffe          BL       LL_ADC_INJ_IsConversionOngoing
0000e0  ea5a0000          ORRS     r0,r10,r0             ;1869
0000e4  d00b              BEQ      |L9.254|
0000e6  e0cc              B        |L9.642|
                  |L9.232|
0000e8  7fa8              LDRB     r0,[r5,#0x1e]         ;1843
0000ea  7f29              LDRB     r1,[r5,#0x1c]         ;1843
0000ec  0540              LSLS     r0,r0,#21             ;1843
0000ee  ea405101          ORR      r1,r0,r1,LSL #20      ;1843
0000f2  6820              LDR      r0,[r4,#0]            ;1843
0000f4  68c2              LDR      r2,[r0,#0xc]          ;1843
0000f6  f4221240          BIC      r2,r2,#0x300000       ;1843
0000fa  4311              ORRS     r1,r1,r2              ;1843
0000fc  e7e8              B        |L9.208|
                  |L9.254|
0000fe  6a28              LDR      r0,[r5,#0x20]         ;1875
000100  b128              CBZ      r0,|L9.270|
000102  6a68              LDR      r0,[r5,#0x24]         ;1876
000104  b118              CBZ      r0,|L9.270|
000106  7f68              LDRB     r0,[r5,#0x1d]         ;1891
000108  2801              CMP      r0,#1                 ;1891
00010a  d035              BEQ      |L9.376|
00010c  e002              B        |L9.276|
                  |L9.270|
00010e  7f68              LDRB     r0,[r5,#0x1d]         ;1878
000110  2801              CMP      r0,#1                 ;1878
000112  d004              BEQ      |L9.286|
                  |L9.276|
000114  6820              LDR      r0,[r4,#0]            ;1884
000116  68c1              LDR      r1,[r0,#0xc]          ;1884
000118  f0217100          BIC      r1,r1,#0x2000000      ;1884
00011c  e003              B        |L9.294|
                  |L9.286|
00011e  6820              LDR      r0,[r4,#0]            ;1880
000120  68c1              LDR      r1,[r0,#0xc]          ;1880
000122  f0417100          ORR      r1,r1,#0x2000000      ;1880
                  |L9.294|
000126  60c1              STR      r1,[r0,#0xc]          ;1900
                  |L9.296|
000128  f8950028          LDRB     r0,[r5,#0x28]         ;1904
00012c  2801              CMP      r0,#1                 ;1904
00012e  d02a              BEQ      |L9.390|
000130  6820              LDR      r0,[r4,#0]            ;1929
000132  6901              LDR      r1,[r0,#0x10]         ;1929
000134  f0210102          BIC      r1,r1,#2              ;1929
                  |L9.312|
000138  6101              STR      r1,[r0,#0x10]         ;1929
00013a  68aa              LDR      r2,[r5,#8]            ;1952
00013c  6829              LDR      r1,[r5,#0]            ;1952
00013e  6820              LDR      r0,[r4,#0]            ;1952
000140  f7fffffe          BL       LL_ADC_SetChannelSamplingTime
000144  6820              LDR      r0,[r4,#0]            ;1959
000146  6969              LDR      r1,[r5,#0x14]         ;1959
000148  68c2              LDR      r2,[r0,#0xc]          ;1959
00014a  f3c202c1          UBFX     r2,r2,#3,#2           ;1959
00014e  0052              LSLS     r2,r2,#1              ;1959
000150  4091              LSLS     r1,r1,r2              ;1959
000152  692a              LDR      r2,[r5,#0x10]         ;1961
000154  2a04              CMP      r2,#4                 ;1961
000156  d021              BEQ      |L9.412|
000158  eb000082          ADD      r0,r0,r2,LSL #2       ;1961
00015c  682b              LDR      r3,[r5,#0]            ;1961
00015e  6e02              LDR      r2,[r0,#0x60]         ;1961
000160  f8dfc2c4          LDR      r12,|L9.1064|
000164  f00343f8          AND      r3,r3,#0x7c000000     ;1961
000168  ea02020c          AND      r2,r2,r12             ;1961
00016c  430b              ORRS     r3,r3,r1              ;1961
00016e  431a              ORRS     r2,r2,r3              ;1961
000170  f0424100          ORR      r1,r2,#0x80000000     ;1961
000174  6601              STR      r1,[r0,#0x60]         ;1961
000176  e084              B        |L9.642|
                  |L9.376|
000178  6d60              LDR      r0,[r4,#0x54]         ;1894
00017a  f0400020          ORR      r0,r0,#0x20           ;1894
00017e  6560              STR      r0,[r4,#0x54]         ;1894
000180  f04f0801          MOV      r8,#1                 ;1896
000184  e7d0              B        |L9.296|
                  |L9.390|
000186  e9d5100b          LDRD     r1,r0,[r5,#0x2c]      ;1896
00018a  4301              ORRS     r1,r1,r0              ;1917
00018c  6820              LDR      r0,[r4,#0]            ;1917
00018e  6902              LDR      r2,[r0,#0x10]         ;1917
000190  f42272ff          BIC      r2,r2,#0x1fe          ;1917
000194  f0420202          ORR      r2,r2,#2              ;1917
000198  4311              ORRS     r1,r1,r2              ;1917
00019a  e7cd              B        |L9.312|
                  |L9.412|
00019c  2100              MOVS     r1,#0                 ;1972
00019e  f7fffffe          BL       LL_ADC_GetOffsetChannel
0001a2  0340              LSLS     r0,r0,#13             ;1972
0001a4  6820              LDR      r0,[r4,#0]            ;1972
0001a6  f04f0100          MOV      r1,#0                 ;1972
0001aa  d072              BEQ      |L9.658|
0001ac  f7fffffe          BL       LL_ADC_GetOffsetChannel
0001b0  fa90f0a0          RBIT     r0,r0                 ;1972
0001b4  fab0f180          CLZ      r1,r0                 ;1972
                  |L9.440|
0001b8  6828              LDR      r0,[r5,#0]            ;1972
0001ba  0342              LSLS     r2,r0,#13             ;1972
0001bc  d06e              BEQ      |L9.668|
0001be  fa90f0a0          RBIT     r0,r0                 ;1973
0001c2  fab0f080          CLZ      r0,r0                 ;1973
                  |L9.454|
0001c6  4281              CMP      r1,r0                 ;1973
0001c8  d104              BNE      |L9.468|
0001ca  2200              MOVS     r2,#0                 ;1975
0001cc  4611              MOV      r1,r2                 ;1975
0001ce  6820              LDR      r0,[r4,#0]            ;1975
0001d0  f7fffffe          BL       LL_ADC_SetOffsetState
                  |L9.468|
0001d4  2101              MOVS     r1,#1                 ;1977
0001d6  6820              LDR      r0,[r4,#0]            ;1977
0001d8  f7fffffe          BL       LL_ADC_GetOffsetChannel
0001dc  0340              LSLS     r0,r0,#13             ;1977
0001de  6820              LDR      r0,[r4,#0]            ;1977
0001e0  f04f0101          MOV      r1,#1                 ;1977
0001e4  d05d              BEQ      |L9.674|
0001e6  f7fffffe          BL       LL_ADC_GetOffsetChannel
0001ea  fa90f0a0          RBIT     r0,r0                 ;1977
0001ee  fab0f180          CLZ      r1,r0                 ;1977
                  |L9.498|
0001f2  6828              LDR      r0,[r5,#0]            ;1977
0001f4  0342              LSLS     r2,r0,#13             ;1977
0001f6  d059              BEQ      |L9.684|
0001f8  fa90f0a0          RBIT     r0,r0                 ;1978
0001fc  fab0f080          CLZ      r0,r0                 ;1978
                  |L9.512|
000200  4281              CMP      r1,r0                 ;1978
000202  d104              BNE      |L9.526|
000204  2200              MOVS     r2,#0                 ;1980
000206  2101              MOVS     r1,#1                 ;1980
000208  6820              LDR      r0,[r4,#0]            ;1980
00020a  f7fffffe          BL       LL_ADC_SetOffsetState
                  |L9.526|
00020e  2102              MOVS     r1,#2                 ;1982
000210  6820              LDR      r0,[r4,#0]            ;1982
000212  f7fffffe          BL       LL_ADC_GetOffsetChannel
000216  0340              LSLS     r0,r0,#13             ;1982
000218  6820              LDR      r0,[r4,#0]            ;1982
00021a  f04f0102          MOV      r1,#2                 ;1982
00021e  d048              BEQ      |L9.690|
000220  f7fffffe          BL       LL_ADC_GetOffsetChannel
000224  fa90f0a0          RBIT     r0,r0                 ;1982
000228  fab0f180          CLZ      r1,r0                 ;1982
                  |L9.556|
00022c  6828              LDR      r0,[r5,#0]            ;1982
00022e  0342              LSLS     r2,r0,#13             ;1982
000230  d044              BEQ      |L9.700|
000232  fa90f0a0          RBIT     r0,r0                 ;1983
000236  fab0f080          CLZ      r0,r0                 ;1983
                  |L9.570|
00023a  4281              CMP      r1,r0                 ;1983
00023c  d104              BNE      |L9.584|
00023e  2200              MOVS     r2,#0                 ;1985
000240  2102              MOVS     r1,#2                 ;1985
000242  6820              LDR      r0,[r4,#0]            ;1985
000244  f7fffffe          BL       LL_ADC_SetOffsetState
                  |L9.584|
000248  2103              MOVS     r1,#3                 ;1987
00024a  6820              LDR      r0,[r4,#0]            ;1987
00024c  f7fffffe          BL       LL_ADC_GetOffsetChannel
000250  0340              LSLS     r0,r0,#13             ;1987
000252  6820              LDR      r0,[r4,#0]            ;1987
000254  f04f0103          MOV      r1,#3                 ;1987
000258  d033              BEQ      |L9.706|
00025a  f7fffffe          BL       LL_ADC_GetOffsetChannel
00025e  fa90f0a0          RBIT     r0,r0                 ;1987
000262  fab0f180          CLZ      r1,r0                 ;1987
                  |L9.614|
000266  6828              LDR      r0,[r5,#0]            ;1987
000268  0342              LSLS     r2,r0,#13             ;1987
00026a  d02f              BEQ      |L9.716|
00026c  fa90f0a0          RBIT     r0,r0                 ;1988
000270  fab0f080          CLZ      r0,r0                 ;1988
                  |L9.628|
000274  4281              CMP      r1,r0                 ;1988
000276  d104              BNE      |L9.642|
000278  2200              MOVS     r2,#0                 ;1990
00027a  2103              MOVS     r1,#3                 ;1990
00027c  6820              LDR      r0,[r4,#0]            ;1990
00027e  f7fffffe          BL       LL_ADC_SetOffsetState
                  |L9.642|
000282  6820              LDR      r0,[r4,#0]            ;1990
000284  6881              LDR      r1,[r0,#8]            ;1990
000286  f0110f01          TST      r1,#1                 ;1990
00028a  d022              BEQ      |L9.722|
00028c  e0ab              B        |L9.998|
00028e  e000              B        |L9.658|
000290  e004              B        |L9.668|
                  |L9.658|
000292  f7fffffe          BL       LL_ADC_GetOffsetChannel
000296  f3c06184          UBFX     r1,r0,#26,#5          ;1972
00029a  e78d              B        |L9.440|
                  |L9.668|
00029c  f3c06084          UBFX     r0,r0,#26,#5          ;1973
0002a0  e791              B        |L9.454|
                  |L9.674|
0002a2  f7fffffe          BL       LL_ADC_GetOffsetChannel
0002a6  f3c06184          UBFX     r1,r0,#26,#5          ;1977
0002aa  e7a2              B        |L9.498|
                  |L9.684|
0002ac  f3c06084          UBFX     r0,r0,#26,#5          ;1978
0002b0  e7a6              B        |L9.512|
                  |L9.690|
0002b2  f7fffffe          BL       LL_ADC_GetOffsetChannel
0002b6  f3c06184          UBFX     r1,r0,#26,#5          ;1982
0002ba  e7b7              B        |L9.556|
                  |L9.700|
0002bc  f3c06084          UBFX     r0,r0,#26,#5          ;1983
0002c0  e7bb              B        |L9.570|
                  |L9.706|
0002c2  f7fffffe          BL       LL_ADC_GetOffsetChannel
0002c6  f3c06184          UBFX     r1,r0,#26,#5          ;1987
0002ca  e7cc              B        |L9.614|
                  |L9.716|
0002cc  f3c06084          UBFX     r0,r0,#26,#5          ;1988
0002d0  e7d0              B        |L9.628|
                  |L9.722|
0002d2  7b2a              LDRB     r2,[r5,#0xc]          ;2002
0002d4  6829              LDR      r1,[r5,#0]            ;2002
0002d6  f8503fb0          LDR      r3,[r0,#0xb0]!        ;2002
0002da  f3c10c12          UBFX     r12,r1,#0,#19         ;2002
0002de  ea23030c          BIC      r3,r3,r12             ;2002
0002e2  f0020c18          AND      r12,r2,#0x18          ;2002
0002e6  4a51              LDR      r2,|L9.1068|
0002e8  fa22f20c          LSR      r2,r2,r12             ;2002
0002ec  400a              ANDS     r2,r2,r1              ;2002
0002ee  4313              ORRS     r3,r3,r2              ;2002
0002f0  6003              STR      r3,[r0,#0]            ;2002
0002f2  68e9              LDR      r1,[r5,#0xc]          ;2006
0002f4  4549              CMP      r1,r9                 ;2006
0002f6  d176              BNE      |L9.998|
0002f8  6828              LDR      r0,[r5,#0]            ;2009
0002fa  0341              LSLS     r1,r0,#13             ;2009
0002fc  d01b              BEQ      |L9.822|
0002fe  fa90f1a0          RBIT     r1,r0                 ;2010
000302  fab1f181          CLZ      r1,r1                 ;2010
                  |L9.774|
000306  1c49              ADDS     r1,r1,#1              ;2010
000308  f001011f          AND      r1,r1,#0x1f           ;2010
00030c  2909              CMP      r1,#9                 ;2010
00030e  ea4f3140          LSL      r1,r0,#13             ;2010
000312  d831              BHI      |L9.888|
000314  2900              CMP      r1,#0                 ;2010
000316  d011              BEQ      |L9.828|
000318  fa90f1a0          RBIT     r1,r0                 ;2010
00031c  fab1f181          CLZ      r1,r1                 ;2010
                  |L9.800|
000320  f1010101          ADD      r1,r1,#1              ;2010
000324  f001011f          AND      r1,r1,#0x1f           ;2010
000328  fa06f601          LSL      r6,r6,r1              ;2010
00032c  d109              BNE      |L9.834|
00032e  bf00              NOP                            ;2010
000330  f3c06184          UBFX     r1,r0,#26,#5          ;2010
000334  e009              B        |L9.842|
                  |L9.822|
000336  f3c06184          UBFX     r1,r0,#26,#5          ;2010
00033a  e7e4              B        |L9.774|
                  |L9.828|
00033c  f3c06184          UBFX     r1,r0,#26,#5          ;2010
000340  e7ee              B        |L9.800|
                  |L9.834|
000342  fa90f1a0          RBIT     r1,r0                 ;2010
000346  fab1f181          CLZ      r1,r1                 ;2010
                  |L9.842|
00034a  f1010101          ADD      r1,r1,#1              ;2010
00034e  f001011f          AND      r1,r1,#0x1f           ;2010
000352  ea466181          ORR      r1,r6,r1,LSL #26      ;2010
000356  d102              BNE      |L9.862|
000358  f3c06084          UBFX     r0,r0,#26,#5          ;2010
00035c  e003              B        |L9.870|
                  |L9.862|
00035e  fa90f0a0          RBIT     r0,r0                 ;2010
000362  fab0f080          CLZ      r0,r0                 ;2010
                  |L9.870|
000366  f1000001          ADD      r0,r0,#1              ;2010
00036a  f000001f          AND      r0,r0,#0x1f           ;2010
00036e  eb000040          ADD      r0,r0,r0,LSL #1       ;2010
000372  ea415100          ORR      r1,r1,r0,LSL #20      ;2010
000376  e032              B        |L9.990|
                  |L9.888|
000378  2900              CMP      r1,#0                 ;2010
00037a  d00e              BEQ      |L9.922|
00037c  fa90f1a0          RBIT     r1,r0                 ;2010
000380  fab1f181          CLZ      r1,r1                 ;2010
                  |L9.900|
000384  f1010101          ADD      r1,r1,#1              ;2010
000388  f001011f          AND      r1,r1,#0x1f           ;2010
00038c  fa06f601          LSL      r6,r6,r1              ;2010
000390  d106              BNE      |L9.928|
000392  bf00              NOP                            ;2010
000394  f3c06184          UBFX     r1,r0,#26,#5          ;2010
000398  e006              B        |L9.936|
                  |L9.922|
00039a  f3c06184          UBFX     r1,r0,#26,#5          ;2010
00039e  e7f1              B        |L9.900|
                  |L9.928|
0003a0  fa90f1a0          RBIT     r1,r0                 ;2010
0003a4  fab1f181          CLZ      r1,r1                 ;2010
                  |L9.936|
0003a8  f1010101          ADD      r1,r1,#1              ;2010
0003ac  f001011f          AND      r1,r1,#0x1f           ;2010
0003b0  ea466181          ORR      r1,r6,r1,LSL #26      ;2010
0003b4  d102              BNE      |L9.956|
0003b6  f3c06084          UBFX     r0,r0,#26,#5          ;2010
0003ba  e003              B        |L9.964|
                  |L9.956|
0003bc  fa90f0a0          RBIT     r0,r0                 ;2010
0003c0  fab0f080          CLZ      r0,r0                 ;2010
                  |L9.964|
0003c4  f1000001          ADD      r0,r0,#1              ;2010
0003c8  f000001f          AND      r0,r0,#0x1f           ;2010
0003cc  4a18              LDR      r2,|L9.1072|
0003ce  eb000040          ADD      r0,r0,r0,LSL #1       ;2010
0003d2  eb025000          ADD      r0,r2,r0,LSL #20      ;2010
0003d6  ea410100          ORR      r1,r1,r0              ;2010
0003da  f0417100          ORR      r1,r1,#0x2000000      ;2010
                  |L9.990|
0003de  68aa              LDR      r2,[r5,#8]            ;2010
0003e0  6820              LDR      r0,[r4,#0]            ;2010
0003e2  f7fffffe          BL       LL_ADC_SetChannelSamplingTime
                  |L9.998|
0003e6  4813              LDR      r0,|L9.1076|
0003e8  682a              LDR      r2,[r5,#0]            ;2022
0003ea  4202              TST      r2,r0                 ;2022
0003ec  d055              BEQ      |L9.1178|
0003ee  4812              LDR      r0,|L9.1080|
0003f0  6881              LDR      r1,[r0,#8]            ;2022
0003f2  4d12              LDR      r5,|L9.1084|
0003f4  4b12              LDR      r3,|L9.1088|
0003f6  f00171e0          AND      r1,r1,#0x1c00000      ;2031
0003fa  42aa              CMP      r2,r5                 ;2028
0003fc  d132              BNE      |L9.1124|
0003fe  020d              LSLS     r5,r1,#8              ;2029
000400  d430              BMI      |L9.1124|
000402  6822              LDR      r2,[r4,#0]            ;2031
000404  429a              CMP      r2,r3                 ;2031
000406  d148              BNE      |L9.1178|
000408  6882              LDR      r2,[r0,#8]            ;2031
00040a  f4410100          ORR      r1,r1,#0x800000       ;2033
00040e  f02272e0          BIC      r2,r2,#0x1c00000      ;2033
000412  430a              ORRS     r2,r2,r1              ;2033
000414  6082              STR      r2,[r0,#8]            ;2033
000416  480b              LDR      r0,|L9.1092|
000418  490b              LDR      r1,|L9.1096|
00041a  6800              LDR      r0,[r0,#0]            ;2041  ; SystemCoreClock
00041c  e016              B        |L9.1100|
00041e  0000              DCW      0x0000
                  |L9.1056|
                          DCD      0x407f0000
                  |L9.1060|
                          DCD      0x82082000
                  |L9.1064|
                          DCD      0x03fff000
                  |L9.1068|
                          DCD      0x0007ffff
                  |L9.1072|
                          DCD      0xfe200000
                  |L9.1076|
                          DCD      0x80080000
                  |L9.1080|
                          DCD      0x50040300
                  |L9.1084|
                          DCD      0xc7520000
                  |L9.1088|
                          DCD      0x50040000
                  |L9.1092|
                          DCD      SystemCoreClock
                  |L9.1096|
                          DCD      0x00030d40
                  |L9.1100|
00044c  fbb0f0f1          UDIV     r0,r0,r1              ;2041
000450  1c80              ADDS     r0,r0,#2              ;2041
000452  eb000040          ADD      r0,r0,r0,LSL #1       ;2041
000456  0080              LSLS     r0,r0,#2              ;2041
000458  e000              B        |L9.1116|
                  |L9.1114|
00045a  1e40              SUBS     r0,r0,#1              ;2042
                  |L9.1116|
00045c  9000              STR      r0,[sp,#0]            ;2041
00045e  2800              CMP      r0,#0                 ;2041
000460  d1fb              BNE      |L9.1114|
000462  e01a              B        |L9.1178|
                  |L9.1124|
000464  4d0f              LDR      r5,|L9.1188|
000466  42aa              CMP      r2,r5                 ;2048
000468  d107              BNE      |L9.1146|
00046a  01cd              LSLS     r5,r1,#7              ;2049
00046c  d405              BMI      |L9.1146|
00046e  6822              LDR      r2,[r4,#0]            ;2051
000470  429a              CMP      r2,r3                 ;2051
000472  d112              BNE      |L9.1178|
000474  f0417180          ORR      r1,r1,#0x1000000      ;2053
000478  e00a              B        |L9.1168|
                  |L9.1146|
00047a  f06f4500          MVN      r5,#0x80000000        ;2057
00047e  42ea              CMN      r2,r5                 ;2057
000480  d10b              BNE      |L9.1178|
000482  024a              LSLS     r2,r1,#9              ;2058
000484  d409              BMI      |L9.1178|
000486  6822              LDR      r2,[r4,#0]            ;2060
000488  429a              CMP      r2,r3                 ;2060
00048a  d106              BNE      |L9.1178|
00048c  f4410180          ORR      r1,r1,#0x400000       ;2062
                  |L9.1168|
000490  6882              LDR      r2,[r0,#8]            ;2062
000492  f02272e0          BIC      r2,r2,#0x1c00000      ;2062
000496  430a              ORRS     r2,r2,r1              ;2062
000498  6082              STR      r2,[r0,#8]            ;2062
                  |L9.1178|
00049a  f8847050          STRB     r7,[r4,#0x50]         ;2073
00049e  4640              MOV      r0,r8                 ;2076
0004a0  e5cb              B        |L9.58|
;;;2078   
                          ENDP

0004a2  0000              DCW      0x0000
                  |L9.1188|
                          DCD      0xcb840000

                          AREA ||i.HAL_ADCEx_InjectedConvCpltCallback||, CODE, READONLY, ALIGN=1

                  HAL_ADCEx_InjectedConvCpltCallback PROC
;;;1178     */
;;;1179   __weak void HAL_ADCEx_InjectedConvCpltCallback(ADC_HandleTypeDef *hadc)
000000  4770              BX       lr
;;;1180   {
;;;1181     /* Prevent unused argument(s) compilation warning */
;;;1182     UNUSED(hadc);
;;;1183   
;;;1184     /* NOTE : This function should not be modified. When the callback is needed,
;;;1185               function HAL_ADCEx_InjectedConvCpltCallback must be implemented in the user file.
;;;1186     */
;;;1187   }
;;;1188   
                          ENDP


                          AREA ||i.HAL_ADCEx_InjectedGetValue||, CODE, READONLY, ALIGN=1

                  HAL_ADCEx_InjectedGetValue PROC
;;;1143     */
;;;1144   uint32_t HAL_ADCEx_InjectedGetValue(ADC_HandleTypeDef *hadc, uint32_t InjectedRank)
000000  6800              LDR      r0,[r0,#0]
;;;1145   {
;;;1146     uint32_t tmp_jdr;
;;;1147   
;;;1148     /* Check the parameters */
;;;1149     assert_param(IS_ADC_ALL_INSTANCE(hadc->Instance));
;;;1150     assert_param(IS_ADC_INJECTED_RANK(InjectedRank));
;;;1151   
;;;1152     /* Get ADC converted value */
;;;1153     switch (InjectedRank)
000002  f5b17f87          CMP      r1,#0x10e
000006  d00f              BEQ      |L11.40|
000008  f5b17f05          CMP      r1,#0x214
00000c  d009              BEQ      |L11.34|
00000e  f5a17140          SUB      r1,r1,#0x300
000012  391a              SUBS     r1,r1,#0x1a
000014  d002              BEQ      |L11.28|
;;;1154     {
;;;1155       case ADC_INJECTED_RANK_4:
;;;1156         tmp_jdr = hadc->Instance->JDR4;
;;;1157         break;
;;;1158       case ADC_INJECTED_RANK_3:
;;;1159         tmp_jdr = hadc->Instance->JDR3;
;;;1160         break;
;;;1161       case ADC_INJECTED_RANK_2:
;;;1162         tmp_jdr = hadc->Instance->JDR2;
;;;1163         break;
;;;1164       case ADC_INJECTED_RANK_1:
;;;1165       default:
;;;1166         tmp_jdr = hadc->Instance->JDR1;
000016  f8d00080          LDR      r0,[r0,#0x80]
;;;1167         break;
;;;1168     }
;;;1169   
;;;1170     /* Return ADC converted value */
;;;1171     return tmp_jdr;
;;;1172   }
00001a  4770              BX       lr
                  |L11.28|
00001c  f8d0008c          LDR      r0,[r0,#0x8c]         ;1156
000020  4770              BX       lr
                  |L11.34|
000022  f8d00088          LDR      r0,[r0,#0x88]         ;1159
000026  4770              BX       lr
                  |L11.40|
000028  f8d00084          LDR      r0,[r0,#0x84]         ;1162
00002c  4770              BX       lr
;;;1173   
                          ENDP


                          AREA ||i.HAL_ADCEx_InjectedPollForConversion||, CODE, READONLY, ALIGN=1

                  HAL_ADCEx_InjectedPollForConversion PROC
;;;472      */
;;;473    HAL_StatusTypeDef HAL_ADCEx_InjectedPollForConversion(ADC_HandleTypeDef *hadc, uint32_t Timeout)
000000  e92d41f0          PUSH     {r4-r8,lr}
;;;474    {
000004  4604              MOV      r4,r0
;;;475      uint32_t tickstart;
;;;476      uint32_t tmp_Flag_End;
;;;477      uint32_t tmp_adc_inj_is_trigger_source_sw_start;
;;;478      uint32_t tmp_adc_reg_is_trigger_source_sw_start;
;;;479      uint32_t tmp_cfgr;
;;;480    #if defined(ADC_MULTIMODE_SUPPORT)
;;;481      const ADC_TypeDef *tmpADC_Master;
;;;482      uint32_t tmp_multimode_config = LL_ADC_GetMultimode(__LL_ADC_COMMON_INSTANCE(hadc->Instance));
;;;483    #endif
;;;484    
;;;485      /* Check the parameters */
;;;486      assert_param(IS_ADC_ALL_INSTANCE(hadc->Instance));
;;;487    
;;;488      /* If end of sequence selected */
;;;489      if (hadc->Init.EOCSelection == ADC_EOC_SEQ_CONV)
000006  6940              LDR      r0,[r0,#0x14]
000008  460e              MOV      r6,r1                 ;474
00000a  2808              CMP      r0,#8
00000c  d004              BEQ      |L12.24|
;;;490      {
;;;491        tmp_Flag_End = ADC_FLAG_JEOS;
;;;492      }
;;;493      else /* end of conversion selected */
;;;494      {
;;;495        tmp_Flag_End = ADC_FLAG_JEOC;
00000e  2520              MOVS     r5,#0x20
                  |L12.16|
;;;496      }
;;;497    
;;;498      /* Get timeout */
;;;499      tickstart = HAL_GetTick();
000010  f7fffffe          BL       HAL_GetTick
000014  4607              MOV      r7,r0
;;;500    
;;;501      /* Wait until End of Conversion or Sequence flag is raised */
;;;502      while ((hadc->Instance->ISR & tmp_Flag_End) == 0UL)
000016  e017              B        |L12.72|
                  |L12.24|
000018  2540              MOVS     r5,#0x40              ;491
00001a  e7f9              B        |L12.16|
                  |L12.28|
;;;503      {
;;;504        /* Check if timeout is disabled (set to infinite wait) */
;;;505        if (Timeout != HAL_MAX_DELAY)
00001c  1c70              ADDS     r0,r6,#1
00001e  d013              BEQ      |L12.72|
;;;506        {
;;;507          if (((HAL_GetTick() - tickstart) > Timeout) || (Timeout == 0UL))
000020  f7fffffe          BL       HAL_GetTick
000024  1bc0              SUBS     r0,r0,r7
000026  42b0              CMP      r0,r6
000028  d800              BHI      |L12.44|
00002a  b96e              CBNZ     r6,|L12.72|
                  |L12.44|
;;;508          {
;;;509            /* New check to avoid false timeout detection in case of preemption */
;;;510            if ((hadc->Instance->ISR & tmp_Flag_End) == 0UL)
00002c  6820              LDR      r0,[r4,#0]
00002e  6800              LDR      r0,[r0,#0]
000030  4228              TST      r0,r5
000032  d109              BNE      |L12.72|
;;;511            {
;;;512              /* Update ADC state machine to timeout */
;;;513              SET_BIT(hadc->State, HAL_ADC_STATE_TIMEOUT);
000034  6d60              LDR      r0,[r4,#0x54]
000036  f0400004          ORR      r0,r0,#4
00003a  6560              STR      r0,[r4,#0x54]
;;;514    
;;;515              /* Process unlocked */
;;;516              __HAL_UNLOCK(hadc);
00003c  2000              MOVS     r0,#0
00003e  f8840050          STRB     r0,[r4,#0x50]
;;;517    
;;;518              return HAL_TIMEOUT;
000042  2003              MOVS     r0,#3
                  |L12.68|
;;;519            }
;;;520          }
;;;521        }
;;;522      }
;;;523    
;;;524      /* Retrieve ADC configuration */
;;;525      tmp_adc_inj_is_trigger_source_sw_start = LL_ADC_INJ_IsTriggerSourceSWStart(hadc->Instance);
;;;526      tmp_adc_reg_is_trigger_source_sw_start = LL_ADC_REG_IsTriggerSourceSWStart(hadc->Instance);
;;;527      /* Get relevant register CFGR in ADC instance of ADC master or slave  */
;;;528      /* in function of multimode state (for devices with multimode         */
;;;529      /* available).                                                        */
;;;530    #if defined(ADC_MULTIMODE_SUPPORT)
;;;531      if ((__LL_ADC_MULTI_INSTANCE_MASTER(hadc->Instance) == hadc->Instance)
;;;532          || (tmp_multimode_config == LL_ADC_MULTI_INDEPENDENT)
;;;533          || (tmp_multimode_config == LL_ADC_MULTI_DUAL_REG_SIMULT)
;;;534          || (tmp_multimode_config == LL_ADC_MULTI_DUAL_REG_INTERL)
;;;535         )
;;;536      {
;;;537        tmp_cfgr = READ_REG(hadc->Instance->CFGR);
;;;538      }
;;;539      else
;;;540      {
;;;541        tmpADC_Master = __LL_ADC_MULTI_INSTANCE_MASTER(hadc->Instance);
;;;542        tmp_cfgr = READ_REG(tmpADC_Master->CFGR);
;;;543      }
;;;544    #else
;;;545      tmp_cfgr = READ_REG(hadc->Instance->CFGR);
;;;546    #endif
;;;547    
;;;548      /* Update ADC state machine */
;;;549      SET_BIT(hadc->State, HAL_ADC_STATE_INJ_EOC);
;;;550    
;;;551      /* Determine whether any further conversion upcoming on group injected      */
;;;552      /* by external trigger or by automatic injected conversion                  */
;;;553      /* from group regular.                                                      */
;;;554      if ((tmp_adc_inj_is_trigger_source_sw_start != 0UL)            ||
;;;555          ((READ_BIT(tmp_cfgr, ADC_CFGR_JAUTO) == 0UL)      &&
;;;556           ((tmp_adc_reg_is_trigger_source_sw_start != 0UL)  &&
;;;557            (READ_BIT(tmp_cfgr, ADC_CFGR_CONT) == 0UL))))
;;;558      {
;;;559        /* Check whether end of sequence is reached */
;;;560        if (__HAL_ADC_GET_FLAG(hadc, ADC_FLAG_JEOS))
;;;561        {
;;;562          /* Particular case if injected contexts queue is enabled:             */
;;;563          /* when the last context has been fully processed, JSQR is reset      */
;;;564          /* by the hardware. Even if no injected conversion is planned to come */
;;;565          /* (queue empty, triggers are ignored), it can start again            */
;;;566          /* immediately after setting a new context (JADSTART is still set).   */
;;;567          /* Therefore, state of HAL ADC injected group is kept to busy.        */
;;;568          if (READ_BIT(tmp_cfgr, ADC_CFGR_JQM) == 0UL)
;;;569          {
;;;570            /* Set ADC state */
;;;571            CLEAR_BIT(hadc->State, HAL_ADC_STATE_INJ_BUSY);
;;;572    
;;;573            if ((hadc->State & HAL_ADC_STATE_REG_BUSY) == 0UL)
;;;574            {
;;;575              SET_BIT(hadc->State, HAL_ADC_STATE_READY);
;;;576            }
;;;577          }
;;;578        }
;;;579      }
;;;580    
;;;581      /* Clear polled flag */
;;;582      if (tmp_Flag_End == ADC_FLAG_JEOS)
;;;583      {
;;;584        /* Clear end of sequence JEOS flag of injected group if low power feature */
;;;585        /* "LowPowerAutoWait " is disabled, to not interfere with this feature.   */
;;;586        /* For injected groups, no new conversion will start before JEOS is       */
;;;587        /* cleared.                                                               */
;;;588        if (READ_BIT(tmp_cfgr, ADC_CFGR_AUTDLY) == 0UL)
;;;589        {
;;;590          __HAL_ADC_CLEAR_FLAG(hadc, (ADC_FLAG_JEOC | ADC_FLAG_JEOS));
;;;591        }
;;;592      }
;;;593      else
;;;594      {
;;;595        __HAL_ADC_CLEAR_FLAG(hadc, ADC_FLAG_JEOC);
;;;596      }
;;;597    
;;;598      /* Return API HAL status */
;;;599      return HAL_OK;
;;;600    }
000044  e8bd81f0          POP      {r4-r8,pc}
                  |L12.72|
000048  6820              LDR      r0,[r4,#0]            ;502
00004a  6800              LDR      r0,[r0,#0]            ;502
00004c  4228              TST      r0,r5                 ;502
00004e  d0e5              BEQ      |L12.28|
000050  6820              LDR      r0,[r4,#0]            ;502
000052  6cc1              LDR      r1,[r0,#0x4c]         ;502
000054  f0110fc0          TST      r1,#0xc0              ;502
000058  d00c              BEQ      |L12.116|
00005a  2200              MOVS     r2,#0                 ;502
                  |L12.92|
00005c  68c1              LDR      r1,[r0,#0xc]          ;502
00005e  f4116f40          TST      r1,#0xc00             ;502
000062  d009              BEQ      |L12.120|
000064  2300              MOVS     r3,#0                 ;502
                  |L12.102|
000066  68c1              LDR      r1,[r0,#0xc]          ;545
000068  6d66              LDR      r6,[r4,#0x54]         ;549
00006a  f4465600          ORR      r6,r6,#0x2000         ;549
00006e  6566              STR      r6,[r4,#0x54]         ;549
000070  b94a              CBNZ     r2,|L12.134|
000072  e003              B        |L12.124|
                  |L12.116|
000074  2201              MOVS     r2,#1                 ;554
000076  e7f1              B        |L12.92|
                  |L12.120|
000078  2301              MOVS     r3,#1                 ;554
00007a  e7f4              B        |L12.102|
                  |L12.124|
00007c  018a              LSLS     r2,r1,#6              ;555
00007e  d412              BMI      |L12.166|
000080  b18b              CBZ      r3,|L12.166|
000082  048a              LSLS     r2,r1,#18             ;557
000084  d40f              BMI      |L12.166|
                  |L12.134|
000086  6802              LDR      r2,[r0,#0]            ;560
000088  0652              LSLS     r2,r2,#25             ;560
00008a  d50c              BPL      |L12.166|
00008c  028a              LSLS     r2,r1,#10             ;568
00008e  d40a              BMI      |L12.166|
000090  6d62              LDR      r2,[r4,#0x54]         ;571
000092  f4225280          BIC      r2,r2,#0x1000         ;571
000096  6562              STR      r2,[r4,#0x54]         ;571
000098  6d62              LDR      r2,[r4,#0x54]         ;573
00009a  05d2              LSLS     r2,r2,#23             ;573
00009c  d403              BMI      |L12.166|
00009e  6d62              LDR      r2,[r4,#0x54]         ;575
0000a0  f0420201          ORR      r2,r2,#1              ;575
0000a4  6562              STR      r2,[r4,#0x54]         ;575
                  |L12.166|
0000a6  2d40              CMP      r5,#0x40              ;582
0000a8  d001              BEQ      |L12.174|
0000aa  2120              MOVS     r1,#0x20              ;595
0000ac  e002              B        |L12.180|
                  |L12.174|
0000ae  0449              LSLS     r1,r1,#17             ;588
0000b0  d401              BMI      |L12.182|
0000b2  2160              MOVS     r1,#0x60              ;590
                  |L12.180|
0000b4  6001              STR      r1,[r0,#0]            ;590
                  |L12.182|
0000b6  2000              MOVS     r0,#0                 ;599
0000b8  e7c4              B        |L12.68|
;;;601    
                          ENDP


                          AREA ||i.HAL_ADCEx_InjectedQueueOverflowCallback||, CODE, READONLY, ALIGN=1

                  HAL_ADCEx_InjectedQueueOverflowCallback PROC
;;;1197     */
;;;1198   __weak void HAL_ADCEx_InjectedQueueOverflowCallback(ADC_HandleTypeDef *hadc)
000000  4770              BX       lr
;;;1199   {
;;;1200     /* Prevent unused argument(s) compilation warning */
;;;1201     UNUSED(hadc);
;;;1202   
;;;1203     /* NOTE : This function should not be modified. When the callback is needed,
;;;1204               function HAL_ADCEx_InjectedQueueOverflowCallback must be implemented in the user file.
;;;1205     */
;;;1206   }
;;;1207   
                          ENDP


                          AREA ||i.HAL_ADCEx_InjectedStart||, CODE, READONLY, ALIGN=2

                  HAL_ADCEx_InjectedStart PROC
;;;268      */
;;;269    HAL_StatusTypeDef HAL_ADCEx_InjectedStart(ADC_HandleTypeDef *hadc)
000000  b510              PUSH     {r4,lr}
;;;270    {
000002  4604              MOV      r4,r0
;;;271      HAL_StatusTypeDef tmp_hal_status;
;;;272      uint32_t tmp_config_injected_queue;
;;;273    #if defined(ADC_MULTIMODE_SUPPORT)
;;;274      uint32_t tmp_multimode_config = LL_ADC_GetMultimode(__LL_ADC_COMMON_INSTANCE(hadc->Instance));
;;;275    #endif
;;;276    
;;;277      /* Check the parameters */
;;;278      assert_param(IS_ADC_ALL_INSTANCE(hadc->Instance));
;;;279    
;;;280      if (LL_ADC_INJ_IsConversionOngoing(hadc->Instance) != 0UL)
000004  6800              LDR      r0,[r0,#0]
000006  f7fffffe          BL       LL_ADC_INJ_IsConversionOngoing
00000a  bb00              CBNZ     r0,|L14.78|
;;;281      {
;;;282        return HAL_BUSY;
;;;283      }
;;;284      else
;;;285      {
;;;286        /* In case of software trigger detection enabled, JQDIS must be set
;;;287          (which can be done only if ADSTART and JADSTART are both cleared).
;;;288           If JQDIS is not set at that point, returns an error
;;;289           - since software trigger detection is disabled. User needs to
;;;290           resort to HAL_ADCEx_DisableInjectedQueue() API to set JQDIS.
;;;291           - or (if JQDIS is intentionally reset) since JEXTEN = 0 which means
;;;292             the queue is empty */
;;;293        tmp_config_injected_queue = READ_BIT(hadc->Instance->CFGR, ADC_CFGR_JQDIS);
00000c  6821              LDR      r1,[r4,#0]
00000e  68c8              LDR      r0,[r1,#0xc]
;;;294    
;;;295        if ((READ_BIT(hadc->Instance->JSQR, ADC_JSQR_JEXTEN) == 0UL)
000010  6cc9              LDR      r1,[r1,#0x4c]
000012  f0004000          AND      r0,r0,#0x80000000     ;293
000016  f0110fc0          TST      r1,#0xc0
00001a  d100              BNE      |L14.30|
;;;296            && (tmp_config_injected_queue == 0UL)
00001c  b188              CBZ      r0,|L14.66|
                  |L14.30|
;;;297           )
;;;298        {
;;;299          SET_BIT(hadc->State, HAL_ADC_STATE_ERROR_CONFIG);
;;;300          return HAL_ERROR;
;;;301        }
;;;302    
;;;303        /* Process locked */
;;;304        __HAL_LOCK(hadc);
00001e  f8940050          LDRB     r0,[r4,#0x50]
000022  2801              CMP      r0,#1
000024  d013              BEQ      |L14.78|
000026  2001              MOVS     r0,#1
000028  f8840050          STRB     r0,[r4,#0x50]
;;;305    
;;;306        /* Enable the ADC peripheral */
;;;307        tmp_hal_status = ADC_Enable(hadc);
00002c  4620              MOV      r0,r4
00002e  f7fffffe          BL       ADC_Enable
000032  0001              MOVS     r1,r0
000034  f04f0000          MOV      r0,#0
000038  d00b              BEQ      |L14.82|
;;;308    
;;;309        /* Start conversion if ADC is effectively enabled */
;;;310        if (tmp_hal_status == HAL_OK)
;;;311        {
;;;312          /* Check if a regular conversion is ongoing */
;;;313          if ((hadc->State & HAL_ADC_STATE_REG_BUSY) != 0UL)
;;;314          {
;;;315            /* Reset ADC error code field related to injected conversions only */
;;;316            CLEAR_BIT(hadc->ErrorCode, HAL_ADC_ERROR_JQOVF);
;;;317          }
;;;318          else
;;;319          {
;;;320            /* Set ADC error code to none */
;;;321            ADC_CLEAR_ERRORCODE(hadc);
;;;322          }
;;;323    
;;;324          /* Set ADC state                                                        */
;;;325          /* - Clear state bitfield related to injected group conversion results  */
;;;326          /* - Set state bitfield related to injected operation                   */
;;;327          ADC_STATE_CLR_SET(hadc->State,
;;;328                            HAL_ADC_STATE_READY | HAL_ADC_STATE_INJ_EOC,
;;;329                            HAL_ADC_STATE_INJ_BUSY);
;;;330    
;;;331    #if defined(ADC_MULTIMODE_SUPPORT)
;;;332          /* Reset HAL_ADC_STATE_MULTIMODE_SLAVE bit
;;;333            - if ADC instance is master or if multimode feature is not available
;;;334            - if multimode setting is disabled (ADC instance slave in independent mode) */
;;;335          if ((__LL_ADC_MULTI_INSTANCE_MASTER(hadc->Instance) == hadc->Instance)
;;;336              || (tmp_multimode_config == LL_ADC_MULTI_INDEPENDENT)
;;;337             )
;;;338          {
;;;339            CLEAR_BIT(hadc->State, HAL_ADC_STATE_MULTIMODE_SLAVE);
;;;340          }
;;;341    #endif
;;;342    
;;;343          /* Clear ADC group injected group conversion flag */
;;;344          /* (To ensure of no unknown state from potential previous ADC operations) */
;;;345          __HAL_ADC_CLEAR_FLAG(hadc, (ADC_FLAG_JEOC | ADC_FLAG_JEOS));
;;;346    
;;;347          /* Process unlocked */
;;;348          /* Unlock before starting ADC conversions: in case of potential         */
;;;349          /* interruption, to let the process to ADC IRQ Handler.                 */
;;;350          __HAL_UNLOCK(hadc);
;;;351    
;;;352          /* Enable conversion of injected group, if automatic injected conversion  */
;;;353          /* is disabled.                                                           */
;;;354          /* If software start has been selected, conversion starts immediately.    */
;;;355          /* If external trigger has been selected, conversion will start at next   */
;;;356          /* trigger event.                                                         */
;;;357          /* Case of multimode enabled (when multimode feature is available):       */
;;;358          /* if ADC is slave,                                                       */
;;;359          /*    - ADC is enabled only (conversion is not started),                  */
;;;360          /*    - if multimode only concerns regular conversion, ADC is enabled     */
;;;361          /*     and conversion is started.                                         */
;;;362          /* If ADC is master or independent,                                       */
;;;363          /*    - ADC is enabled and conversion is started.                         */
;;;364    #if defined(ADC_MULTIMODE_SUPPORT)
;;;365          if ((__LL_ADC_MULTI_INSTANCE_MASTER(hadc->Instance) == hadc->Instance)
;;;366              || (tmp_multimode_config == LL_ADC_MULTI_INDEPENDENT)
;;;367              || (tmp_multimode_config == LL_ADC_MULTI_DUAL_REG_SIMULT)
;;;368              || (tmp_multimode_config == LL_ADC_MULTI_DUAL_REG_INTERL)
;;;369             )
;;;370          {
;;;371            /* ADC instance is not a multimode slave instance with multimode injected conversions enabled */
;;;372            if (LL_ADC_INJ_GetTrigAuto(hadc->Instance) == LL_ADC_INJ_TRIG_INDEPENDENT)
;;;373            {
;;;374              LL_ADC_INJ_StartConversion(hadc->Instance);
;;;375            }
;;;376          }
;;;377          else
;;;378          {
;;;379            /* ADC instance is not a multimode slave instance with multimode injected conversions enabled */
;;;380            SET_BIT(hadc->State, HAL_ADC_STATE_MULTIMODE_SLAVE);
;;;381          }
;;;382    #else
;;;383          if (LL_ADC_INJ_GetTrigAuto(hadc->Instance) == LL_ADC_INJ_TRIG_INDEPENDENT)
;;;384          {
;;;385            /* Start ADC group injected conversion */
;;;386            LL_ADC_INJ_StartConversion(hadc->Instance);
;;;387          }
;;;388    #endif
;;;389    
;;;390        }
;;;391        else
;;;392        {
;;;393          /* Process unlocked */
;;;394          __HAL_UNLOCK(hadc);
00003a  f8840050          STRB     r0,[r4,#0x50]
                  |L14.62|
;;;395        }
;;;396    
;;;397        /* Return function status */
;;;398        return tmp_hal_status;
00003e  4608              MOV      r0,r1
;;;399      }
;;;400    }
000040  bd10              POP      {r4,pc}
                  |L14.66|
000042  6d60              LDR      r0,[r4,#0x54]         ;299
000044  f0400020          ORR      r0,r0,#0x20           ;299
000048  6560              STR      r0,[r4,#0x54]         ;299
00004a  2001              MOVS     r0,#1                 ;300
00004c  bd10              POP      {r4,pc}
                  |L14.78|
00004e  2002              MOVS     r0,#2                 ;304
000050  bd10              POP      {r4,pc}
                  |L14.82|
000052  6d62              LDR      r2,[r4,#0x54]         ;313
000054  05d2              LSLS     r2,r2,#23             ;313
000056  d504              BPL      |L14.98|
000058  6da2              LDR      r2,[r4,#0x58]         ;316
00005a  f0220208          BIC      r2,r2,#8              ;316
00005e  65a2              STR      r2,[r4,#0x58]         ;316
000060  e000              B        |L14.100|
                  |L14.98|
000062  65a0              STR      r0,[r4,#0x58]         ;321
                  |L14.100|
000064  6d62              LDR      r2,[r4,#0x54]         ;327
000066  f2420301          MOV      r3,#0x2001            ;327
00006a  439a              BICS     r2,r2,r3              ;327
00006c  f4425280          ORR      r2,r2,#0x1000         ;327
000070  6562              STR      r2,[r4,#0x54]         ;327
000072  6823              LDR      r3,[r4,#0]            ;345
000074  2260              MOVS     r2,#0x60              ;345
000076  601a              STR      r2,[r3,#0]            ;345
000078  f8840050          STRB     r0,[r4,#0x50]         ;350
00007c  6820              LDR      r0,[r4,#0]            ;350
00007e  68c2              LDR      r2,[r0,#0xc]          ;350
000080  f0127f00          TST      r2,#0x2000000         ;350
000084  d1db              BNE      |L14.62|
000086  6882              LDR      r2,[r0,#8]            ;383
000088  4b02              LDR      r3,|L14.148|
00008a  401a              ANDS     r2,r2,r3              ;383
00008c  f0420208          ORR      r2,r2,#8              ;383
000090  6082              STR      r2,[r0,#8]            ;383
000092  e7d4              B        |L14.62|
;;;401    
                          ENDP

                  |L14.148|
                          DCD      0x7fffffc0

                          AREA ||i.HAL_ADCEx_InjectedStart_IT||, CODE, READONLY, ALIGN=2

                  HAL_ADCEx_InjectedStart_IT PROC
;;;613      */
;;;614    HAL_StatusTypeDef HAL_ADCEx_InjectedStart_IT(ADC_HandleTypeDef *hadc)
000000  b510              PUSH     {r4,lr}
;;;615    {
000002  4604              MOV      r4,r0
;;;616      HAL_StatusTypeDef tmp_hal_status;
;;;617      uint32_t tmp_config_injected_queue;
;;;618    #if defined(ADC_MULTIMODE_SUPPORT)
;;;619      uint32_t tmp_multimode_config = LL_ADC_GetMultimode(__LL_ADC_COMMON_INSTANCE(hadc->Instance));
;;;620    #endif
;;;621    
;;;622      /* Check the parameters */
;;;623      assert_param(IS_ADC_ALL_INSTANCE(hadc->Instance));
;;;624    
;;;625      if (LL_ADC_INJ_IsConversionOngoing(hadc->Instance) != 0UL)
000004  6800              LDR      r0,[r0,#0]
000006  f7fffffe          BL       LL_ADC_INJ_IsConversionOngoing
00000a  bb00              CBNZ     r0,|L15.78|
;;;626      {
;;;627        return HAL_BUSY;
;;;628      }
;;;629      else
;;;630      {
;;;631        /* In case of software trigger detection enabled, JQDIS must be set
;;;632          (which can be done only if ADSTART and JADSTART are both cleared).
;;;633           If JQDIS is not set at that point, returns an error
;;;634           - since software trigger detection is disabled. User needs to
;;;635           resort to HAL_ADCEx_DisableInjectedQueue() API to set JQDIS.
;;;636           - or (if JQDIS is intentionally reset) since JEXTEN = 0 which means
;;;637             the queue is empty */
;;;638        tmp_config_injected_queue = READ_BIT(hadc->Instance->CFGR, ADC_CFGR_JQDIS);
00000c  6821              LDR      r1,[r4,#0]
00000e  68c8              LDR      r0,[r1,#0xc]
;;;639    
;;;640        if ((READ_BIT(hadc->Instance->JSQR, ADC_JSQR_JEXTEN) == 0UL)
000010  6cc9              LDR      r1,[r1,#0x4c]
000012  f0004000          AND      r0,r0,#0x80000000     ;638
000016  f0110fc0          TST      r1,#0xc0
00001a  d100              BNE      |L15.30|
;;;641            && (tmp_config_injected_queue == 0UL)
00001c  b188              CBZ      r0,|L15.66|
                  |L15.30|
;;;642           )
;;;643        {
;;;644          SET_BIT(hadc->State, HAL_ADC_STATE_ERROR_CONFIG);
;;;645          return HAL_ERROR;
;;;646        }
;;;647    
;;;648        /* Process locked */
;;;649        __HAL_LOCK(hadc);
00001e  f8940050          LDRB     r0,[r4,#0x50]
000022  2801              CMP      r0,#1
000024  d013              BEQ      |L15.78|
000026  2001              MOVS     r0,#1
000028  f8840050          STRB     r0,[r4,#0x50]
;;;650    
;;;651        /* Enable the ADC peripheral */
;;;652        tmp_hal_status = ADC_Enable(hadc);
00002c  4620              MOV      r0,r4
00002e  f7fffffe          BL       ADC_Enable
000032  0001              MOVS     r1,r0
000034  f04f0000          MOV      r0,#0
000038  d00b              BEQ      |L15.82|
;;;653    
;;;654        /* Start conversion if ADC is effectively enabled */
;;;655        if (tmp_hal_status == HAL_OK)
;;;656        {
;;;657          /* Check if a regular conversion is ongoing */
;;;658          if ((hadc->State & HAL_ADC_STATE_REG_BUSY) != 0UL)
;;;659          {
;;;660            /* Reset ADC error code field related to injected conversions only */
;;;661            CLEAR_BIT(hadc->ErrorCode, HAL_ADC_ERROR_JQOVF);
;;;662          }
;;;663          else
;;;664          {
;;;665            /* Set ADC error code to none */
;;;666            ADC_CLEAR_ERRORCODE(hadc);
;;;667          }
;;;668    
;;;669          /* Set ADC state                                                        */
;;;670          /* - Clear state bitfield related to injected group conversion results  */
;;;671          /* - Set state bitfield related to injected operation                   */
;;;672          ADC_STATE_CLR_SET(hadc->State,
;;;673                            HAL_ADC_STATE_READY | HAL_ADC_STATE_INJ_EOC,
;;;674                            HAL_ADC_STATE_INJ_BUSY);
;;;675    
;;;676    #if defined(ADC_MULTIMODE_SUPPORT)
;;;677          /* Reset HAL_ADC_STATE_MULTIMODE_SLAVE bit
;;;678            - if ADC instance is master or if multimode feature is not available
;;;679            - if multimode setting is disabled (ADC instance slave in independent mode) */
;;;680          if ((__LL_ADC_MULTI_INSTANCE_MASTER(hadc->Instance) == hadc->Instance)
;;;681              || (tmp_multimode_config == LL_ADC_MULTI_INDEPENDENT)
;;;682             )
;;;683          {
;;;684            CLEAR_BIT(hadc->State, HAL_ADC_STATE_MULTIMODE_SLAVE);
;;;685          }
;;;686    #endif
;;;687    
;;;688          /* Clear ADC group injected group conversion flag */
;;;689          /* (To ensure of no unknown state from potential previous ADC operations) */
;;;690          __HAL_ADC_CLEAR_FLAG(hadc, (ADC_FLAG_JEOC | ADC_FLAG_JEOS));
;;;691    
;;;692          /* Process unlocked */
;;;693          /* Unlock before starting ADC conversions: in case of potential         */
;;;694          /* interruption, to let the process to ADC IRQ Handler.                 */
;;;695          __HAL_UNLOCK(hadc);
;;;696    
;;;697          /* Enable ADC Injected context queue overflow interrupt if this feature   */
;;;698          /* is enabled.                                                            */
;;;699          if ((hadc->Instance->CFGR & ADC_CFGR_JQM) != 0UL)
;;;700          {
;;;701            __HAL_ADC_ENABLE_IT(hadc, ADC_FLAG_JQOVF);
;;;702          }
;;;703    
;;;704          /* Enable ADC end of conversion interrupt */
;;;705          switch (hadc->Init.EOCSelection)
;;;706          {
;;;707            case ADC_EOC_SEQ_CONV:
;;;708              __HAL_ADC_DISABLE_IT(hadc, ADC_IT_JEOC);
;;;709              __HAL_ADC_ENABLE_IT(hadc, ADC_IT_JEOS);
;;;710              break;
;;;711            /* case ADC_EOC_SINGLE_CONV */
;;;712            default:
;;;713              __HAL_ADC_DISABLE_IT(hadc, ADC_IT_JEOS);
;;;714              __HAL_ADC_ENABLE_IT(hadc, ADC_IT_JEOC);
;;;715              break;
;;;716          }
;;;717    
;;;718          /* Enable conversion of injected group, if automatic injected conversion  */
;;;719          /* is disabled.                                                           */
;;;720          /* If software start has been selected, conversion starts immediately.    */
;;;721          /* If external trigger has been selected, conversion will start at next   */
;;;722          /* trigger event.                                                         */
;;;723          /* Case of multimode enabled (when multimode feature is available):       */
;;;724          /* if ADC is slave,                                                       */
;;;725          /*    - ADC is enabled only (conversion is not started),                  */
;;;726          /*    - if multimode only concerns regular conversion, ADC is enabled     */
;;;727          /*     and conversion is started.                                         */
;;;728          /* If ADC is master or independent,                                       */
;;;729          /*    - ADC is enabled and conversion is started.                         */
;;;730    #if defined(ADC_MULTIMODE_SUPPORT)
;;;731          if ((__LL_ADC_MULTI_INSTANCE_MASTER(hadc->Instance) == hadc->Instance)
;;;732              || (tmp_multimode_config == LL_ADC_MULTI_INDEPENDENT)
;;;733              || (tmp_multimode_config == LL_ADC_MULTI_DUAL_REG_SIMULT)
;;;734              || (tmp_multimode_config == LL_ADC_MULTI_DUAL_REG_INTERL)
;;;735             )
;;;736          {
;;;737            /* ADC instance is not a multimode slave instance with multimode injected conversions enabled */
;;;738            if (LL_ADC_INJ_GetTrigAuto(hadc->Instance) == LL_ADC_INJ_TRIG_INDEPENDENT)
;;;739            {
;;;740              LL_ADC_INJ_StartConversion(hadc->Instance);
;;;741            }
;;;742          }
;;;743          else
;;;744          {
;;;745            /* ADC instance is not a multimode slave instance with multimode injected conversions enabled */
;;;746            SET_BIT(hadc->State, HAL_ADC_STATE_MULTIMODE_SLAVE);
;;;747          }
;;;748    #else
;;;749          if (LL_ADC_INJ_GetTrigAuto(hadc->Instance) == LL_ADC_INJ_TRIG_INDEPENDENT)
;;;750          {
;;;751            /* Start ADC group injected conversion */
;;;752            LL_ADC_INJ_StartConversion(hadc->Instance);
;;;753          }
;;;754    #endif
;;;755    
;;;756        }
;;;757        else
;;;758        {
;;;759          /* Process unlocked */
;;;760          __HAL_UNLOCK(hadc);
00003a  f8840050          STRB     r0,[r4,#0x50]
                  |L15.62|
;;;761        }
;;;762    
;;;763        /* Return function status */
;;;764        return tmp_hal_status;
00003e  4608              MOV      r0,r1
;;;765      }
;;;766    }
000040  bd10              POP      {r4,pc}
                  |L15.66|
000042  6d60              LDR      r0,[r4,#0x54]         ;644
000044  f0400020          ORR      r0,r0,#0x20           ;644
000048  6560              STR      r0,[r4,#0x54]         ;644
00004a  2001              MOVS     r0,#1                 ;645
00004c  bd10              POP      {r4,pc}
                  |L15.78|
00004e  2002              MOVS     r0,#2                 ;649
000050  bd10              POP      {r4,pc}
                  |L15.82|
000052  6d62              LDR      r2,[r4,#0x54]         ;658
000054  05d2              LSLS     r2,r2,#23             ;658
000056  d504              BPL      |L15.98|
000058  6da2              LDR      r2,[r4,#0x58]         ;661
00005a  f0220208          BIC      r2,r2,#8              ;661
00005e  65a2              STR      r2,[r4,#0x58]         ;661
000060  e000              B        |L15.100|
                  |L15.98|
000062  65a0              STR      r0,[r4,#0x58]         ;666
                  |L15.100|
000064  6d62              LDR      r2,[r4,#0x54]         ;672
000066  f2420301          MOV      r3,#0x2001            ;672
00006a  439a              BICS     r2,r2,r3              ;672
00006c  f4425280          ORR      r2,r2,#0x1000         ;672
000070  6562              STR      r2,[r4,#0x54]         ;672
000072  6823              LDR      r3,[r4,#0]            ;690
000074  2260              MOVS     r2,#0x60              ;690
000076  601a              STR      r2,[r3,#0]            ;690
000078  f8840050          STRB     r0,[r4,#0x50]         ;695
00007c  6820              LDR      r0,[r4,#0]            ;699
00007e  68c2              LDR      r2,[r0,#0xc]          ;699
000080  0292              LSLS     r2,r2,#10             ;699
000082  d503              BPL      |L15.140|
000084  6842              LDR      r2,[r0,#4]            ;701
000086  f4426280          ORR      r2,r2,#0x400          ;701
00008a  6042              STR      r2,[r0,#4]            ;701
                  |L15.140|
00008c  6960              LDR      r0,[r4,#0x14]         ;705
00008e  2808              CMP      r0,#8                 ;705
000090  6820              LDR      r0,[r4,#0]            ;708
000092  6842              LDR      r2,[r0,#4]            ;708
000094  d007              BEQ      |L15.166|
000096  f0220240          BIC      r2,r2,#0x40           ;713
00009a  6042              STR      r2,[r0,#4]            ;713
00009c  6820              LDR      r0,[r4,#0]            ;714
00009e  6842              LDR      r2,[r0,#4]            ;714
0000a0  f0420220          ORR      r2,r2,#0x20           ;714
0000a4  e006              B        |L15.180|
                  |L15.166|
0000a6  f0220220          BIC      r2,r2,#0x20           ;708
0000aa  6042              STR      r2,[r0,#4]            ;708
0000ac  6820              LDR      r0,[r4,#0]            ;709
0000ae  6842              LDR      r2,[r0,#4]            ;709
0000b0  f0420240          ORR      r2,r2,#0x40           ;709
                  |L15.180|
0000b4  6042              STR      r2,[r0,#4]            ;709
0000b6  6820              LDR      r0,[r4,#0]            ;709
0000b8  68c2              LDR      r2,[r0,#0xc]          ;709
0000ba  f0127f00          TST      r2,#0x2000000         ;709
0000be  d1be              BNE      |L15.62|
0000c0  6882              LDR      r2,[r0,#8]            ;709
0000c2  4b03              LDR      r3,|L15.208|
0000c4  401a              ANDS     r2,r2,r3              ;709
0000c6  f0420208          ORR      r2,r2,#8              ;709
0000ca  6082              STR      r2,[r0,#8]            ;709
0000cc  e7b7              B        |L15.62|
;;;767    
                          ENDP

0000ce  0000              DCW      0x0000
                  |L15.208|
                          DCD      0x7fffffc0

                          AREA ||i.HAL_ADCEx_InjectedStop||, CODE, READONLY, ALIGN=1

                  HAL_ADCEx_InjectedStop PROC
;;;417      */
;;;418    HAL_StatusTypeDef HAL_ADCEx_InjectedStop(ADC_HandleTypeDef *hadc)
000000  b570              PUSH     {r4-r6,lr}
;;;419    {
000002  4604              MOV      r4,r0
;;;420      HAL_StatusTypeDef tmp_hal_status;
;;;421    
;;;422      /* Check the parameters */
;;;423      assert_param(IS_ADC_ALL_INSTANCE(hadc->Instance));
;;;424    
;;;425      /* Process locked */
;;;426      __HAL_LOCK(hadc);
000004  f8900050          LDRB     r0,[r0,#0x50]
000008  2801              CMP      r0,#1
00000a  d009              BEQ      |L16.32|
00000c  2001              MOVS     r0,#1
00000e  f8840050          STRB     r0,[r4,#0x50]
;;;427    
;;;428      /* 1. Stop potential conversion on going on injected group only. */
;;;429      tmp_hal_status = ADC_ConversionStop(hadc, ADC_INJECTED_GROUP);
000012  2102              MOVS     r1,#2
000014  4620              MOV      r0,r4
000016  f7fffffe          BL       ADC_ConversionStop
00001a  0005              MOVS     r5,r0
00001c  d002              BEQ      |L16.36|
00001e  e014              B        |L16.74|
                  |L16.32|
000020  2002              MOVS     r0,#2                 ;426
;;;430    
;;;431      /* Disable ADC peripheral if injected conversions are effectively stopped   */
;;;432      /* and if no conversion on regular group is on-going                       */
;;;433      if (tmp_hal_status == HAL_OK)
;;;434      {
;;;435        if (LL_ADC_REG_IsConversionOngoing(hadc->Instance) == 0UL)
;;;436        {
;;;437          /* 2. Disable the ADC peripheral */
;;;438          tmp_hal_status = ADC_Disable(hadc);
;;;439    
;;;440          /* Check if ADC is effectively disabled */
;;;441          if (tmp_hal_status == HAL_OK)
;;;442          {
;;;443            /* Set ADC state */
;;;444            ADC_STATE_CLR_SET(hadc->State,
;;;445                              HAL_ADC_STATE_REG_BUSY | HAL_ADC_STATE_INJ_BUSY,
;;;446                              HAL_ADC_STATE_READY);
;;;447          }
;;;448        }
;;;449        /* Conversion on injected group is stopped, but ADC not disabled since    */
;;;450        /* conversion on regular group is still running.                          */
;;;451        else
;;;452        {
;;;453          /* Set ADC state */
;;;454          CLEAR_BIT(hadc->State, HAL_ADC_STATE_INJ_BUSY);
;;;455        }
;;;456      }
;;;457    
;;;458      /* Process unlocked */
;;;459      __HAL_UNLOCK(hadc);
;;;460    
;;;461      /* Return function status */
;;;462      return tmp_hal_status;
;;;463    }
000022  bd70              POP      {r4-r6,pc}
                  |L16.36|
000024  6820              LDR      r0,[r4,#0]            ;435
000026  f7fffffe          BL       LL_ADC_REG_IsConversionOngoing
00002a  b118              CBZ      r0,|L16.52|
00002c  6d60              LDR      r0,[r4,#0x54]         ;454
00002e  f4205080          BIC      r0,r0,#0x1000         ;454
000032  e009              B        |L16.72|
                  |L16.52|
000034  4620              MOV      r0,r4                 ;438
000036  f7fffffe          BL       ADC_Disable
00003a  0005              MOVS     r5,r0                 ;438
00003c  d105              BNE      |L16.74|
00003e  6d60              LDR      r0,[r4,#0x54]         ;444
000040  f4205088          BIC      r0,r0,#0x1100         ;444
000044  f0400001          ORR      r0,r0,#1              ;444
                  |L16.72|
000048  6560              STR      r0,[r4,#0x54]         ;454
                  |L16.74|
00004a  2000              MOVS     r0,#0                 ;459
00004c  f8840050          STRB     r0,[r4,#0x50]         ;459
000050  4628              MOV      r0,r5                 ;462
000052  bd70              POP      {r4-r6,pc}
;;;464    
                          ENDP


                          AREA ||i.HAL_ADCEx_InjectedStop_IT||, CODE, READONLY, ALIGN=1

                  HAL_ADCEx_InjectedStop_IT PROC
;;;786      */
;;;787    HAL_StatusTypeDef HAL_ADCEx_InjectedStop_IT(ADC_HandleTypeDef *hadc)
000000  b570              PUSH     {r4-r6,lr}
;;;788    {
000002  4604              MOV      r4,r0
;;;789      HAL_StatusTypeDef tmp_hal_status;
;;;790    
;;;791      /* Check the parameters */
;;;792      assert_param(IS_ADC_ALL_INSTANCE(hadc->Instance));
;;;793    
;;;794      /* Process locked */
;;;795      __HAL_LOCK(hadc);
000004  f8900050          LDRB     r0,[r0,#0x50]
000008  2801              CMP      r0,#1
00000a  d009              BEQ      |L17.32|
00000c  2001              MOVS     r0,#1
00000e  f8840050          STRB     r0,[r4,#0x50]
;;;796    
;;;797      /* 1. Stop potential conversion on going on injected group only. */
;;;798      tmp_hal_status = ADC_ConversionStop(hadc, ADC_INJECTED_GROUP);
000012  2102              MOVS     r1,#2
000014  4620              MOV      r0,r4
000016  f7fffffe          BL       ADC_ConversionStop
00001a  0005              MOVS     r5,r0
00001c  d002              BEQ      |L17.36|
00001e  e019              B        |L17.84|
                  |L17.32|
000020  2002              MOVS     r0,#2                 ;795
;;;799    
;;;800      /* Disable ADC peripheral if injected conversions are effectively stopped   */
;;;801      /* and if no conversion on the other group (regular group) is intended to   */
;;;802      /* continue.                                                                */
;;;803      if (tmp_hal_status == HAL_OK)
;;;804      {
;;;805        /* Disable ADC end of conversion interrupt for injected channels */
;;;806        __HAL_ADC_DISABLE_IT(hadc, (ADC_IT_JEOC | ADC_IT_JEOS | ADC_FLAG_JQOVF));
;;;807    
;;;808        if (LL_ADC_REG_IsConversionOngoing(hadc->Instance) == 0UL)
;;;809        {
;;;810          /* 2. Disable the ADC peripheral */
;;;811          tmp_hal_status = ADC_Disable(hadc);
;;;812    
;;;813          /* Check if ADC is effectively disabled */
;;;814          if (tmp_hal_status == HAL_OK)
;;;815          {
;;;816            /* Set ADC state */
;;;817            ADC_STATE_CLR_SET(hadc->State,
;;;818                              HAL_ADC_STATE_REG_BUSY | HAL_ADC_STATE_INJ_BUSY,
;;;819                              HAL_ADC_STATE_READY);
;;;820          }
;;;821        }
;;;822        /* Conversion on injected group is stopped, but ADC not disabled since    */
;;;823        /* conversion on regular group is still running.                          */
;;;824        else
;;;825        {
;;;826          /* Set ADC state */
;;;827          CLEAR_BIT(hadc->State, HAL_ADC_STATE_INJ_BUSY);
;;;828        }
;;;829      }
;;;830    
;;;831      /* Process unlocked */
;;;832      __HAL_UNLOCK(hadc);
;;;833    
;;;834      /* Return function status */
;;;835      return tmp_hal_status;
;;;836    }
000022  bd70              POP      {r4-r6,pc}
                  |L17.36|
000024  6820              LDR      r0,[r4,#0]            ;806
000026  6841              LDR      r1,[r0,#4]            ;806
000028  f421618c          BIC      r1,r1,#0x460          ;806
00002c  6041              STR      r1,[r0,#4]            ;806
00002e  6820              LDR      r0,[r4,#0]            ;808
000030  f7fffffe          BL       LL_ADC_REG_IsConversionOngoing
000034  b118              CBZ      r0,|L17.62|
000036  6d60              LDR      r0,[r4,#0x54]         ;827
000038  f4205080          BIC      r0,r0,#0x1000         ;827
00003c  e009              B        |L17.82|
                  |L17.62|
00003e  4620              MOV      r0,r4                 ;811
000040  f7fffffe          BL       ADC_Disable
000044  0005              MOVS     r5,r0                 ;811
000046  d105              BNE      |L17.84|
000048  6d60              LDR      r0,[r4,#0x54]         ;817
00004a  f4205088          BIC      r0,r0,#0x1100         ;817
00004e  f0400001          ORR      r0,r0,#1              ;817
                  |L17.82|
000052  6560              STR      r0,[r4,#0x54]         ;827
                  |L17.84|
000054  2000              MOVS     r0,#0                 ;832
000056  f8840050          STRB     r0,[r4,#0x50]         ;832
00005a  4628              MOV      r0,r5                 ;835
00005c  bd70              POP      {r4-r6,pc}
;;;837    
                          ENDP


                          AREA ||i.HAL_ADCEx_LevelOutOfWindow2Callback||, CODE, READONLY, ALIGN=1

                  HAL_ADCEx_LevelOutOfWindow2Callback PROC
;;;1212     */
;;;1213   __weak void HAL_ADCEx_LevelOutOfWindow2Callback(ADC_HandleTypeDef *hadc)
000000  4770              BX       lr
;;;1214   {
;;;1215     /* Prevent unused argument(s) compilation warning */
;;;1216     UNUSED(hadc);
;;;1217   
;;;1218     /* NOTE : This function should not be modified. When the callback is needed,
;;;1219               function HAL_ADCEx_LevelOutOfWindow2Callback must be implemented in the user file.
;;;1220     */
;;;1221   }
;;;1222   
                          ENDP


                          AREA ||i.HAL_ADCEx_LevelOutOfWindow3Callback||, CODE, READONLY, ALIGN=1

                  HAL_ADCEx_LevelOutOfWindow3Callback PROC
;;;1227     */
;;;1228   __weak void HAL_ADCEx_LevelOutOfWindow3Callback(ADC_HandleTypeDef *hadc)
000000  4770              BX       lr
;;;1229   {
;;;1230     /* Prevent unused argument(s) compilation warning */
;;;1231     UNUSED(hadc);
;;;1232   
;;;1233     /* NOTE : This function should not be modified. When the callback is needed,
;;;1234               function HAL_ADCEx_LevelOutOfWindow3Callback must be implemented in the user file.
;;;1235     */
;;;1236   }
;;;1237   
                          ENDP


                          AREA ||i.HAL_ADCEx_RegularStop||, CODE, READONLY, ALIGN=1

                  HAL_ADCEx_RegularStop PROC
;;;1260     */
;;;1261   HAL_StatusTypeDef HAL_ADCEx_RegularStop(ADC_HandleTypeDef *hadc)
000000  b570              PUSH     {r4-r6,lr}
;;;1262   {
000002  4604              MOV      r4,r0
;;;1263     HAL_StatusTypeDef tmp_hal_status;
;;;1264   
;;;1265     /* Check the parameters */
;;;1266     assert_param(IS_ADC_ALL_INSTANCE(hadc->Instance));
;;;1267   
;;;1268     /* Process locked */
;;;1269     __HAL_LOCK(hadc);
000004  f8900050          LDRB     r0,[r0,#0x50]
000008  2801              CMP      r0,#1
00000a  d009              BEQ      |L20.32|
00000c  2001              MOVS     r0,#1
00000e  f8840050          STRB     r0,[r4,#0x50]
;;;1270   
;;;1271     /* 1. Stop potential regular conversion on going */
;;;1272     tmp_hal_status = ADC_ConversionStop(hadc, ADC_REGULAR_GROUP);
000012  4601              MOV      r1,r0
000014  4620              MOV      r0,r4
000016  f7fffffe          BL       ADC_ConversionStop
00001a  0005              MOVS     r5,r0
00001c  d002              BEQ      |L20.36|
00001e  e018              B        |L20.82|
                  |L20.32|
000020  2002              MOVS     r0,#2                 ;1269
;;;1273   
;;;1274     /* Disable ADC peripheral if regular conversions are effectively stopped
;;;1275        and if no injected conversions are on-going */
;;;1276     if (tmp_hal_status == HAL_OK)
;;;1277     {
;;;1278       /* Clear HAL_ADC_STATE_REG_BUSY bit */
;;;1279       CLEAR_BIT(hadc->State, HAL_ADC_STATE_REG_BUSY);
;;;1280   
;;;1281       if (LL_ADC_INJ_IsConversionOngoing(hadc->Instance) == 0UL)
;;;1282       {
;;;1283         /* 2. Disable the ADC peripheral */
;;;1284         tmp_hal_status = ADC_Disable(hadc);
;;;1285   
;;;1286         /* Check if ADC is effectively disabled */
;;;1287         if (tmp_hal_status == HAL_OK)
;;;1288         {
;;;1289           /* Set ADC state */
;;;1290           ADC_STATE_CLR_SET(hadc->State,
;;;1291                             HAL_ADC_STATE_INJ_BUSY,
;;;1292                             HAL_ADC_STATE_READY);
;;;1293         }
;;;1294       }
;;;1295       /* Conversion on injected group is stopped, but ADC not disabled since    */
;;;1296       /* conversion on regular group is still running.                          */
;;;1297       else
;;;1298       {
;;;1299         SET_BIT(hadc->State, HAL_ADC_STATE_INJ_BUSY);
;;;1300       }
;;;1301     }
;;;1302   
;;;1303     /* Process unlocked */
;;;1304     __HAL_UNLOCK(hadc);
;;;1305   
;;;1306     /* Return function status */
;;;1307     return tmp_hal_status;
;;;1308   }
000022  bd70              POP      {r4-r6,pc}
                  |L20.36|
000024  6d60              LDR      r0,[r4,#0x54]         ;1279
000026  f4207080          BIC      r0,r0,#0x100          ;1279
00002a  6560              STR      r0,[r4,#0x54]         ;1279
00002c  6820              LDR      r0,[r4,#0]            ;1281
00002e  f7fffffe          BL       LL_ADC_INJ_IsConversionOngoing
000032  b118              CBZ      r0,|L20.60|
000034  6d60              LDR      r0,[r4,#0x54]         ;1299
000036  f4405080          ORR      r0,r0,#0x1000         ;1299
00003a  e009              B        |L20.80|
                  |L20.60|
00003c  4620              MOV      r0,r4                 ;1284
00003e  f7fffffe          BL       ADC_Disable
000042  0005              MOVS     r5,r0                 ;1284
000044  d105              BNE      |L20.82|
000046  6d60              LDR      r0,[r4,#0x54]         ;1290
000048  f4205080          BIC      r0,r0,#0x1000         ;1290
00004c  f0400001          ORR      r0,r0,#1              ;1290
                  |L20.80|
000050  6560              STR      r0,[r4,#0x54]         ;1299
                  |L20.82|
000052  2000              MOVS     r0,#0                 ;1304
000054  f8840050          STRB     r0,[r4,#0x50]         ;1304
000058  4628              MOV      r0,r5                 ;1307
00005a  bd70              POP      {r4-r6,pc}
;;;1309   
                          ENDP


                          AREA ||i.HAL_ADCEx_RegularStop_DMA||, CODE, READONLY, ALIGN=1

                  HAL_ADCEx_RegularStop_DMA PROC
;;;1378     */
;;;1379   HAL_StatusTypeDef HAL_ADCEx_RegularStop_DMA(ADC_HandleTypeDef *hadc)
000000  b570              PUSH     {r4-r6,lr}
;;;1380   {
000002  4604              MOV      r4,r0
;;;1381     HAL_StatusTypeDef tmp_hal_status;
;;;1382   
;;;1383     /* Check the parameters */
;;;1384     assert_param(IS_ADC_ALL_INSTANCE(hadc->Instance));
;;;1385   
;;;1386     /* Process locked */
;;;1387     __HAL_LOCK(hadc);
000004  f8900050          LDRB     r0,[r0,#0x50]
000008  2801              CMP      r0,#1
00000a  d009              BEQ      |L21.32|
00000c  2001              MOVS     r0,#1
00000e  f8840050          STRB     r0,[r4,#0x50]
;;;1388   
;;;1389     /* 1. Stop potential regular conversion on going */
;;;1390     tmp_hal_status = ADC_ConversionStop(hadc, ADC_REGULAR_GROUP);
000012  4601              MOV      r1,r0
000014  4620              MOV      r0,r4
000016  f7fffffe          BL       ADC_ConversionStop
00001a  0005              MOVS     r5,r0
00001c  d002              BEQ      |L21.36|
00001e  e02f              B        |L21.128|
                  |L21.32|
000020  2002              MOVS     r0,#2                 ;1387
;;;1391   
;;;1392     /* Disable ADC peripheral if conversions are effectively stopped
;;;1393        and if no injected conversion is on-going */
;;;1394     if (tmp_hal_status == HAL_OK)
;;;1395     {
;;;1396       /* Clear HAL_ADC_STATE_REG_BUSY bit */
;;;1397       CLEAR_BIT(hadc->State, HAL_ADC_STATE_REG_BUSY);
;;;1398   
;;;1399       /* Disable ADC DMA (ADC DMA configuration ADC_CFGR_DMACFG is kept) */
;;;1400       CLEAR_BIT(hadc->Instance->CFGR, ADC_CFGR_DMAEN);
;;;1401   
;;;1402       /* Disable the DMA channel (in case of DMA in circular mode or stop while */
;;;1403       /* while DMA transfer is on going)                                        */
;;;1404       tmp_hal_status = HAL_DMA_Abort(hadc->DMA_Handle);
;;;1405   
;;;1406       /* Check if DMA channel effectively disabled */
;;;1407       if (tmp_hal_status != HAL_OK)
;;;1408       {
;;;1409         /* Update ADC state machine to error */
;;;1410         SET_BIT(hadc->State, HAL_ADC_STATE_ERROR_DMA);
;;;1411       }
;;;1412   
;;;1413       /* Disable ADC overrun interrupt */
;;;1414       __HAL_ADC_DISABLE_IT(hadc, ADC_IT_OVR);
;;;1415   
;;;1416       /* 2. Disable the ADC peripheral */
;;;1417       /* Update "tmp_hal_status" only if DMA channel disabling passed,          */
;;;1418       /* to keep in memory a potential failing status.                          */
;;;1419       if (LL_ADC_INJ_IsConversionOngoing(hadc->Instance) == 0UL)
;;;1420       {
;;;1421         if (tmp_hal_status == HAL_OK)
;;;1422         {
;;;1423           tmp_hal_status = ADC_Disable(hadc);
;;;1424         }
;;;1425         else
;;;1426         {
;;;1427           (void)ADC_Disable(hadc);
;;;1428         }
;;;1429   
;;;1430         /* Check if ADC is effectively disabled */
;;;1431         if (tmp_hal_status == HAL_OK)
;;;1432         {
;;;1433           /* Set ADC state */
;;;1434           ADC_STATE_CLR_SET(hadc->State,
;;;1435                             HAL_ADC_STATE_INJ_BUSY,
;;;1436                             HAL_ADC_STATE_READY);
;;;1437         }
;;;1438       }
;;;1439       else
;;;1440       {
;;;1441         SET_BIT(hadc->State, HAL_ADC_STATE_INJ_BUSY);
;;;1442       }
;;;1443     }
;;;1444   
;;;1445     /* Process unlocked */
;;;1446     __HAL_UNLOCK(hadc);
;;;1447   
;;;1448     /* Return function status */
;;;1449     return tmp_hal_status;
;;;1450   }
000022  bd70              POP      {r4-r6,pc}
                  |L21.36|
000024  6d60              LDR      r0,[r4,#0x54]         ;1397
000026  f4207080          BIC      r0,r0,#0x100          ;1397
00002a  6560              STR      r0,[r4,#0x54]         ;1397
00002c  6820              LDR      r0,[r4,#0]            ;1400
00002e  68c1              LDR      r1,[r0,#0xc]          ;1400
000030  f0210101          BIC      r1,r1,#1              ;1400
000034  60c1              STR      r1,[r0,#0xc]          ;1400
000036  6ce0              LDR      r0,[r4,#0x4c]         ;1404
000038  f7fffffe          BL       HAL_DMA_Abort
00003c  0005              MOVS     r5,r0                 ;1404
00003e  d003              BEQ      |L21.72|
000040  6d60              LDR      r0,[r4,#0x54]         ;1410
000042  f0400040          ORR      r0,r0,#0x40           ;1410
000046  6560              STR      r0,[r4,#0x54]         ;1410
                  |L21.72|
000048  6820              LDR      r0,[r4,#0]            ;1414
00004a  6841              LDR      r1,[r0,#4]            ;1414
00004c  f0210110          BIC      r1,r1,#0x10           ;1414
000050  6041              STR      r1,[r0,#4]            ;1414
000052  6820              LDR      r0,[r4,#0]            ;1419
000054  f7fffffe          BL       LL_ADC_INJ_IsConversionOngoing
000058  b118              CBZ      r0,|L21.98|
00005a  6d60              LDR      r0,[r4,#0x54]         ;1441
00005c  f4405080          ORR      r0,r0,#0x1000         ;1441
000060  e00d              B        |L21.126|
                  |L21.98|
000062  4620              MOV      r0,r4                 ;1427
000064  b115              CBZ      r5,|L21.108|
000066  f7fffffe          BL       ADC_Disable
00006a  e009              B        |L21.128|
                  |L21.108|
00006c  f7fffffe          BL       ADC_Disable
000070  0005              MOVS     r5,r0                 ;1423
000072  d105              BNE      |L21.128|
000074  6d60              LDR      r0,[r4,#0x54]         ;1434
000076  f4205080          BIC      r0,r0,#0x1000         ;1434
00007a  f0400001          ORR      r0,r0,#1              ;1434
                  |L21.126|
00007e  6560              STR      r0,[r4,#0x54]         ;1441
                  |L21.128|
000080  2000              MOVS     r0,#0                 ;1446
000082  f8840050          STRB     r0,[r4,#0x50]         ;1446
000086  4628              MOV      r0,r5                 ;1449
000088  bd70              POP      {r4-r6,pc}
;;;1451   
                          ENDP


                          AREA ||i.HAL_ADCEx_RegularStop_IT||, CODE, READONLY, ALIGN=1

                  HAL_ADCEx_RegularStop_IT PROC
;;;1318     */
;;;1319   HAL_StatusTypeDef HAL_ADCEx_RegularStop_IT(ADC_HandleTypeDef *hadc)
000000  b570              PUSH     {r4-r6,lr}
;;;1320   {
000002  4604              MOV      r4,r0
;;;1321     HAL_StatusTypeDef tmp_hal_status;
;;;1322   
;;;1323     /* Check the parameters */
;;;1324     assert_param(IS_ADC_ALL_INSTANCE(hadc->Instance));
;;;1325   
;;;1326     /* Process locked */
;;;1327     __HAL_LOCK(hadc);
000004  f8900050          LDRB     r0,[r0,#0x50]
000008  2801              CMP      r0,#1
00000a  d009              BEQ      |L22.32|
00000c  2001              MOVS     r0,#1
00000e  f8840050          STRB     r0,[r4,#0x50]
;;;1328   
;;;1329     /* 1. Stop potential regular conversion on going */
;;;1330     tmp_hal_status = ADC_ConversionStop(hadc, ADC_REGULAR_GROUP);
000012  4601              MOV      r1,r0
000014  4620              MOV      r0,r4
000016  f7fffffe          BL       ADC_ConversionStop
00001a  0005              MOVS     r5,r0
00001c  d002              BEQ      |L22.36|
00001e  e01d              B        |L22.92|
                  |L22.32|
000020  2002              MOVS     r0,#2                 ;1327
;;;1331   
;;;1332     /* Disable ADC peripheral if conversions are effectively stopped
;;;1333       and if no injected conversion is on-going */
;;;1334     if (tmp_hal_status == HAL_OK)
;;;1335     {
;;;1336       /* Clear HAL_ADC_STATE_REG_BUSY bit */
;;;1337       CLEAR_BIT(hadc->State, HAL_ADC_STATE_REG_BUSY);
;;;1338   
;;;1339       /* Disable all regular-related interrupts */
;;;1340       __HAL_ADC_DISABLE_IT(hadc, (ADC_IT_EOC | ADC_IT_EOS | ADC_IT_OVR));
;;;1341   
;;;1342       /* 2. Disable ADC peripheral if no injected conversions are on-going */
;;;1343       if (LL_ADC_INJ_IsConversionOngoing(hadc->Instance) == 0UL)
;;;1344       {
;;;1345         tmp_hal_status = ADC_Disable(hadc);
;;;1346         /* if no issue reported */
;;;1347         if (tmp_hal_status == HAL_OK)
;;;1348         {
;;;1349           /* Set ADC state */
;;;1350           ADC_STATE_CLR_SET(hadc->State,
;;;1351                             HAL_ADC_STATE_INJ_BUSY,
;;;1352                             HAL_ADC_STATE_READY);
;;;1353         }
;;;1354       }
;;;1355       else
;;;1356       {
;;;1357         SET_BIT(hadc->State, HAL_ADC_STATE_INJ_BUSY);
;;;1358       }
;;;1359     }
;;;1360   
;;;1361     /* Process unlocked */
;;;1362     __HAL_UNLOCK(hadc);
;;;1363   
;;;1364     /* Return function status */
;;;1365     return tmp_hal_status;
;;;1366   }
000022  bd70              POP      {r4-r6,pc}
                  |L22.36|
000024  6d60              LDR      r0,[r4,#0x54]         ;1337
000026  f4207080          BIC      r0,r0,#0x100          ;1337
00002a  6560              STR      r0,[r4,#0x54]         ;1337
00002c  6820              LDR      r0,[r4,#0]            ;1340
00002e  6841              LDR      r1,[r0,#4]            ;1340
000030  f021011c          BIC      r1,r1,#0x1c           ;1340
000034  6041              STR      r1,[r0,#4]            ;1340
000036  6820              LDR      r0,[r4,#0]            ;1343
000038  f7fffffe          BL       LL_ADC_INJ_IsConversionOngoing
00003c  b118              CBZ      r0,|L22.70|
00003e  6d60              LDR      r0,[r4,#0x54]         ;1357
000040  f4405080          ORR      r0,r0,#0x1000         ;1357
000044  e009              B        |L22.90|
                  |L22.70|
000046  4620              MOV      r0,r4                 ;1345
000048  f7fffffe          BL       ADC_Disable
00004c  0005              MOVS     r5,r0                 ;1345
00004e  d105              BNE      |L22.92|
000050  6d60              LDR      r0,[r4,#0x54]         ;1350
000052  f4205080          BIC      r0,r0,#0x1000         ;1350
000056  f0400001          ORR      r0,r0,#1              ;1350
                  |L22.90|
00005a  6560              STR      r0,[r4,#0x54]         ;1357
                  |L22.92|
00005c  2000              MOVS     r0,#0                 ;1362
00005e  f8840050          STRB     r0,[r4,#0x50]         ;1362
000062  4628              MOV      r0,r5                 ;1365
000064  bd70              POP      {r4-r6,pc}
;;;1367   
                          ENDP


                          AREA ||i.LL_ADC_GetOffsetChannel||, CODE, READONLY, ALIGN=1

                  LL_ADC_GetOffsetChannel PROC
;;;3007     */
;;;3008   __STATIC_INLINE uint32_t LL_ADC_GetOffsetChannel(ADC_TypeDef *ADCx, uint32_t Offsety)
000000  eb000081          ADD      r0,r0,r1,LSL #2
;;;3009   {
;;;3010     const __IO uint32_t *preg = __ADC_PTR_REG_OFFSET(ADCx->OFR1, Offsety);
;;;3011   
;;;3012     return (uint32_t) READ_BIT(*preg, ADC_OFR1_OFFSET1_CH);
000004  6e00              LDR      r0,[r0,#0x60]
000006  f00040f8          AND      r0,r0,#0x7c000000
;;;3013   }
00000a  4770              BX       lr
;;;3014   
                          ENDP


                          AREA ||i.LL_ADC_INJ_IsConversionOngoing||, CODE, READONLY, ALIGN=1

                  LL_ADC_INJ_IsConversionOngoing PROC
;;;6352     */
;;;6353   __STATIC_INLINE uint32_t LL_ADC_INJ_IsConversionOngoing(ADC_TypeDef *ADCx)
000000  6880              LDR      r0,[r0,#8]
;;;6354   {
;;;6355     return ((READ_BIT(ADCx->CR, ADC_CR_JADSTART) == (ADC_CR_JADSTART)) ? 1UL : 0UL);
000002  f3c000c0          UBFX     r0,r0,#3,#1
;;;6356   }
000006  4770              BX       lr
;;;6357   
                          ENDP


                          AREA ||i.LL_ADC_REG_IsConversionOngoing||, CODE, READONLY, ALIGN=1

                  LL_ADC_REG_IsConversionOngoing PROC
;;;6169     */
;;;6170   __STATIC_INLINE uint32_t LL_ADC_REG_IsConversionOngoing(ADC_TypeDef *ADCx)
000000  6880              LDR      r0,[r0,#8]
;;;6171   {
;;;6172     return ((READ_BIT(ADCx->CR, ADC_CR_ADSTART) == (ADC_CR_ADSTART)) ? 1UL : 0UL);
000002  f3c00080          UBFX     r0,r0,#2,#1
;;;6173   }
000006  4770              BX       lr
;;;6174   
                          ENDP


                          AREA ||i.LL_ADC_SetChannelSamplingTime||, CODE, READONLY, ALIGN=1

                  LL_ADC_SetChannelSamplingTime PROC
;;;4715     */
;;;4716   __STATIC_INLINE void LL_ADC_SetChannelSamplingTime(ADC_TypeDef *ADCx, uint32_t Channel, uint32_t SamplingTime)
000000  2304              MOVS     r3,#4
;;;4717   {
;;;4718     /* Set bits with content of parameter "SamplingTime" with bits position     */
;;;4719     /* in register and register position depending on parameter "Channel".      */
;;;4720     /* Parameter "Channel" is used with masks because containing                */
;;;4721     /* other bits reserved for other purpose.                                   */
;;;4722     __IO uint32_t *preg = __ADC_PTR_REG_OFFSET(ADCx->SMPR1, ((Channel & ADC_CHANNEL_SMPRX_REGOFFSET_MASK) >> ADC_SMPRX_REGOFFSET_POS));
000002  ea0353d1          AND      r3,r3,r1,LSR #23
000006  b510              PUSH     {r4,lr}               ;4717
000008  4418              ADD      r0,r0,r3
;;;4723   
;;;4724     MODIFY_REG(*preg,
00000a  6943              LDR      r3,[r0,#0x14]
00000c  f3c15104          UBFX     r1,r1,#20,#5
000010  2407              MOVS     r4,#7
000012  408c              LSLS     r4,r4,r1
000014  43a3              BICS     r3,r3,r4
000016  408a              LSLS     r2,r2,r1
000018  4313              ORRS     r3,r3,r2
00001a  6143              STR      r3,[r0,#0x14]
;;;4725                ADC_SMPR1_SMP0 << ((Channel & ADC_CHANNEL_SMPx_BITOFFSET_MASK) >> ADC_CHANNEL_SMPx_BITOFFSET_POS),
;;;4726                SamplingTime   << ((Channel & ADC_CHANNEL_SMPx_BITOFFSET_MASK) >> ADC_CHANNEL_SMPx_BITOFFSET_POS));
;;;4727   }
00001c  bd10              POP      {r4,pc}
;;;4728   
                          ENDP


                          AREA ||i.LL_ADC_SetOffsetState||, CODE, READONLY, ALIGN=1

                  LL_ADC_SetOffsetState PROC
;;;3066     */
;;;3067   __STATIC_INLINE void LL_ADC_SetOffsetState(ADC_TypeDef *ADCx, uint32_t Offsety, uint32_t OffsetState)
000000  eb000081          ADD      r0,r0,r1,LSL #2
;;;3068   {
;;;3069     __IO uint32_t *preg = __ADC_PTR_REG_OFFSET(ADCx->OFR1, Offsety);
;;;3070   
;;;3071     MODIFY_REG(*preg,
000004  6e01              LDR      r1,[r0,#0x60]
000006  f0214100          BIC      r1,r1,#0x80000000
00000a  4311              ORRS     r1,r1,r2
00000c  6601              STR      r1,[r0,#0x60]
;;;3072                ADC_OFR1_OFFSET1_EN,
;;;3073                OffsetState);
;;;3074   }
00000e  4770              BX       lr
;;;3075   
                          ENDP


;*** Start embedded assembler ***

#line 1 "../Drivers/STM32L4xx_HAL_Driver/Src/stm32l4xx_hal_adc_ex.c"
	AREA ||.rev16_text||, CODE
	THUMB
	EXPORT |__asm___22_stm32l4xx_hal_adc_ex_c_3613cd7f____REV16|
#line 492 "../Drivers/CMSIS/Include/cmsis_armcc.h"
|__asm___22_stm32l4xx_hal_adc_ex_c_3613cd7f____REV16| PROC
#line 493

 rev16 r0, r0
 bx lr
	ENDP
	AREA ||.revsh_text||, CODE
	THUMB
	EXPORT |__asm___22_stm32l4xx_hal_adc_ex_c_3613cd7f____REVSH|
#line 507
|__asm___22_stm32l4xx_hal_adc_ex_c_3613cd7f____REVSH| PROC
#line 508

 revsh r0, r0
 bx lr
	ENDP
	AREA ||.rrx_text||, CODE
	THUMB
	EXPORT |__asm___22_stm32l4xx_hal_adc_ex_c_3613cd7f____RRX|
#line 694
|__asm___22_stm32l4xx_hal_adc_ex_c_3613cd7f____RRX| PROC
#line 695

 rrx r0, r0
 bx lr
	ENDP

;*** End   embedded assembler ***
